---
triple:          'arm64-apple-darwin'
binary-path:     simple_sound_system
relocations:
  - { offsetInCU: 0x37, offset: 0x37, size: 0x8, addend: 0x0, symName: _fd, symObjAddr: 0x118450, symBinAddr: 0x100028000, symSize: 0x0 }
  - { offsetInCU: 0x169, offset: 0x169, size: 0x8, addend: 0x0, symName: __ZNSt3__1L19piecewise_constructE, symObjAddr: 0x20688, symBinAddr: 0x100021934, symSize: 0x0 }
  - { offsetInCU: 0x1A3, offset: 0x1A3, size: 0x8, addend: 0x0, symName: __ZNSt3__16ranges5__cpo9iter_moveE, symObjAddr: 0x2074E, symBinAddr: 0x1000219FA, symSize: 0x0 }
  - { offsetInCU: 0xD5CC, offset: 0xD5CC, size: 0x8, addend: 0x0, symName: __ZNSt3__16chronomiB7v160006IxNS_5ratioILl1ELl1000000000EEExS3_EENS_11common_typeIJNS0_8durationIT_T0_EENS5_IT1_T2_EEEE4typeERKS8_RKSB_, symObjAddr: 0x1C64C, symBinAddr: 0x10001DDF4, symSize: 0x70 }
  - { offsetInCU: 0xD9A9, offset: 0xD9A9, size: 0x8, addend: 0x0, symName: __ZNSt3__16chronomiB7v160006INS0_12steady_clockENS0_8durationIxNS_5ratioILl1ELl1000000000EEEEES6_EENS_11common_typeIJT0_T1_EE4typeERKNS0_10time_pointIT_S8_EERKNSC_ISD_S9_EE, symObjAddr: 0x1BCCC, symBinAddr: 0x10001D474, symSize: 0x58 }
  - { offsetInCU: 0xD9FE, offset: 0xD9FE, size: 0x8, addend: 0x0, symName: __ZNSt3__16chrononeB7v160006IxNS_5ratioILl1ELl1000000000EEExS3_EEbRKNS0_8durationIT_T0_EERKNS4_IT1_T2_EE, symObjAddr: 0x1BD24, symBinAddr: 0x10001D4CC, symSize: 0x34 }
  - { offsetInCU: 0xDA5F, offset: 0xDA5F, size: 0x8, addend: 0x0, symName: __ZNSt3__16chronoltB7v160006IxNS_5ratioILl1ELl1000000000EEExS3_EEbRKNS0_8durationIT_T0_EERKNS4_IT1_T2_EE, symObjAddr: 0x1BD58, symBinAddr: 0x10001D500, symSize: 0x34 }
  - { offsetInCU: 0xDBC0, offset: 0xDBC0, size: 0x8, addend: 0x0, symName: __ZNSt3__16chronoeqB7v160006IxNS_5ratioILl1ELl1000000000EEExS3_EEbRKNS0_8durationIT_T0_EERKNS4_IT1_T2_EE, symObjAddr: 0x1C758, symBinAddr: 0x10001DF00, symSize: 0x34 }
  - { offsetInCU: 0xDC9B, offset: 0xDC9B, size: 0x8, addend: 0x0, symName: __ZNSt3__16chronogtB7v160006IxNS_5ratioILl1ELl1000000000EEExNS2_ILl1ELl1000000EEEEEbRKNS0_8durationIT_T0_EERKNS5_IT1_T2_EE, symObjAddr: 0x1C824, symBinAddr: 0x10001DFCC, symSize: 0x30 }
  - { offsetInCU: 0xDCFC, offset: 0xDCFC, size: 0x8, addend: 0x0, symName: __ZNSt3__16chronoltB7v160006IxNS_5ratioILl1ELl1000000EEExNS2_ILl1ELl1000000000EEEEEbRKNS0_8durationIT_T0_EERKNS5_IT1_T2_EE, symObjAddr: 0x1C8A4, symBinAddr: 0x10001E04C, symSize: 0x34 }
  - { offsetInCU: 0xDD5D, offset: 0xDD5D, size: 0x8, addend: 0x0, symName: __ZNSt3__16chrono13duration_castB7v160006INS0_8durationIxNS_5ratioILl1ELl1000000000EEEEExNS3_ILl1ELl1000000EEEEENS_9enable_ifIXsr13__is_durationIT_EE5valueES8_E4typeERKNS2_IT0_T1_EE, symObjAddr: 0x1C9D0, symBinAddr: 0x10001E178, symSize: 0x30 }
  - { offsetInCU: 0xDDE4, offset: 0xDDE4, size: 0x8, addend: 0x0, symName: __ZNSt3__16chronogtB7v160006IxNS_5ratioILl1ELl1EEExS3_EEbRKNS0_8durationIT_T0_EERKNS4_IT1_T2_EE, symObjAddr: 0x1F1EC, symBinAddr: 0x100020994, symSize: 0x30 }
  - { offsetInCU: 0xDE45, offset: 0xDE45, size: 0x8, addend: 0x0, symName: __ZNSt3__16chronoltB7v160006IxNS_5ratioILl1ELl1EEEeS3_EEbRKNS0_8durationIT_T0_EERKNS4_IT1_T2_EE, symObjAddr: 0x1F258, symBinAddr: 0x100020A00, symSize: 0x34 }
  - { offsetInCU: 0xDEA6, offset: 0xDEA6, size: 0x8, addend: 0x0, symName: __ZNSt3__16chrono13duration_castB7v160006INS0_8durationIxNS_5ratioILl1ELl1000000000EEEEExNS3_ILl1ELl1EEEEENS_9enable_ifIXsr13__is_durationIT_EE5valueES8_E4typeERKNS2_IT0_T1_EE, symObjAddr: 0x1F28C, symBinAddr: 0x100020A34, symSize: 0x30 }
  - { offsetInCU: 0xDEED, offset: 0xDEED, size: 0x8, addend: 0x0, symName: __ZNSt3__16chronoltB7v160006IxNS_5ratioILl1ELl1000000000EEExNS2_ILl1ELl1EEEEEbRKNS0_8durationIT_T0_EERKNS5_IT1_T2_EE, symObjAddr: 0x1F2BC, symBinAddr: 0x100020A64, symSize: 0x34 }
  - { offsetInCU: 0xDF4E, offset: 0xDF4E, size: 0x8, addend: 0x0, symName: __ZNSt3__16chronoltB7v160006IxNS_5ratioILl1ELl1EEExS3_EEbRKNS0_8durationIT_T0_EERKNS4_IT1_T2_EE, symObjAddr: 0x1F34C, symBinAddr: 0x100020AF4, symSize: 0x34 }
  - { offsetInCU: 0xDFEC, offset: 0xDFEC, size: 0x8, addend: 0x0, symName: __ZNSt3__16chrono13duration_castB7v160006INS0_8durationIeNS_5ratioILl1ELl1EEEEExS4_EENS_9enable_ifIXsr13__is_durationIT_EE5valueES7_E4typeERKNS2_IT0_T1_EE, symObjAddr: 0x1F550, symBinAddr: 0x100020CF8, symSize: 0x30 }
  - { offsetInCU: 0xE111, offset: 0xE111, size: 0x8, addend: 0x0, symName: __ZNSt3__124__put_character_sequenceB7v160006IcNS_11char_traitsIcEEEERNS_13basic_ostreamIT_T0_EES7_PKS4_m, symObjAddr: 0x197C, symBinAddr: 0x100003124, symSize: 0x1EC }
  - { offsetInCU: 0xEF74, offset: 0xEF74, size: 0x8, addend: 0x0, symName: __ZNSt3__117__cxx_atomic_loadB7v160006ImEET_PKNS_22__cxx_atomic_base_implIS1_EENS_12memory_orderE, symObjAddr: 0x23C0, symBinAddr: 0x100003B68, symSize: 0x80 }
  - { offsetInCU: 0x11455, offset: 0x11455, size: 0x8, addend: 0x0, symName: __ZNSt3__110__function10__not_nullB7v160006IFvP9SSS_MixerIfEPfmEEEbPT_, symObjAddr: 0x7560, symBinAddr: 0x100008D08, symSize: 0x20 }
  - { offsetInCU: 0x1148A, offset: 0x1148A, size: 0x8, addend: 0x0, symName: __ZNSt3__110__function10__not_nullB7v160006IFmP8SSS_NodeIfEmEEEbPT_, symObjAddr: 0x9124, symBinAddr: 0x10000A8CC, symSize: 0x20 }
  - { offsetInCU: 0x114BF, offset: 0x114BF, size: 0x8, addend: 0x0, symName: __ZNSt3__110__function10__not_nullB7v160006INS_6__bindIRNS_8functionIFmP8SSS_NodeIfEmEEEJRS6_RmEEEEEbRKT_, symObjAddr: 0x131F8, symBinAddr: 0x1000149A0, symSize: 0x18 }
  - { offsetInCU: 0x1E8E0, offset: 0x1E8E0, size: 0x8, addend: 0x0, symName: __ZNSt3__17advanceB7v160006IPcmmvEEvRT_T0_, symObjAddr: 0xED50, symBinAddr: 0x1000104F8, symSize: 0x50 }
  - { offsetInCU: 0x1EA8D, offset: 0x1EA8D, size: 0x8, addend: 0x0, symName: __ZNSt3__17advanceB7v160006IPcllvEEvRT_T0_, symObjAddr: 0xFA2C, symBinAddr: 0x1000111D4, symSize: 0x50 }
  - { offsetInCU: 0x21BA7, offset: 0x21BA7, size: 0x8, addend: 0x0, symName: __ZNSt3__117__cxx_atomic_loadB7v160006IbEET_PKNS_22__cxx_atomic_base_implIS1_EENS_12memory_orderE, symObjAddr: 0x17F4C, symBinAddr: 0x1000196F4, symSize: 0x84 }
  - { offsetInCU: 0x22DE6, offset: 0x22DE6, size: 0x8, addend: 0x0, symName: __ZNSt3__117__cxx_atomic_loadB7v160006IlEET_PKNS_22__cxx_atomic_base_implIS1_EENS_12memory_orderE, symObjAddr: 0x1BF08, symBinAddr: 0x10001D6B0, symSize: 0x80 }
  - { offsetInCU: 0x241F2, offset: 0x241F2, size: 0x8, addend: 0x0, symName: __ZNSt3__14endlB7v160006IcNS_11char_traitsIcEEEERNS_13basic_ostreamIT_T0_EES7_, symObjAddr: 0x984, symBinAddr: 0x10000212C, symSize: 0x58 }
  - { offsetInCU: 0x24233, offset: 0x24233, size: 0x8, addend: 0x0, symName: '__ZNSt3__19transformB7v160006INS_11__wrap_iterIPfEES2_S3_Z8mixer_fnP9SSS_MixerIfES2_mE3$_0EET1_T_S9_T0_S8_T2_', symObjAddr: 0xA70, symBinAddr: 0x100002218, symSize: 0xA0 }
  - { offsetInCU: 0x242C1, offset: 0x242C1, size: 0x8, addend: 0x0, symName: __ZNSt3__111this_thread9sleep_forB7v160006IxNS_5ratioILl1ELl1EEEEEvRKNS_6chrono8durationIT_T0_EE, symObjAddr: 0x13F8, symBinAddr: 0x100002BA0, symSize: 0xBC }
  - { offsetInCU: 0x24349, offset: 0x24349, size: 0x8, addend: 0x0, symName: __ZNSt3__1lsB7v160006INS_11char_traitsIcEEEERNS_13basic_ostreamIcT_EES6_PKc, symObjAddr: 0x1518, symBinAddr: 0x100002CC0, symSize: 0x48 }
  - { offsetInCU: 0x2438F, offset: 0x2438F, size: 0x8, addend: 0x0, symName: __ZNSt3__112__to_addressB7v160006IcEEPT_S2_, symObjAddr: 0x1560, symBinAddr: 0x100002D08, symSize: 0x14 }
  - { offsetInCU: 0x243C4, offset: 0x243C4, size: 0x8, addend: 0x0, symName: __ZNSt3__1neB7v160006IPfEEbRKNS_11__wrap_iterIT_EES6_, symObjAddr: 0x15A8, symBinAddr: 0x100002D50, symSize: 0x34 }
  - { offsetInCU: 0x24407, offset: 0x24407, size: 0x8, addend: 0x0, symName: __ZNSt3__1eqB7v160006IPfEEbRKNS_11__wrap_iterIT_EES6_, symObjAddr: 0x166C, symBinAddr: 0x100002E14, symSize: 0x48 }
  - { offsetInCU: 0x2444A, offset: 0x2444A, size: 0x8, addend: 0x0, symName: __ZNSt3__119__debug_db_insert_cB7v160006INS_12basic_stringIcNS_11char_traitsIcEENS_9allocatorIcEEEEEEvPT_, symObjAddr: 0x1858, symBinAddr: 0x100003000, symSize: 0x10 }
  - { offsetInCU: 0x2447B, offset: 0x2447B, size: 0x8, addend: 0x0, symName: __ZNSt3__118__constexpr_strlenB7v160006EPKc, symObjAddr: 0x1924, symBinAddr: 0x1000030CC, symSize: 0x24 }
  - { offsetInCU: 0x244A7, offset: 0x244A7, size: 0x8, addend: 0x0, symName: __ZNSt3__116__pad_and_outputB7v160006IcNS_11char_traitsIcEEEENS_19ostreambuf_iteratorIT_T0_EES6_PKS4_S8_S8_RNS_8ios_baseES4_, symObjAddr: 0x1B84, symBinAddr: 0x10000332C, symSize: 0x240 }
  - { offsetInCU: 0x24576, offset: 0x24576, size: 0x8, addend: 0x0, symName: __ZNSt3__19use_facetB7v160006INS_5ctypeIcEEEERKT_RKNS_6localeE, symObjAddr: 0x22A0, symBinAddr: 0x100003A48, symSize: 0x2C }
  - { offsetInCU: 0x24A46, offset: 0x24A46, size: 0x8, addend: 0x0, symName: __ZNSt3__118__cxx_atomic_storeB7v160006ImEEvPNS_22__cxx_atomic_base_implIT_EES2_NS_12memory_orderE, symObjAddr: 0x2440, symBinAddr: 0x100003BE8, symSize: 0x84 }
  - { offsetInCU: 0x24A97, offset: 0x24A97, size: 0x8, addend: 0x0, symName: __ZNSt3__119__debug_db_insert_cB7v160006INS_6vectorIjNS_9allocatorIjEEEEEEvPT_, symObjAddr: 0x2924, symBinAddr: 0x1000040CC, symSize: 0x10 }
  - { offsetInCU: 0x24AC8, offset: 0x24AC8, size: 0x8, addend: 0x0, symName: __ZNSt3__119__debug_db_insert_cB7v160006INS_6vectorIfNS_9allocatorIfEEEEEEvPT_, symObjAddr: 0x2ED0, symBinAddr: 0x100004678, symSize: 0x10 }
  - { offsetInCU: 0x24AF9, offset: 0x24AF9, size: 0x8, addend: 0x0, symName: __ZNSt3__119__debug_db_insert_cB7v160006INS_6vectorIP8SSS_NodeIfENS_9allocatorIS4_EEEEEEvPT_, symObjAddr: 0x303C, symBinAddr: 0x1000047E4, symSize: 0x10 }
  - { offsetInCU: 0x24B2A, offset: 0x24B2A, size: 0x8, addend: 0x0, symName: __ZNSt3__119__debug_db_insert_cB7v160006INS_13unordered_mapINS_12basic_stringIcNS_11char_traitsIcEENS_9allocatorIcEEEEP8SSS_NodeIfENS_4hashIS7_EENS_8equal_toIS7_EENS5_INS_4pairIKS7_SA_EEEEEEEEvPT_, symObjAddr: 0x317C, symBinAddr: 0x100004924, symSize: 0x10 }
  - { offsetInCU: 0x24B5B, offset: 0x24B5B, size: 0x8, addend: 0x0, symName: __ZNSt3__1neB7v160006ERKNS_16__deque_iteratorINS_6threadEPS1_RS1_PS2_lLl512EEES7_, symObjAddr: 0x4794, symBinAddr: 0x100005F3C, symSize: 0x34 }
  - { offsetInCU: 0x24B98, offset: 0x24B98, size: 0x8, addend: 0x0, symName: __ZNSt3__1eqB7v160006ERKNS_16__deque_iteratorINS_6threadEPS1_RS1_PS2_lLl512EEES7_, symObjAddr: 0x4A24, symBinAddr: 0x1000061CC, symSize: 0x30 }
  - { offsetInCU: 0x24BD5, offset: 0x24BD5, size: 0x8, addend: 0x0, symName: __ZNSt3__110destroy_atB7v160006INS_6threadELi0EEEvPT_, symObjAddr: 0x4A54, symBinAddr: 0x1000061FC, symSize: 0x24 }
  - { offsetInCU: 0x24C0C, offset: 0x24C0C, size: 0x8, addend: 0x0, symName: __ZNSt3__112__destroy_atB7v160006INS_6threadELi0EEEvPT_, symObjAddr: 0x4A78, symBinAddr: 0x100006220, symSize: 0x24 }
  - { offsetInCU: 0x24C44, offset: 0x24C44, size: 0x8, addend: 0x0, symName: __ZNSt3__119__libcpp_deallocateB7v160006EPvmm, symObjAddr: 0x4B60, symBinAddr: 0x100006308, symSize: 0x60 }
  - { offsetInCU: 0x24CAA, offset: 0x24CAA, size: 0x8, addend: 0x0, symName: __ZNSt3__124__is_overaligned_for_newB7v160006Em, symObjAddr: 0x4BC0, symBinAddr: 0x100006368, symSize: 0x20 }
  - { offsetInCU: 0x24CD9, offset: 0x24CD9, size: 0x8, addend: 0x0, symName: __ZNSt3__127__do_deallocate_handle_sizeB7v160006IJSt11align_val_tEEEvPvmDpT_, symObjAddr: 0x4BE0, symBinAddr: 0x100006388, symSize: 0x30 }
  - { offsetInCU: 0x24D2D, offset: 0x24D2D, size: 0x8, addend: 0x0, symName: __ZNSt3__127__do_deallocate_handle_sizeB7v160006IJEEEvPvmDpT_, symObjAddr: 0x4C10, symBinAddr: 0x1000063B8, symSize: 0x28 }
  - { offsetInCU: 0x24D6C, offset: 0x24D6C, size: 0x8, addend: 0x0, symName: __ZNSt3__124__libcpp_operator_deleteB7v160006IJPvSt11align_val_tEEEvDpT_, symObjAddr: 0x4C38, symBinAddr: 0x1000063E0, symSize: 0x2C }
  - { offsetInCU: 0x24DB6, offset: 0x24DB6, size: 0x8, addend: 0x0, symName: __ZNSt3__124__libcpp_operator_deleteB7v160006IJPvEEEvDpT_, symObjAddr: 0x4C64, symBinAddr: 0x10000640C, symSize: 0x24 }
  - { offsetInCU: 0x24DEB, offset: 0x24DEB, size: 0x8, addend: 0x0, symName: __ZNSt3__112__to_addressB7v160006IPNS_6threadEEEPT_S4_, symObjAddr: 0x4EE4, symBinAddr: 0x10000668C, symSize: 0x14 }
  - { offsetInCU: 0x24E20, offset: 0x24E20, size: 0x8, addend: 0x0, symName: __ZNSt3__110destroy_atB7v160006IPNS_6threadELi0EEEvPT_, symObjAddr: 0x4EF8, symBinAddr: 0x1000066A0, symSize: 0x24 }
  - { offsetInCU: 0x24E57, offset: 0x24E57, size: 0x8, addend: 0x0, symName: __ZNSt3__112__destroy_atB7v160006IPNS_6threadELi0EEEvPT_, symObjAddr: 0x4F1C, symBinAddr: 0x1000066C4, symSize: 0x10 }
  - { offsetInCU: 0x24E8E, offset: 0x24E8E, size: 0x8, addend: 0x0, symName: __ZNSt3__1neB7v160006ERKNS_16__deque_iteratorINS_8functionIFvvEEEPS3_RS3_PS4_lLl128EEES9_, symObjAddr: 0x544C, symBinAddr: 0x100006BF4, symSize: 0x34 }
  - { offsetInCU: 0x24ECB, offset: 0x24ECB, size: 0x8, addend: 0x0, symName: __ZNSt3__1eqB7v160006ERKNS_16__deque_iteratorINS_8functionIFvvEEEPS3_RS3_PS4_lLl128EEES9_, symObjAddr: 0x56C8, symBinAddr: 0x100006E70, symSize: 0x30 }
  - { offsetInCU: 0x24F08, offset: 0x24F08, size: 0x8, addend: 0x0, symName: __ZNSt3__110destroy_atB7v160006INS_8functionIFvvEEELi0EEEvPT_, symObjAddr: 0x56F8, symBinAddr: 0x100006EA0, symSize: 0x24 }
  - { offsetInCU: 0x24F3F, offset: 0x24F3F, size: 0x8, addend: 0x0, symName: __ZNSt3__112__destroy_atB7v160006INS_8functionIFvvEEELi0EEEvPT_, symObjAddr: 0x571C, symBinAddr: 0x100006EC4, symSize: 0x24 }
  - { offsetInCU: 0x24F76, offset: 0x24F76, size: 0x8, addend: 0x0, symName: __ZNSt3__112__to_addressB7v160006IPNS_8functionIFvvEEEEEPT_S6_, symObjAddr: 0x5B60, symBinAddr: 0x100007308, symSize: 0x14 }
  - { offsetInCU: 0x24FAB, offset: 0x24FAB, size: 0x8, addend: 0x0, symName: __ZNSt3__110destroy_atB7v160006IPNS_8functionIFvvEEELi0EEEvPT_, symObjAddr: 0x5B74, symBinAddr: 0x10000731C, symSize: 0x24 }
  - { offsetInCU: 0x24FE2, offset: 0x24FE2, size: 0x8, addend: 0x0, symName: __ZNSt3__112__destroy_atB7v160006IPNS_8functionIFvvEEELi0EEEvPT_, symObjAddr: 0x5B98, symBinAddr: 0x100007340, symSize: 0x10 }
  - { offsetInCU: 0x25019, offset: 0x25019, size: 0x8, addend: 0x0, symName: __ZNSt3__118__debug_db_erase_cB7v160006INS_12__hash_tableINS_17__hash_value_typeINS_12basic_stringIcNS_11char_traitsIcEENS_9allocatorIcEEEEP8SSS_NodeIfEEENS_22__unordered_map_hasherIS8_SC_NS_4hashIS8_EENS_8equal_toIS8_EELb1EEENS_21__unordered_map_equalIS8_SC_SH_SF_Lb1EEENS6_ISC_EEEEEEvPT_, symObjAddr: 0x5DFC, symBinAddr: 0x1000075A4, symSize: 0x10 }
  - { offsetInCU: 0x2510A, offset: 0x2510A, size: 0x8, addend: 0x0, symName: __ZNSt3__110destroy_atB7v160006INS_4pairIKNS_12basic_stringIcNS_11char_traitsIcEENS_9allocatorIcEEEEP8SSS_NodeIfEEELi0EEEvPT_, symObjAddr: 0x5F50, symBinAddr: 0x1000076F8, symSize: 0x24 }
  - { offsetInCU: 0x25141, offset: 0x25141, size: 0x8, addend: 0x0, symName: __ZNSt3__112__destroy_atB7v160006INS_4pairIKNS_12basic_stringIcNS_11char_traitsIcEENS_9allocatorIcEEEEP8SSS_NodeIfEEELi0EEEvPT_, symObjAddr: 0x5F74, symBinAddr: 0x10000771C, symSize: 0x24 }
  - { offsetInCU: 0x25178, offset: 0x25178, size: 0x8, addend: 0x0, symName: __ZNSt3__17launderB7v160006INS_4pairIKNS_12basic_stringIcNS_11char_traitsIcEENS_9allocatorIcEEEEP8SSS_NodeIfEEEEEPT_SE_, symObjAddr: 0x6014, symBinAddr: 0x1000077BC, symSize: 0x24 }
  - { offsetInCU: 0x251AF, offset: 0x251AF, size: 0x8, addend: 0x0, symName: __ZNSt3__19__launderB7v160006INS_4pairIKNS_12basic_stringIcNS_11char_traitsIcEENS_9allocatorIcEEEEP8SSS_NodeIfEEEEEPT_SE_, symObjAddr: 0x6038, symBinAddr: 0x1000077E0, symSize: 0x14 }
  - { offsetInCU: 0x251E6, offset: 0x251E6, size: 0x8, addend: 0x0, symName: __ZNSt3__118__debug_db_erase_cB7v160006INS_6vectorIP8SSS_NodeIfENS_9allocatorIS4_EEEEEEvPT_, symObjAddr: 0x6510, symBinAddr: 0x100007CB8, symSize: 0x10 }
  - { offsetInCU: 0x25217, offset: 0x25217, size: 0x8, addend: 0x0, symName: __ZNSt3__112__to_addressB7v160006IP8SSS_NodeIfEEEPT_S5_, symObjAddr: 0x6654, symBinAddr: 0x100007DFC, symSize: 0x14 }
  - { offsetInCU: 0x2524C, offset: 0x2524C, size: 0x8, addend: 0x0, symName: __ZNSt3__110destroy_atB7v160006IP8SSS_NodeIfELi0EEEvPT_, symObjAddr: 0x671C, symBinAddr: 0x100007EC4, symSize: 0x24 }
  - { offsetInCU: 0x25283, offset: 0x25283, size: 0x8, addend: 0x0, symName: __ZNSt3__112__destroy_atB7v160006IP8SSS_NodeIfELi0EEEvPT_, symObjAddr: 0x6740, symBinAddr: 0x100007EE8, symSize: 0x10 }
  - { offsetInCU: 0x252BA, offset: 0x252BA, size: 0x8, addend: 0x0, symName: __ZNSt3__118__debug_db_erase_cB7v160006INS_6vectorIfNS_9allocatorIfEEEEEEvPT_, symObjAddr: 0x6A14, symBinAddr: 0x1000081BC, symSize: 0x10 }
  - { offsetInCU: 0x252EB, offset: 0x252EB, size: 0x8, addend: 0x0, symName: __ZNSt3__112__to_addressB7v160006IfEEPT_S2_, symObjAddr: 0x6B58, symBinAddr: 0x100008300, symSize: 0x14 }
  - { offsetInCU: 0x25320, offset: 0x25320, size: 0x8, addend: 0x0, symName: __ZNSt3__110destroy_atB7v160006IfLi0EEEvPT_, symObjAddr: 0x6C20, symBinAddr: 0x1000083C8, symSize: 0x24 }
  - { offsetInCU: 0x25357, offset: 0x25357, size: 0x8, addend: 0x0, symName: __ZNSt3__112__destroy_atB7v160006IfLi0EEEvPT_, symObjAddr: 0x6C44, symBinAddr: 0x1000083EC, symSize: 0x10 }
  - { offsetInCU: 0x2538E, offset: 0x2538E, size: 0x8, addend: 0x0, symName: __ZNSt3__14swapB7v160006IPNS_10__function6__baseIFvP9SSS_MixerIfEPfmEEEEENS_9enable_ifIXaasr21is_move_constructibleIT_EE5valuesr18is_move_assignableISB_EE5valueEvE4typeERSB_SE_, symObjAddr: 0x7234, symBinAddr: 0x1000089DC, symSize: 0x3C }
  - { offsetInCU: 0x2548F, offset: 0x2548F, size: 0x8, addend: 0x0, symName: __ZNSt3__116forward_as_tupleB7v160006IJPFvP9SSS_MixerIfEPfmEEEENS_5tupleIJDpOT_EEESA_, symObjAddr: 0x7AF8, symBinAddr: 0x1000092A0, symSize: 0x2C }
  - { offsetInCU: 0x254C8, offset: 0x254C8, size: 0x8, addend: 0x0, symName: __ZNSt3__116forward_as_tupleB7v160006IJNS_9allocatorIPFvP9SSS_MixerIfEPfmEEEEEENS_5tupleIJDpOT_EEESC_, symObjAddr: 0x7B24, symBinAddr: 0x1000092CC, symSize: 0x2C }
  - { offsetInCU: 0x25546, offset: 0x25546, size: 0x8, addend: 0x0, symName: __ZNSt3__13getB7v160006ILm0EJOPFvP9SSS_MixerIfEPfmEEEERNS_13tuple_elementIXT_ENS_5tupleIJDpT0_EEEE4typeERSC_, symObjAddr: 0x7E3C, symBinAddr: 0x1000095E4, symSize: 0x24 }
  - { offsetInCU: 0x25588, offset: 0x25588, size: 0x8, addend: 0x0, symName: __ZNSt3__13getB7v160006ILm0EJONS_9allocatorIPFvP9SSS_MixerIfEPfmEEEEEERNS_13tuple_elementIXT_ENS_5tupleIJDpT0_EEEE4typeERSE_, symObjAddr: 0x7E78, symBinAddr: 0x100009620, symSize: 0x24 }
  - { offsetInCU: 0x25AAF, offset: 0x25AAF, size: 0x8, addend: 0x0, symName: __ZNSt3__117__libcpp_allocateB7v160006Emm, symObjAddr: 0x8160, symBinAddr: 0x100009908, symSize: 0x60 }
  - { offsetInCU: 0x25CF6, offset: 0x25CF6, size: 0x8, addend: 0x0, symName: __ZNSt3__121__libcpp_operator_newB7v160006IJmSt11align_val_tEEEPvDpT_, symObjAddr: 0x81DC, symBinAddr: 0x100009984, symSize: 0x2C }
  - { offsetInCU: 0x25D43, offset: 0x25D43, size: 0x8, addend: 0x0, symName: __ZNSt3__121__libcpp_operator_newB7v160006IJmEEEPvDpT_, symObjAddr: 0x8208, symBinAddr: 0x1000099B0, symSize: 0x24 }
  - { offsetInCU: 0x25D7C, offset: 0x25D7C, size: 0x8, addend: 0x0, symName: __ZNSt3__116forward_as_tupleB7v160006IJRKPFvP9SSS_MixerIfEPfmEEEENS_5tupleIJDpOT_EEESC_, symObjAddr: 0x84FC, symBinAddr: 0x100009CA4, symSize: 0x2C }
  - { offsetInCU: 0x25DCA, offset: 0x25DCA, size: 0x8, addend: 0x0, symName: __ZNSt3__13getB7v160006ILm0EJRKPFvP9SSS_MixerIfEPfmEEEERNS_13tuple_elementIXT_ENS_5tupleIJDpT0_EEEE4typeERSD_, symObjAddr: 0x86EC, symBinAddr: 0x100009E94, symSize: 0x24 }
  - { offsetInCU: 0x25E0C, offset: 0x25E0C, size: 0x8, addend: 0x0, symName: __ZNSt3__116forward_as_tupleB7v160006IJRKNS_9allocatorIPFvP9SSS_MixerIfEPfmEEEEEENS_5tupleIJDpOT_EEESE_, symObjAddr: 0x8A48, symBinAddr: 0x10000A1F0, symSize: 0x2C }
  - { offsetInCU: 0x25E5A, offset: 0x25E5A, size: 0x8, addend: 0x0, symName: __ZNSt3__13getB7v160006ILm0EJRKNS_9allocatorIPFvP9SSS_MixerIfEPfmEEEEEERNS_13tuple_elementIXT_ENS_5tupleIJDpT0_EEEE4typeERSF_, symObjAddr: 0x8C2C, symBinAddr: 0x10000A3D4, symSize: 0x24 }
  - { offsetInCU: 0x25F0B, offset: 0x25F0B, size: 0x8, addend: 0x0, symName: __ZNSt3__18__invokeB7v160006IRPFvP9SSS_MixerIfEPfmEJS3_S4_mEEEDTclclsr3stdE7declvalIT_EEspclsr3stdE7declvalIT0_EEEEOS8_DpOS9_, symObjAddr: 0x8D18, symBinAddr: 0x10000A4C0, symSize: 0x4C }
  - { offsetInCU: 0x26030, offset: 0x26030, size: 0x8, addend: 0x0, symName: __ZNSt3__116forward_as_tupleB7v160006IJPFmP8SSS_NodeIfEmEEEENS_5tupleIJDpOT_EEES9_, symObjAddr: 0x96B4, symBinAddr: 0x10000AE5C, symSize: 0x2C }
  - { offsetInCU: 0x26069, offset: 0x26069, size: 0x8, addend: 0x0, symName: __ZNSt3__116forward_as_tupleB7v160006IJNS_9allocatorIPFmP8SSS_NodeIfEmEEEEEENS_5tupleIJDpOT_EEESB_, symObjAddr: 0x96E0, symBinAddr: 0x10000AE88, symSize: 0x2C }
  - { offsetInCU: 0x260CC, offset: 0x260CC, size: 0x8, addend: 0x0, symName: __ZNSt3__13getB7v160006ILm0EJOPFmP8SSS_NodeIfEmEEEERNS_13tuple_elementIXT_ENS_5tupleIJDpT0_EEEE4typeERSB_, symObjAddr: 0x99F8, symBinAddr: 0x10000B1A0, symSize: 0x24 }
  - { offsetInCU: 0x2610E, offset: 0x2610E, size: 0x8, addend: 0x0, symName: __ZNSt3__13getB7v160006ILm0EJONS_9allocatorIPFmP8SSS_NodeIfEmEEEEEERNS_13tuple_elementIXT_ENS_5tupleIJDpT0_EEEE4typeERSD_, symObjAddr: 0x9A34, symBinAddr: 0x10000B1DC, symSize: 0x24 }
  - { offsetInCU: 0x26635, offset: 0x26635, size: 0x8, addend: 0x0, symName: __ZNSt3__116forward_as_tupleB7v160006IJRKPFmP8SSS_NodeIfEmEEEENS_5tupleIJDpOT_EEESB_, symObjAddr: 0x9FB8, symBinAddr: 0x10000B760, symSize: 0x2C }
  - { offsetInCU: 0x26683, offset: 0x26683, size: 0x8, addend: 0x0, symName: __ZNSt3__13getB7v160006ILm0EJRKPFmP8SSS_NodeIfEmEEEERNS_13tuple_elementIXT_ENS_5tupleIJDpT0_EEEE4typeERSC_, symObjAddr: 0xA1A8, symBinAddr: 0x10000B950, symSize: 0x24 }
  - { offsetInCU: 0x266C5, offset: 0x266C5, size: 0x8, addend: 0x0, symName: __ZNSt3__116forward_as_tupleB7v160006IJRKNS_9allocatorIPFmP8SSS_NodeIfEmEEEEEENS_5tupleIJDpOT_EEESD_, symObjAddr: 0xA504, symBinAddr: 0x10000BCAC, symSize: 0x2C }
  - { offsetInCU: 0x26713, offset: 0x26713, size: 0x8, addend: 0x0, symName: __ZNSt3__13getB7v160006ILm0EJRKNS_9allocatorIPFmP8SSS_NodeIfEmEEEEEERNS_13tuple_elementIXT_ENS_5tupleIJDpT0_EEEE4typeERSE_, symObjAddr: 0xA6E8, symBinAddr: 0x10000BE90, symSize: 0x24 }
  - { offsetInCU: 0x267A4, offset: 0x267A4, size: 0x8, addend: 0x0, symName: __ZNSt3__18__invokeB7v160006IRPFmP8SSS_NodeIfEmEJS3_mEEEDTclclsr3stdE7declvalIT_EEspclsr3stdE7declvalIT0_EEEEOS7_DpOS8_, symObjAddr: 0xA7C4, symBinAddr: 0x10000BF6C, symSize: 0x40 }
  - { offsetInCU: 0x26809, offset: 0x26809, size: 0x8, addend: 0x0, symName: __ZNSt3__1eqB7v160006IcNS_11char_traitsIcEENS_9allocatorIcEEEEbRKNS_12basic_stringIT_T0_T1_EEPKS6_, symObjAddr: 0xACF0, symBinAddr: 0x10000C498, symSize: 0x5C }
  - { offsetInCU: 0x26861, offset: 0x26861, size: 0x8, addend: 0x0, symName: __ZNSt3__1eqB7v160006IcNS_11char_traitsIcEEEEbNS_17basic_string_viewIT_T0_EES6_, symObjAddr: 0xAF80, symBinAddr: 0x10000C728, symSize: 0xB0 }
  - { offsetInCU: 0x268B0, offset: 0x268B0, size: 0x8, addend: 0x0, symName: __ZNSt3__13minB7v160006ImEERKT_S3_S3_, symObjAddr: 0xB208, symBinAddr: 0x10000C9B0, symSize: 0x2C }
  - { offsetInCU: 0x268F3, offset: 0x268F3, size: 0x8, addend: 0x0, symName: __ZNSt3__13minB7v160006ImNS_6__lessImmEEEERKT_S5_S5_T0_, symObjAddr: 0xB2B8, symBinAddr: 0x10000CA60, symSize: 0x54 }
  - { offsetInCU: 0x26988, offset: 0x26988, size: 0x8, addend: 0x0, symName: __ZNSt3__118__constexpr_memcmpB7v160006IcEEiPKT_S3_m, symObjAddr: 0xB340, symBinAddr: 0x10000CAE8, symSize: 0x34 }
  - { offsetInCU: 0x269D9, offset: 0x269D9, size: 0x8, addend: 0x0, symName: __ZNSt3__112__to_addressB7v160006IKcEEPT_S3_, symObjAddr: 0xB42C, symBinAddr: 0x10000CBD4, symSize: 0x14 }
  - { offsetInCU: 0x26A41, offset: 0x26A41, size: 0x8, addend: 0x0, symName: __ZNSt3__128__char_traits_length_checkedB7v160006INS_11char_traitsIcEEEEmPKNT_9char_typeE, symObjAddr: 0xB5E8, symBinAddr: 0x10000CD90, symSize: 0x24 }
  - { offsetInCU: 0x26A76, offset: 0x26A76, size: 0x8, addend: 0x0, symName: __ZNSt3__14swapB7v160006IPNS_10__function6__baseIFmP8SSS_NodeIfEmEEEEENS_9enable_ifIXaasr21is_move_constructibleIT_EE5valuesr18is_move_assignableISA_EE5valueEvE4typeERSA_SD_, symObjAddr: 0xBED4, symBinAddr: 0x10000D67C, symSize: 0x3C }
  - { offsetInCU: 0x26AC7, offset: 0x26AC7, size: 0x8, addend: 0x0, symName: __ZNSt3__119__debug_db_insert_cB7v160006INS_6vectorIcNS_9allocatorIcEEEEEEvPT_, symObjAddr: 0xC714, symBinAddr: 0x10000DEBC, symSize: 0x10 }
  - { offsetInCU: 0x26C99, offset: 0x26C99, size: 0x8, addend: 0x0, symName: __ZNSt3__122__make_exception_guardB7v160006INS_6vectorIcNS_9allocatorIcEEE16__destroy_vectorEEENS_28__exception_guard_exceptionsIT_EES7_, symObjAddr: 0xCD9C, symBinAddr: 0x10000E544, symSize: 0x40 }
  - { offsetInCU: 0x26CCE, offset: 0x26CCE, size: 0x8, addend: 0x0, symName: __ZNSt3__1eqB7v160006IcNS_11char_traitsIcEEEEbRKNS_19istreambuf_iteratorIT_T0_EES8_, symObjAddr: 0xCE10, symBinAddr: 0x10000E5B8, symSize: 0x30 }
  - { offsetInCU: 0x26D41, offset: 0x26D41, size: 0x8, addend: 0x0, symName: __ZNSt3__112construct_atB7v160006IcJcEPcEEPT_S3_DpOT0_, symObjAddr: 0xD408, symBinAddr: 0x10000EBB0, symSize: 0x2C }
  - { offsetInCU: 0x26DB3, offset: 0x26DB3, size: 0x8, addend: 0x0, symName: __ZNSt3__13maxB7v160006ImEERKT_S3_S3_, symObjAddr: 0xD77C, symBinAddr: 0x10000EF24, symSize: 0x2C }
  - { offsetInCU: 0x26FE1, offset: 0x26FE1, size: 0x8, addend: 0x0, symName: __ZNSt3__120__throw_length_errorB7v160006EPKc, symObjAddr: 0xD84C, symBinAddr: 0x10000EFF4, symSize: 0x64 }
  - { offsetInCU: 0x27009, offset: 0x27009, size: 0x8, addend: 0x0, symName: __ZNSt3__13maxB7v160006ImNS_6__lessImmEEEERKT_S5_S5_T0_, symObjAddr: 0xD990, symBinAddr: 0x10000F138, symSize: 0x54 }
  - { offsetInCU: 0x27063, offset: 0x27063, size: 0x8, addend: 0x0, symName: __ZNSt3__119__allocate_at_leastB7v160006INS_9allocatorIcEEEENS_19__allocation_resultINS_16allocator_traitsIT_E7pointerEEERS5_m, symObjAddr: 0xDAF4, symBinAddr: 0x10000F29C, symSize: 0x40 }
  - { offsetInCU: 0x270A6, offset: 0x270A6, size: 0x8, addend: 0x0, symName: __ZNSt3__142__uninitialized_allocator_move_if_noexceptB7v160006INS_9allocatorIcEENS_16reverse_iteratorIPcEES5_cvEET1_RT_T0_S9_S6_, symObjAddr: 0xDD60, symBinAddr: 0x10000F508, symSize: 0x78 }
  - { offsetInCU: 0x27124, offset: 0x27124, size: 0x8, addend: 0x0, symName: __ZNSt3__14swapB7v160006IPcEENS_9enable_ifIXaasr21is_move_constructibleIT_EE5valuesr18is_move_assignableIS3_EE5valueEvE4typeERS3_S6_, symObjAddr: 0xDE24, symBinAddr: 0x10000F5CC, symSize: 0x3C }
  - { offsetInCU: 0x27175, offset: 0x27175, size: 0x8, addend: 0x0, symName: __ZNSt3__125__debug_db_invalidate_allB7v160006INS_6vectorIcNS_9allocatorIcEEEEEEvPT_, symObjAddr: 0xDF0C, symBinAddr: 0x10000F6B4, symSize: 0x10 }
  - { offsetInCU: 0x271A6, offset: 0x271A6, size: 0x8, addend: 0x0, symName: __ZNSt3__14moveB7v160006INS_16reverse_iteratorIPcEES3_EET0_T_S5_S4_, symObjAddr: 0xDF64, symBinAddr: 0x10000F70C, symSize: 0x78 }
  - { offsetInCU: 0x27200, offset: 0x27200, size: 0x8, addend: 0x0, symName: __ZNSt3__16__moveB7v160006INS_17_ClassicAlgPolicyENS_16reverse_iteratorIPcEES4_S4_EENS_4pairIT0_T2_EES6_T1_S7_, symObjAddr: 0xDFDC, symBinAddr: 0x10000F784, symSize: 0x64 }
  - { offsetInCU: 0x2726C, offset: 0x2726C, size: 0x8, addend: 0x0, symName: __ZNSt3__123__dispatch_copy_or_moveB7v160006INS_17_ClassicAlgPolicyENS_11__move_loopIS1_EENS_14__move_trivialENS_16reverse_iteratorIPcEES7_S7_EENS_4pairIT2_T4_EES9_T3_SA_, symObjAddr: 0xE040, symBinAddr: 0x10000F7E8, symSize: 0x64 }
  - { offsetInCU: 0x272EA, offset: 0x272EA, size: 0x8, addend: 0x0, symName: __ZNSt3__121__unwrap_and_dispatchB7v160006INS_10__overloadINS_11__move_loopINS_17_ClassicAlgPolicyEEENS_14__move_trivialEEENS_16reverse_iteratorIPcEES9_S9_Li0EEENS_4pairIT0_T2_EESB_T1_SC_, symObjAddr: 0xE0A4, symBinAddr: 0x10000F84C, symSize: 0x12C }
  - { offsetInCU: 0x2737A, offset: 0x2737A, size: 0x8, addend: 0x0, symName: __ZNSt3__114__unwrap_rangeB7v160006INS_16reverse_iteratorIPcEES3_EEDaT_T0_, symObjAddr: 0xE1D0, symBinAddr: 0x10000F978, symSize: 0x4C }
  - { offsetInCU: 0x27534, offset: 0x27534, size: 0x8, addend: 0x0, symName: __ZNSt3__113__unwrap_iterB7v160006INS_16reverse_iteratorIPcEENS_18__unwrap_iter_implIS3_Lb0EEELi0EEEDTclsrT0_8__unwrapclsr3stdE7declvalIT_EEEES7_, symObjAddr: 0xE2BC, symBinAddr: 0x10000FA64, symSize: 0x44 }
  - { offsetInCU: 0x27578, offset: 0x27578, size: 0x8, addend: 0x0, symName: __ZNSt3__19make_pairB7v160006INS_16reverse_iteratorIPcEES3_EENS_4pairINS_18__unwrap_ref_decayIT_E4typeENS5_IT0_E4typeEEEOS6_OS9_, symObjAddr: 0xE300, symBinAddr: 0x10000FAA8, symSize: 0x38 }
  - { offsetInCU: 0x275C7, offset: 0x275C7, size: 0x8, addend: 0x0, symName: __ZNSt3__114__rewrap_rangeB7v160006INS_16reverse_iteratorIPcEES3_S3_EET0_S4_T1_, symObjAddr: 0xE338, symBinAddr: 0x10000FAE0, symSize: 0x5C }
  - { offsetInCU: 0x2761C, offset: 0x2761C, size: 0x8, addend: 0x0, symName: __ZNSt3__113__rewrap_iterB7v160006INS_16reverse_iteratorIPcEES3_NS_18__unwrap_iter_implIS3_Lb0EEEEET_S6_T0_, symObjAddr: 0xE394, symBinAddr: 0x10000FB3C, symSize: 0x74 }
  - { offsetInCU: 0x276C1, offset: 0x276C1, size: 0x8, addend: 0x0, symName: __ZNSt3__1neB7v160006IPcS1_EEbRKNS_16reverse_iteratorIT_EERKNS2_IT0_EE, symObjAddr: 0xE4FC, symBinAddr: 0x10000FCA4, symSize: 0x48 }
  - { offsetInCU: 0x277F2, offset: 0x277F2, size: 0x8, addend: 0x0, symName: __ZNSt3__110destroy_atB7v160006IcLi0EEEvPT_, symObjAddr: 0xE880, symBinAddr: 0x100010028, symSize: 0x24 }
  - { offsetInCU: 0x27829, offset: 0x27829, size: 0x8, addend: 0x0, symName: __ZNSt3__112__destroy_atB7v160006IcLi0EEEvPT_, symObjAddr: 0xE8A4, symBinAddr: 0x10001004C, symSize: 0x10 }
  - { offsetInCU: 0x27860, offset: 0x27860, size: 0x8, addend: 0x0, symName: __ZNSt3__118__debug_db_erase_cB7v160006INS_6vectorIcNS_9allocatorIcEEEEEEvPT_, symObjAddr: 0xEAA4, symBinAddr: 0x10001024C, symSize: 0x10 }
  - { offsetInCU: 0x27891, offset: 0x27891, size: 0x8, addend: 0x0, symName: __ZNSt3__18distanceB7v160006IPcEENS_15iterator_traitsIT_E15difference_typeES3_S3_, symObjAddr: 0xED24, symBinAddr: 0x1000104CC, symSize: 0x2C }
  - { offsetInCU: 0x278D4, offset: 0x278D4, size: 0x8, addend: 0x0, symName: __ZNSt3__14copyB7v160006IPcS1_EET0_T_S3_S2_, symObjAddr: 0xEDA0, symBinAddr: 0x100010548, symSize: 0x40 }
  - { offsetInCU: 0x2792E, offset: 0x2792E, size: 0x8, addend: 0x0, symName: __ZNSt3__110__distanceB7v160006IPcEENS_15iterator_traitsIT_E15difference_typeES3_S3_NS_26random_access_iterator_tagE, symObjAddr: 0xF004, symBinAddr: 0x1000107AC, symSize: 0x20 }
  - { offsetInCU: 0x2797B, offset: 0x2797B, size: 0x8, addend: 0x0, symName: __ZNSt3__121__convert_to_integralB7v160006Em, symObjAddr: 0xF024, symBinAddr: 0x1000107CC, symSize: 0x14 }
  - { offsetInCU: 0x279A7, offset: 0x279A7, size: 0x8, addend: 0x0, symName: __ZNSt3__19__advanceB7v160006IPcEEvRT_NS_15iterator_traitsIS2_E15difference_typeENS_26random_access_iterator_tagE, symObjAddr: 0xF038, symBinAddr: 0x1000107E0, symSize: 0x28 }
  - { offsetInCU: 0x279F0, offset: 0x279F0, size: 0x8, addend: 0x0, symName: __ZNSt3__16__copyB7v160006INS_17_ClassicAlgPolicyEPcS2_S2_EENS_4pairIT0_T2_EES4_T1_S5_, symObjAddr: 0xF060, symBinAddr: 0x100010808, symSize: 0x44 }
  - { offsetInCU: 0x27A5C, offset: 0x27A5C, size: 0x8, addend: 0x0, symName: __ZNSt3__123__dispatch_copy_or_moveB7v160006INS_17_ClassicAlgPolicyENS_11__copy_loopIS1_EENS_14__copy_trivialEPcS5_S5_EENS_4pairIT2_T4_EES7_T3_S8_, symObjAddr: 0xF0A4, symBinAddr: 0x10001084C, symSize: 0x44 }
  - { offsetInCU: 0x27ADA, offset: 0x27ADA, size: 0x8, addend: 0x0, symName: __ZNSt3__121__unwrap_and_dispatchB7v160006INS_10__overloadINS_11__copy_loopINS_17_ClassicAlgPolicyEEENS_14__copy_trivialEEEPcS7_S7_Li0EEENS_4pairIT0_T2_EES9_T1_SA_, symObjAddr: 0xF0E8, symBinAddr: 0x100010890, symSize: 0xB4 }
  - { offsetInCU: 0x27B68, offset: 0x27B68, size: 0x8, addend: 0x0, symName: __ZNSt3__114__unwrap_rangeB7v160006IPcS1_EEDaT_T0_, symObjAddr: 0xF19C, symBinAddr: 0x100010944, symSize: 0x3C }
  - { offsetInCU: 0x27CFD, offset: 0x27CFD, size: 0x8, addend: 0x0, symName: __ZNSt3__113__unwrap_iterB7v160006IPcNS_18__unwrap_iter_implIS1_Lb1EEELi0EEEDTclsrT0_8__unwrapclsr3stdE7declvalIT_EEEES5_, symObjAddr: 0xF220, symBinAddr: 0x1000109C8, symSize: 0x24 }
  - { offsetInCU: 0x27D41, offset: 0x27D41, size: 0x8, addend: 0x0, symName: __ZNSt3__19make_pairB7v160006IPcS1_EENS_4pairINS_18__unwrap_ref_decayIT_E4typeENS3_IT0_E4typeEEEOS4_OS7_, symObjAddr: 0xF244, symBinAddr: 0x1000109EC, symSize: 0x38 }
  - { offsetInCU: 0x27D90, offset: 0x27D90, size: 0x8, addend: 0x0, symName: __ZNSt3__114__rewrap_rangeB7v160006IPcS1_S1_EET0_S2_T1_, symObjAddr: 0xF27C, symBinAddr: 0x100010A24, symSize: 0x2C }
  - { offsetInCU: 0x27DE5, offset: 0x27DE5, size: 0x8, addend: 0x0, symName: __ZNSt3__113__rewrap_iterB7v160006IPcS1_NS_18__unwrap_iter_implIS1_Lb1EEEEET_S4_T0_, symObjAddr: 0xF2A8, symBinAddr: 0x100010A50, symSize: 0x3C }
  - { offsetInCU: 0x27E8A, offset: 0x27E8A, size: 0x8, addend: 0x0, symName: __ZNSt3__119__copy_trivial_implB7v160006IccEENS_4pairIPT_PT0_EES3_S3_S5_, symObjAddr: 0xF3AC, symBinAddr: 0x100010B54, symSize: 0x7C }
  - { offsetInCU: 0x27EF2, offset: 0x27EF2, size: 0x8, addend: 0x0, symName: __ZNSt3__19make_pairB7v160006IRPcS1_EENS_4pairINS_18__unwrap_ref_decayIT_E4typeENS4_IT0_E4typeEEEOS5_OS8_, symObjAddr: 0xF428, symBinAddr: 0x100010BD0, symSize: 0x38 }
  - { offsetInCU: 0x27F94, offset: 0x27F94, size: 0x8, addend: 0x0, symName: __ZNSt3__130__uninitialized_allocator_copyB7v160006INS_9allocatorIcEEPcS3_S3_EET2_RT_T0_T1_S4_, symObjAddr: 0xF568, symBinAddr: 0x100010D10, symSize: 0xF4 }
  - { offsetInCU: 0x28032, offset: 0x28032, size: 0x8, addend: 0x0, symName: __ZNSt3__122__make_exception_guardB7v160006INS_29_AllocatorDestroyRangeReverseINS_9allocatorIcEEPcEEEENS_28__exception_guard_exceptionsIT_EES7_, symObjAddr: 0xF65C, symBinAddr: 0x100010E04, symSize: 0x4C }
  - { offsetInCU: 0x28068, offset: 0x28068, size: 0x8, addend: 0x0, symName: __ZNSt3__112construct_atB7v160006IcJRcEPcEEPT_S4_DpOT0_, symObjAddr: 0xF800, symBinAddr: 0x100010FA8, symSize: 0x2C }
  - { offsetInCU: 0x280DB, offset: 0x280DB, size: 0x8, addend: 0x0, symName: __ZNSt3__119__allocator_destroyB7v160006INS_9allocatorIcEENS_16reverse_iteratorIPcEES5_EEvRT_T0_T1_, symObjAddr: 0xF8E4, symBinAddr: 0x10001108C, symSize: 0x70 }
  - { offsetInCU: 0x2813E, offset: 0x2813E, size: 0x8, addend: 0x0, symName: __ZNSt3__112__to_addressB7v160006INS_16reverse_iteratorIPcEEvEENS_5decayIDTclsr19__to_address_helperIT_EE6__callclsr3stdE7declvalIRKS5_EEEEE4typeES7_, symObjAddr: 0xF954, symBinAddr: 0x1000110FC, symSize: 0x24 }
  - { offsetInCU: 0x2819D, offset: 0x2819D, size: 0x8, addend: 0x0, symName: __ZNSt3__14prevB7v160006IPcEENS_9enable_ifIXsr25__is_cpp17_input_iteratorIT_EE5valueES3_E4typeES3_NS_15iterator_traitsIS3_E15difference_typeE, symObjAddr: 0xF9DC, symBinAddr: 0x100011184, symSize: 0x50 }
  - { offsetInCU: 0x281E0, offset: 0x281E0, size: 0x8, addend: 0x0, symName: __ZNSt3__121__convert_to_integralB7v160006El, symObjAddr: 0xFA7C, symBinAddr: 0x100011224, symSize: 0x14 }
  - { offsetInCU: 0x2820C, offset: 0x2820C, size: 0x8, addend: 0x0, symName: __ZNSt3__1lsB7v160006IcNS_11char_traitsIcEENS_9allocatorIcEEEERNS_13basic_ostreamIT_T0_EES9_RKNS_12basic_stringIS6_S7_T1_EE, symObjAddr: 0xFE0C, symBinAddr: 0x1000115B4, symSize: 0x4C }
  - { offsetInCU: 0x28264, offset: 0x28264, size: 0x8, addend: 0x0, symName: __ZNSt3__14swapB7v160006IPNS_13basic_ostreamIcNS_11char_traitsIcEEEEEENS_9enable_ifIXaasr21is_move_constructibleIT_EE5valuesr18is_move_assignableIS7_EE5valueEvE4typeERS7_SA_, symObjAddr: 0xFF64, symBinAddr: 0x10001170C, symSize: 0x3C }
  - { offsetInCU: 0x282B5, offset: 0x282B5, size: 0x8, addend: 0x0, symName: __ZNSt3__14swapB7v160006IiEENS_9enable_ifIXaasr21is_move_constructibleIT_EE5valuesr18is_move_assignableIS2_EE5valueEvE4typeERS2_S5_, symObjAddr: 0xFFA0, symBinAddr: 0x100011748, symSize: 0x3C }
  - { offsetInCU: 0x28306, offset: 0x28306, size: 0x8, addend: 0x0, symName: __ZNSt3__14bindB7v160006IRNS_8functionIFmP8SSS_NodeIfEmEEEJRS4_RmEEENS_6__bindIT_JDpT0_EEEOSB_DpOSC_, symObjAddr: 0x10438, symBinAddr: 0x100011BE0, symSize: 0x48 }
  - { offsetInCU: 0x287C4, offset: 0x287C4, size: 0x8, addend: 0x0, symName: __ZNSt3__14swapB7v160006IPPNS_8functionIFvvEEEEENS_9enable_ifIXaasr21is_move_constructibleIT_EE5valuesr18is_move_assignableIS7_EE5valueEvE4typeERS7_SA_, symObjAddr: 0x116CC, symBinAddr: 0x100012E74, symSize: 0x3C }
  - { offsetInCU: 0x28815, offset: 0x28815, size: 0x8, addend: 0x0, symName: __ZNSt3__14moveB7v160006IPPNS_8functionIFvvEEES5_EET0_T_S7_S6_, symObjAddr: 0x117B0, symBinAddr: 0x100012F58, symSize: 0x40 }
  - { offsetInCU: 0x2886F, offset: 0x2886F, size: 0x8, addend: 0x0, symName: __ZNSt3__16__moveB7v160006INS_17_ClassicAlgPolicyEPPNS_8functionIFvvEEES6_S6_EENS_4pairIT0_T2_EES8_T1_S9_, symObjAddr: 0x11950, symBinAddr: 0x1000130F8, symSize: 0x44 }
  - { offsetInCU: 0x288DB, offset: 0x288DB, size: 0x8, addend: 0x0, symName: __ZNSt3__123__dispatch_copy_or_moveB7v160006INS_17_ClassicAlgPolicyENS_11__move_loopIS1_EENS_14__move_trivialEPPNS_8functionIFvvEEES9_S9_EENS_4pairIT2_T4_EESB_T3_SC_, symObjAddr: 0x11994, symBinAddr: 0x10001313C, symSize: 0x44 }
  - { offsetInCU: 0x28959, offset: 0x28959, size: 0x8, addend: 0x0, symName: __ZNSt3__121__unwrap_and_dispatchB7v160006INS_10__overloadINS_11__move_loopINS_17_ClassicAlgPolicyEEENS_14__move_trivialEEEPPNS_8functionIFvvEEESB_SB_Li0EEENS_4pairIT0_T2_EESD_T1_SE_, symObjAddr: 0x119D8, symBinAddr: 0x100013180, symSize: 0xB4 }
  - { offsetInCU: 0x289E7, offset: 0x289E7, size: 0x8, addend: 0x0, symName: __ZNSt3__114__unwrap_rangeB7v160006IPPNS_8functionIFvvEEES5_EEDaT_T0_, symObjAddr: 0x11A8C, symBinAddr: 0x100013234, symSize: 0x3C }
  - { offsetInCU: 0x28BE7, offset: 0x28BE7, size: 0x8, addend: 0x0, symName: __ZNSt3__113__unwrap_iterB7v160006IPPNS_8functionIFvvEEENS_18__unwrap_iter_implIS5_Lb1EEELi0EEEDTclsrT0_8__unwrapclsr3stdE7declvalIT_EEEES9_, symObjAddr: 0x11B10, symBinAddr: 0x1000132B8, symSize: 0x24 }
  - { offsetInCU: 0x28C2B, offset: 0x28C2B, size: 0x8, addend: 0x0, symName: __ZNSt3__19make_pairB7v160006IPPNS_8functionIFvvEEES5_EENS_4pairINS_18__unwrap_ref_decayIT_E4typeENS7_IT0_E4typeEEEOS8_OSB_, symObjAddr: 0x11B34, symBinAddr: 0x1000132DC, symSize: 0x38 }
  - { offsetInCU: 0x28C7A, offset: 0x28C7A, size: 0x8, addend: 0x0, symName: __ZNSt3__114__rewrap_rangeB7v160006IPPNS_8functionIFvvEEES5_S5_EET0_S6_T1_, symObjAddr: 0x11B6C, symBinAddr: 0x100013314, symSize: 0x2C }
  - { offsetInCU: 0x28CCF, offset: 0x28CCF, size: 0x8, addend: 0x0, symName: __ZNSt3__113__rewrap_iterB7v160006IPPNS_8functionIFvvEEES5_NS_18__unwrap_iter_implIS5_Lb1EEEEET_S8_T0_, symObjAddr: 0x11B98, symBinAddr: 0x100013340, symSize: 0x3C }
  - { offsetInCU: 0x28D74, offset: 0x28D74, size: 0x8, addend: 0x0, symName: __ZNSt3__119__copy_trivial_implB7v160006IPNS_8functionIFvvEEES4_EENS_4pairIPT_PT0_EES7_S7_S9_, symObjAddr: 0x11C9C, symBinAddr: 0x100013444, symSize: 0x84 }
  - { offsetInCU: 0x28DDC, offset: 0x28DDC, size: 0x8, addend: 0x0, symName: __ZNSt3__19make_pairB7v160006IRPPNS_8functionIFvvEEES5_EENS_4pairINS_18__unwrap_ref_decayIT_E4typeENS8_IT0_E4typeEEEOS9_OSC_, symObjAddr: 0x11D20, symBinAddr: 0x1000134C8, symSize: 0x38 }
  - { offsetInCU: 0x28E7E, offset: 0x28E7E, size: 0x8, addend: 0x0, symName: __ZNSt3__18distanceB7v160006INS_13move_iteratorIPPNS_8functionIFvvEEEEEEENS_15iterator_traitsIT_E15difference_typeES9_S9_, symObjAddr: 0x11E68, symBinAddr: 0x100013610, symSize: 0x3C }
  - { offsetInCU: 0x28EC1, offset: 0x28EC1, size: 0x8, addend: 0x0, symName: __ZNSt3__110__distanceB7v160006INS_13move_iteratorIPPNS_8functionIFvvEEEEEEENS_15iterator_traitsIT_E15difference_typeES9_S9_NS_26random_access_iterator_tagE, symObjAddr: 0x11FB0, symBinAddr: 0x100013758, symSize: 0x30 }
  - { offsetInCU: 0x28F0E, offset: 0x28F0E, size: 0x8, addend: 0x0, symName: __ZNSt3__1miB7v160006IPPNS_8functionIFvvEEES5_EEDTmicldtfp_4baseEcldtfp0_4baseEERKNS_13move_iteratorIT_EERKNS7_IT0_EE, symObjAddr: 0x11FE0, symBinAddr: 0x100013788, symSize: 0x4C }
  - { offsetInCU: 0x28F84, offset: 0x28F84, size: 0x8, addend: 0x0, symName: __ZNSt3__112construct_atB7v160006IPNS_8functionIFvvEEEJS4_EPS4_EEPT_S7_DpOT0_, symObjAddr: 0x12084, symBinAddr: 0x10001382C, symSize: 0x2C }
  - { offsetInCU: 0x28FF6, offset: 0x28FF6, size: 0x8, addend: 0x0, symName: __ZNSt3__112construct_atB7v160006IPNS_8functionIFvvEEEJRKS4_EPS4_EEPT_S9_DpOT0_, symObjAddr: 0x1214C, symBinAddr: 0x1000138F4, symSize: 0x2C }
  - { offsetInCU: 0x29068, offset: 0x29068, size: 0x8, addend: 0x0, symName: __ZNSt3__113move_backwardB7v160006IPPNS_8functionIFvvEEES5_EET0_T_S7_S6_, symObjAddr: 0x121F8, symBinAddr: 0x1000139A0, symSize: 0x40 }
  - { offsetInCU: 0x290C2, offset: 0x290C2, size: 0x8, addend: 0x0, symName: __ZNSt3__115__move_backwardB7v160006INS_17_ClassicAlgPolicyEPPNS_8functionIFvvEEES6_S6_EENS_4pairIT0_T2_EES8_T1_S9_, symObjAddr: 0x12238, symBinAddr: 0x1000139E0, symSize: 0x44 }
  - { offsetInCU: 0x2912E, offset: 0x2912E, size: 0x8, addend: 0x0, symName: __ZNSt3__123__dispatch_copy_or_moveB7v160006INS_17_ClassicAlgPolicyENS_20__move_backward_loopIS1_EENS_23__move_backward_trivialEPPNS_8functionIFvvEEES9_S9_EENS_4pairIT2_T4_EESB_T3_SC_, symObjAddr: 0x1227C, symBinAddr: 0x100013A24, symSize: 0x44 }
  - { offsetInCU: 0x291AC, offset: 0x291AC, size: 0x8, addend: 0x0, symName: __ZNSt3__121__unwrap_and_dispatchB7v160006INS_10__overloadINS_20__move_backward_loopINS_17_ClassicAlgPolicyEEENS_23__move_backward_trivialEEEPPNS_8functionIFvvEEESB_SB_Li0EEENS_4pairIT0_T2_EESD_T1_SE_, symObjAddr: 0x122C0, symBinAddr: 0x100013A68, symSize: 0xB4 }
  - { offsetInCU: 0x292BC, offset: 0x292BC, size: 0x8, addend: 0x0, symName: __ZNSt3__128__copy_backward_trivial_implB7v160006IPNS_8functionIFvvEEES4_EENS_4pairIPT_PT0_EES7_S7_S9_, symObjAddr: 0x123BC, symBinAddr: 0x100013B64, symSize: 0x94 }
  - { offsetInCU: 0x29324, offset: 0x29324, size: 0x8, addend: 0x0, symName: __ZNSt3__19make_pairB7v160006IRPPNS_8functionIFvvEEES6_EENS_4pairINS_18__unwrap_ref_decayIT_E4typeENS8_IT0_E4typeEEEOS9_OSC_, symObjAddr: 0x12450, symBinAddr: 0x100013BF8, symSize: 0x38 }
  - { offsetInCU: 0x29373, offset: 0x29373, size: 0x8, addend: 0x0, symName: __ZNSt3__119__allocate_at_leastB7v160006INS_9allocatorIPNS_8functionIFvvEEEEEEENS_19__allocation_resultINS_16allocator_traitsIT_E7pointerEEERS9_m, symObjAddr: 0x12608, symBinAddr: 0x100013DB0, symSize: 0x40 }
  - { offsetInCU: 0x293DD, offset: 0x293DD, size: 0x8, addend: 0x0, symName: __ZNSt3__112construct_atB7v160006INS_8functionIFvvEEEJS3_EPS3_EEPT_S6_DpOT0_, symObjAddr: 0x12C40, symBinAddr: 0x1000143E8, symSize: 0x3C }
  - { offsetInCU: 0x299FE, offset: 0x299FE, size: 0x8, addend: 0x0, symName: __ZNSt3__116forward_as_tupleB7v160006IJNS_6__bindIRNS_8functionIFmP8SSS_NodeIfEmEEEJRS5_RmEEEEEENS_5tupleIJDpOT_EEESF_, symObjAddr: 0x13A14, symBinAddr: 0x1000151BC, symSize: 0x2C }
  - { offsetInCU: 0x29A37, offset: 0x29A37, size: 0x8, addend: 0x0, symName: __ZNSt3__116forward_as_tupleB7v160006IJNS_9allocatorINS_6__bindIRNS_8functionIFmP8SSS_NodeIfEmEEEJRS6_RmEEEEEEEENS_5tupleIJDpOT_EEESH_, symObjAddr: 0x13A40, symBinAddr: 0x1000151E8, symSize: 0x2C }
  - { offsetInCU: 0x29A9A, offset: 0x29A9A, size: 0x8, addend: 0x0, symName: __ZNSt3__13getB7v160006ILm0EJONS_6__bindIRNS_8functionIFmP8SSS_NodeIfEmEEEJRS5_RmEEEEEERNS_13tuple_elementIXT_ENS_5tupleIJDpT0_EEEE4typeERSH_, symObjAddr: 0x13DAC, symBinAddr: 0x100015554, symSize: 0x24 }
  - { offsetInCU: 0x29ADC, offset: 0x29ADC, size: 0x8, addend: 0x0, symName: __ZNSt3__13getB7v160006ILm0EJONS_9allocatorINS_6__bindIRNS_8functionIFmP8SSS_NodeIfEmEEEJRS6_RmEEEEEEEERNS_13tuple_elementIXT_ENS_5tupleIJDpT0_EEEE4typeERSJ_, symObjAddr: 0x13FC4, symBinAddr: 0x10001576C, symSize: 0x24 }
  - { offsetInCU: 0x29CAA, offset: 0x29CAA, size: 0x8, addend: 0x0, symName: __ZNSt3__116forward_as_tupleB7v160006IJRKNS_6__bindIRNS_8functionIFmP8SSS_NodeIfEmEEEJRS5_RmEEEEEENS_5tupleIJDpOT_EEESH_, symObjAddr: 0x1448C, symBinAddr: 0x100015C34, symSize: 0x2C }
  - { offsetInCU: 0x29CF8, offset: 0x29CF8, size: 0x8, addend: 0x0, symName: __ZNSt3__13getB7v160006ILm0EJRKNS_6__bindIRNS_8functionIFmP8SSS_NodeIfEmEEEJRS5_RmEEEEEERNS_13tuple_elementIXT_ENS_5tupleIJDpT0_EEEE4typeERSI_, symObjAddr: 0x1467C, symBinAddr: 0x100015E24, symSize: 0x24 }
  - { offsetInCU: 0x29D3A, offset: 0x29D3A, size: 0x8, addend: 0x0, symName: __ZNSt3__116forward_as_tupleB7v160006IJRKNS_9allocatorINS_6__bindIRNS_8functionIFmP8SSS_NodeIfEmEEEJRS6_RmEEEEEEEENS_5tupleIJDpOT_EEESJ_, symObjAddr: 0x14A54, symBinAddr: 0x1000161FC, symSize: 0x2C }
  - { offsetInCU: 0x29D88, offset: 0x29D88, size: 0x8, addend: 0x0, symName: __ZNSt3__13getB7v160006ILm0EJRKNS_9allocatorINS_6__bindIRNS_8functionIFmP8SSS_NodeIfEmEEEJRS6_RmEEEEEEEERNS_13tuple_elementIXT_ENS_5tupleIJDpT0_EEEE4typeERSK_, symObjAddr: 0x14C60, symBinAddr: 0x100016408, symSize: 0x24 }
  - { offsetInCU: 0x29DCA, offset: 0x29DCA, size: 0x8, addend: 0x0, symName: __ZNSt3__18__invokeB7v160006IRNS_6__bindIRNS_8functionIFmP8SSS_NodeIfEmEEEJRS5_RmEEEJEEEDTclclsr3stdE7declvalIT_EEspclsr3stdE7declvalIT0_EEEEOSD_DpOSE_, symObjAddr: 0x14D30, symBinAddr: 0x1000164D8, symSize: 0x24 }
  - { offsetInCU: 0x29E97, offset: 0x29E97, size: 0x8, addend: 0x0, symName: __ZNSt3__115__apply_functorB7v160006INS_8functionIFmP8SSS_NodeIfEmEEENS_5tupleIJS4_mEEEJLm0ELm1EENS7_IJEEEEENS_13__bind_returnIT_T0_T2_Xsr22__is_valid_bind_returnISB_SC_SD_EE5valueEE4typeERSB_RSC_NS_15__tuple_indicesIJXspT1_EEEEOSD_, symObjAddr: 0x14D88, symBinAddr: 0x100016530, symSize: 0x60 }
  - { offsetInCU: 0x29F1C, offset: 0x29F1C, size: 0x8, addend: 0x0, symName: __ZNSt3__18__invokeB7v160006IRNS_8functionIFmP8SSS_NodeIfEmEEEJRS4_RmEEEDTclclsr3stdE7declvalIT_EEspclsr3stdE7declvalIT0_EEEEOSA_DpOSB_, symObjAddr: 0x14DE8, symBinAddr: 0x100016590, symSize: 0x3C }
  - { offsetInCU: 0x29F81, offset: 0x29F81, size: 0x8, addend: 0x0, symName: __ZNSt3__14__muB7v160006IP8SSS_NodeIfENS_5tupleIJEEEEENS_9enable_ifIXaaaantsr18is_bind_expressionIT_EE5valueeqsr14is_placeholderIS7_EE5valueLi0Entsr22__is_reference_wrapperIS7_EE5valueERS7_E4typeES8_RT0_, symObjAddr: 0x14E24, symBinAddr: 0x1000165CC, symSize: 0x18 }
  - { offsetInCU: 0x29FC9, offset: 0x29FC9, size: 0x8, addend: 0x0, symName: __ZNSt3__13getB7v160006ILm0EJP8SSS_NodeIfEmEEERNS_13tuple_elementIXT_ENS_5tupleIJDpT0_EEEE4typeERS8_, symObjAddr: 0x14E3C, symBinAddr: 0x1000165E4, symSize: 0x24 }
  - { offsetInCU: 0x2A011, offset: 0x2A011, size: 0x8, addend: 0x0, symName: __ZNSt3__14__muB7v160006ImNS_5tupleIJEEEEENS_9enable_ifIXaaaantsr18is_bind_expressionIT_EE5valueeqsr14is_placeholderIS4_EE5valueLi0Entsr22__is_reference_wrapperIS4_EE5valueERS4_E4typeES5_RT0_, symObjAddr: 0x14E60, symBinAddr: 0x100016608, symSize: 0x18 }
  - { offsetInCU: 0x2A059, offset: 0x2A059, size: 0x8, addend: 0x0, symName: __ZNSt3__13getB7v160006ILm1EJP8SSS_NodeIfEmEEERNS_13tuple_elementIXT_ENS_5tupleIJDpT0_EEEE4typeERS8_, symObjAddr: 0x14E78, symBinAddr: 0x100016620, symSize: 0x28 }
  - { offsetInCU: 0x2A0A2, offset: 0x2A0A2, size: 0x8, addend: 0x0, symName: __ZNSt3__125__throw_bad_function_callB7v160006Ev, symObjAddr: 0x14F3C, symBinAddr: 0x1000166E4, symSize: 0x38 }
  - { offsetInCU: 0x2A119, offset: 0x2A119, size: 0x8, addend: 0x0, symName: __ZNSt3__112construct_atB7v160006IP8SSS_NodeIfEJRKS3_EPS3_EEPT_S8_DpOT0_, symObjAddr: 0x15494, symBinAddr: 0x100016C3C, symSize: 0x2C }
  - { offsetInCU: 0x2A18B, offset: 0x2A18B, size: 0x8, addend: 0x0, symName: __ZNSt3__119__allocate_at_leastB7v160006INS_9allocatorIP8SSS_NodeIfEEEEENS_19__allocation_resultINS_16allocator_traitsIT_E7pointerEEERS8_m, symObjAddr: 0x15930, symBinAddr: 0x1000170D8, symSize: 0x40 }
  - { offsetInCU: 0x2A1CE, offset: 0x2A1CE, size: 0x8, addend: 0x0, symName: __ZNSt3__142__uninitialized_allocator_move_if_noexceptB7v160006INS_9allocatorIP8SSS_NodeIfEEENS_16reverse_iteratorIPS4_EES8_S4_vEET1_RT_T0_SC_S9_, symObjAddr: 0x15AE4, symBinAddr: 0x10001728C, symSize: 0x78 }
  - { offsetInCU: 0x2A24C, offset: 0x2A24C, size: 0x8, addend: 0x0, symName: __ZNSt3__14swapB7v160006IPP8SSS_NodeIfEEENS_9enable_ifIXaasr21is_move_constructibleIT_EE5valuesr18is_move_assignableIS6_EE5valueEvE4typeERS6_S9_, symObjAddr: 0x15BA8, symBinAddr: 0x100017350, symSize: 0x3C }
  - { offsetInCU: 0x2A29D, offset: 0x2A29D, size: 0x8, addend: 0x0, symName: __ZNSt3__125__debug_db_invalidate_allB7v160006INS_6vectorIP8SSS_NodeIfENS_9allocatorIS4_EEEEEEvPT_, symObjAddr: 0x15C90, symBinAddr: 0x100017438, symSize: 0x10 }
  - { offsetInCU: 0x2A2CE, offset: 0x2A2CE, size: 0x8, addend: 0x0, symName: __ZNSt3__14moveB7v160006INS_16reverse_iteratorIPP8SSS_NodeIfEEES6_EET0_T_S8_S7_, symObjAddr: 0x15CA0, symBinAddr: 0x100017448, symSize: 0x78 }
  - { offsetInCU: 0x2A328, offset: 0x2A328, size: 0x8, addend: 0x0, symName: __ZNSt3__16__moveB7v160006INS_17_ClassicAlgPolicyENS_16reverse_iteratorIPP8SSS_NodeIfEEES7_S7_EENS_4pairIT0_T2_EES9_T1_SA_, symObjAddr: 0x15D18, symBinAddr: 0x1000174C0, symSize: 0x64 }
  - { offsetInCU: 0x2A394, offset: 0x2A394, size: 0x8, addend: 0x0, symName: __ZNSt3__123__dispatch_copy_or_moveB7v160006INS_17_ClassicAlgPolicyENS_11__move_loopIS1_EENS_14__move_trivialENS_16reverse_iteratorIPP8SSS_NodeIfEEESA_SA_EENS_4pairIT2_T4_EESC_T3_SD_, symObjAddr: 0x15D7C, symBinAddr: 0x100017524, symSize: 0x64 }
  - { offsetInCU: 0x2A412, offset: 0x2A412, size: 0x8, addend: 0x0, symName: __ZNSt3__121__unwrap_and_dispatchB7v160006INS_10__overloadINS_11__move_loopINS_17_ClassicAlgPolicyEEENS_14__move_trivialEEENS_16reverse_iteratorIPP8SSS_NodeIfEEESC_SC_Li0EEENS_4pairIT0_T2_EESE_T1_SF_, symObjAddr: 0x15DE0, symBinAddr: 0x100017588, symSize: 0x12C }
  - { offsetInCU: 0x2A4A2, offset: 0x2A4A2, size: 0x8, addend: 0x0, symName: __ZNSt3__114__unwrap_rangeB7v160006INS_16reverse_iteratorIPP8SSS_NodeIfEEES6_EEDaT_T0_, symObjAddr: 0x15F0C, symBinAddr: 0x1000176B4, symSize: 0x4C }
  - { offsetInCU: 0x2A5C2, offset: 0x2A5C2, size: 0x8, addend: 0x0, symName: __ZNSt3__113__unwrap_iterB7v160006INS_16reverse_iteratorIPP8SSS_NodeIfEEENS_18__unwrap_iter_implIS6_Lb0EEELi0EEEDTclsrT0_8__unwrapclsr3stdE7declvalIT_EEEESA_, symObjAddr: 0x15FF8, symBinAddr: 0x1000177A0, symSize: 0x44 }
  - { offsetInCU: 0x2A606, offset: 0x2A606, size: 0x8, addend: 0x0, symName: __ZNSt3__19make_pairB7v160006INS_16reverse_iteratorIPP8SSS_NodeIfEEES6_EENS_4pairINS_18__unwrap_ref_decayIT_E4typeENS8_IT0_E4typeEEEOS9_OSC_, symObjAddr: 0x1603C, symBinAddr: 0x1000177E4, symSize: 0x38 }
  - { offsetInCU: 0x2A655, offset: 0x2A655, size: 0x8, addend: 0x0, symName: __ZNSt3__114__rewrap_rangeB7v160006INS_16reverse_iteratorIPP8SSS_NodeIfEEES6_S6_EET0_S7_T1_, symObjAddr: 0x16074, symBinAddr: 0x10001781C, symSize: 0x5C }
  - { offsetInCU: 0x2A6AA, offset: 0x2A6AA, size: 0x8, addend: 0x0, symName: __ZNSt3__113__rewrap_iterB7v160006INS_16reverse_iteratorIPP8SSS_NodeIfEEES6_NS_18__unwrap_iter_implIS6_Lb0EEEEET_S9_T0_, symObjAddr: 0x160D0, symBinAddr: 0x100017878, symSize: 0x74 }
  - { offsetInCU: 0x2A74F, offset: 0x2A74F, size: 0x8, addend: 0x0, symName: __ZNSt3__1neB7v160006IPP8SSS_NodeIfES4_EEbRKNS_16reverse_iteratorIT_EERKNS5_IT0_EE, symObjAddr: 0x16238, symBinAddr: 0x1000179E0, symSize: 0x48 }
  - { offsetInCU: 0x2A807, offset: 0x2A807, size: 0x8, addend: 0x0, symName: __ZNSt3__122__make_exception_guardB7v160006INS_6vectorIjNS_9allocatorIjEEE16__destroy_vectorEEENS_28__exception_guard_exceptionsIT_EES7_, symObjAddr: 0x16D90, symBinAddr: 0x100018538, symSize: 0x40 }
  - { offsetInCU: 0x2A83C, offset: 0x2A83C, size: 0x8, addend: 0x0, symName: __ZNSt3__119__allocate_at_leastB7v160006INS_9allocatorIjEEEENS_19__allocation_resultINS_16allocator_traitsIT_E7pointerEEERS5_m, symObjAddr: 0x170B4, symBinAddr: 0x10001885C, symSize: 0x40 }
  - { offsetInCU: 0x2A87F, offset: 0x2A87F, size: 0x8, addend: 0x0, symName: __ZNSt3__112__to_addressB7v160006IjEEPT_S2_, symObjAddr: 0x173C8, symBinAddr: 0x100018B70, symSize: 0x14 }
  - { offsetInCU: 0x2A8DB, offset: 0x2A8DB, size: 0x8, addend: 0x0, symName: __ZNSt3__112construct_atB7v160006IjJEPjEEPT_S3_DpOT0_, symObjAddr: 0x17510, symBinAddr: 0x100018CB8, symSize: 0x20 }
  - { offsetInCU: 0x2A939, offset: 0x2A939, size: 0x8, addend: 0x0, symName: __ZNSt3__118__debug_db_erase_cB7v160006INS_6vectorIjNS_9allocatorIjEEEEEEvPT_, symObjAddr: 0x176F4, symBinAddr: 0x100018E9C, symSize: 0x10 }
  - { offsetInCU: 0x2A96A, offset: 0x2A96A, size: 0x8, addend: 0x0, symName: __ZNSt3__110destroy_atB7v160006IjLi0EEEvPT_, symObjAddr: 0x1783C, symBinAddr: 0x100018FE4, symSize: 0x24 }
  - { offsetInCU: 0x2A9A1, offset: 0x2A9A1, size: 0x8, addend: 0x0, symName: __ZNSt3__112__destroy_atB7v160006IjLi0EEEvPT_, symObjAddr: 0x17860, symBinAddr: 0x100019008, symSize: 0x10 }
  - { offsetInCU: 0x2A9D8, offset: 0x2A9D8, size: 0x8, addend: 0x0, symName: __ZNSt3__115__debug_db_swapB7v160006INS_6vectorIjNS_9allocatorIjEEEEEEvPT_S6_, symObjAddr: 0x17A14, symBinAddr: 0x1000191BC, symSize: 0x14 }
  - { offsetInCU: 0x2AA17, offset: 0x2AA17, size: 0x8, addend: 0x0, symName: __ZNSt3__125__debug_db_invalidate_allB7v160006INS_6vectorIjNS_9allocatorIjEEEEEEvPT_, symObjAddr: 0x17B30, symBinAddr: 0x1000192D8, symSize: 0x10 }
  - { offsetInCU: 0x2AA48, offset: 0x2AA48, size: 0x8, addend: 0x0, symName: __ZNSt3__1neB7v160006IPP8SSS_NodeIfEEEbRKNS_11__wrap_iterIT_EES9_, symObjAddr: 0x17E58, symBinAddr: 0x100019600, symSize: 0x34 }
  - { offsetInCU: 0x2AA8B, offset: 0x2AA8B, size: 0x8, addend: 0x0, symName: __ZNSt3__1neB7v160006ImJP8SSS_NodeIfEmEEEbRKNS_8functionIFT_DpT0_EEEDn, symObjAddr: 0x17EA4, symBinAddr: 0x10001964C, symSize: 0x2C }
  - { offsetInCU: 0x2AADF, offset: 0x2AADF, size: 0x8, addend: 0x0, symName: __ZNSt3__118__cxx_atomic_storeB7v160006IbEEvPNS_22__cxx_atomic_base_implIT_EES2_NS_12memory_orderE, symObjAddr: 0x180D4, symBinAddr: 0x10001987C, symSize: 0x90 }
  - { offsetInCU: 0x2AF89, offset: 0x2AF89, size: 0x8, addend: 0x0, symName: __ZNSt3__14swapB7v160006IPPNS_6threadEEENS_9enable_ifIXaasr21is_move_constructibleIT_EE5valuesr18is_move_assignableIS5_EE5valueEvE4typeERS5_S8_, symObjAddr: 0x19348, symBinAddr: 0x10001AAF0, symSize: 0x3C }
  - { offsetInCU: 0x2AFDA, offset: 0x2AFDA, size: 0x8, addend: 0x0, symName: __ZNSt3__14moveB7v160006IPPNS_6threadES3_EET0_T_S5_S4_, symObjAddr: 0x1942C, symBinAddr: 0x10001ABD4, symSize: 0x40 }
  - { offsetInCU: 0x2B034, offset: 0x2B034, size: 0x8, addend: 0x0, symName: __ZNSt3__16__moveB7v160006INS_17_ClassicAlgPolicyEPPNS_6threadES4_S4_EENS_4pairIT0_T2_EES6_T1_S7_, symObjAddr: 0x195CC, symBinAddr: 0x10001AD74, symSize: 0x44 }
  - { offsetInCU: 0x2B0A0, offset: 0x2B0A0, size: 0x8, addend: 0x0, symName: __ZNSt3__123__dispatch_copy_or_moveB7v160006INS_17_ClassicAlgPolicyENS_11__move_loopIS1_EENS_14__move_trivialEPPNS_6threadES7_S7_EENS_4pairIT2_T4_EES9_T3_SA_, symObjAddr: 0x19610, symBinAddr: 0x10001ADB8, symSize: 0x44 }
  - { offsetInCU: 0x2B11E, offset: 0x2B11E, size: 0x8, addend: 0x0, symName: __ZNSt3__121__unwrap_and_dispatchB7v160006INS_10__overloadINS_11__move_loopINS_17_ClassicAlgPolicyEEENS_14__move_trivialEEEPPNS_6threadES9_S9_Li0EEENS_4pairIT0_T2_EESB_T1_SC_, symObjAddr: 0x19654, symBinAddr: 0x10001ADFC, symSize: 0xB4 }
  - { offsetInCU: 0x2B1AC, offset: 0x2B1AC, size: 0x8, addend: 0x0, symName: __ZNSt3__114__unwrap_rangeB7v160006IPPNS_6threadES3_EEDaT_T0_, symObjAddr: 0x19708, symBinAddr: 0x10001AEB0, symSize: 0x3C }
  - { offsetInCU: 0x2B32A, offset: 0x2B32A, size: 0x8, addend: 0x0, symName: __ZNSt3__113__unwrap_iterB7v160006IPPNS_6threadENS_18__unwrap_iter_implIS3_Lb1EEELi0EEEDTclsrT0_8__unwrapclsr3stdE7declvalIT_EEEES7_, symObjAddr: 0x1978C, symBinAddr: 0x10001AF34, symSize: 0x24 }
  - { offsetInCU: 0x2B36E, offset: 0x2B36E, size: 0x8, addend: 0x0, symName: __ZNSt3__19make_pairB7v160006IPPNS_6threadES3_EENS_4pairINS_18__unwrap_ref_decayIT_E4typeENS5_IT0_E4typeEEEOS6_OS9_, symObjAddr: 0x197B0, symBinAddr: 0x10001AF58, symSize: 0x38 }
  - { offsetInCU: 0x2B3BD, offset: 0x2B3BD, size: 0x8, addend: 0x0, symName: __ZNSt3__114__rewrap_rangeB7v160006IPPNS_6threadES3_S3_EET0_S4_T1_, symObjAddr: 0x197E8, symBinAddr: 0x10001AF90, symSize: 0x2C }
  - { offsetInCU: 0x2B412, offset: 0x2B412, size: 0x8, addend: 0x0, symName: __ZNSt3__113__rewrap_iterB7v160006IPPNS_6threadES3_NS_18__unwrap_iter_implIS3_Lb1EEEEET_S6_T0_, symObjAddr: 0x19814, symBinAddr: 0x10001AFBC, symSize: 0x3C }
  - { offsetInCU: 0x2B4B7, offset: 0x2B4B7, size: 0x8, addend: 0x0, symName: __ZNSt3__119__copy_trivial_implB7v160006IPNS_6threadES2_EENS_4pairIPT_PT0_EES5_S5_S7_, symObjAddr: 0x19918, symBinAddr: 0x10001B0C0, symSize: 0x84 }
  - { offsetInCU: 0x2B51F, offset: 0x2B51F, size: 0x8, addend: 0x0, symName: __ZNSt3__19make_pairB7v160006IRPPNS_6threadES3_EENS_4pairINS_18__unwrap_ref_decayIT_E4typeENS6_IT0_E4typeEEEOS7_OSA_, symObjAddr: 0x1999C, symBinAddr: 0x10001B144, symSize: 0x38 }
  - { offsetInCU: 0x2B5C1, offset: 0x2B5C1, size: 0x8, addend: 0x0, symName: __ZNSt3__18distanceB7v160006INS_13move_iteratorIPPNS_6threadEEEEENS_15iterator_traitsIT_E15difference_typeES7_S7_, symObjAddr: 0x19AE4, symBinAddr: 0x10001B28C, symSize: 0x3C }
  - { offsetInCU: 0x2B604, offset: 0x2B604, size: 0x8, addend: 0x0, symName: __ZNSt3__110__distanceB7v160006INS_13move_iteratorIPPNS_6threadEEEEENS_15iterator_traitsIT_E15difference_typeES7_S7_NS_26random_access_iterator_tagE, symObjAddr: 0x19C2C, symBinAddr: 0x10001B3D4, symSize: 0x30 }
  - { offsetInCU: 0x2B651, offset: 0x2B651, size: 0x8, addend: 0x0, symName: __ZNSt3__1miB7v160006IPPNS_6threadES3_EEDTmicldtfp_4baseEcldtfp0_4baseEERKNS_13move_iteratorIT_EERKNS5_IT0_EE, symObjAddr: 0x19C5C, symBinAddr: 0x10001B404, symSize: 0x4C }
  - { offsetInCU: 0x2B6C7, offset: 0x2B6C7, size: 0x8, addend: 0x0, symName: __ZNSt3__112construct_atB7v160006IPNS_6threadEJS2_EPS2_EEPT_S5_DpOT0_, symObjAddr: 0x19D00, symBinAddr: 0x10001B4A8, symSize: 0x2C }
  - { offsetInCU: 0x2B739, offset: 0x2B739, size: 0x8, addend: 0x0, symName: __ZNSt3__112construct_atB7v160006IPNS_6threadEJRKS2_EPS2_EEPT_S7_DpOT0_, symObjAddr: 0x19DC8, symBinAddr: 0x10001B570, symSize: 0x2C }
  - { offsetInCU: 0x2B7AB, offset: 0x2B7AB, size: 0x8, addend: 0x0, symName: __ZNSt3__113move_backwardB7v160006IPPNS_6threadES3_EET0_T_S5_S4_, symObjAddr: 0x19E74, symBinAddr: 0x10001B61C, symSize: 0x40 }
  - { offsetInCU: 0x2B805, offset: 0x2B805, size: 0x8, addend: 0x0, symName: __ZNSt3__115__move_backwardB7v160006INS_17_ClassicAlgPolicyEPPNS_6threadES4_S4_EENS_4pairIT0_T2_EES6_T1_S7_, symObjAddr: 0x19EB4, symBinAddr: 0x10001B65C, symSize: 0x44 }
  - { offsetInCU: 0x2B871, offset: 0x2B871, size: 0x8, addend: 0x0, symName: __ZNSt3__123__dispatch_copy_or_moveB7v160006INS_17_ClassicAlgPolicyENS_20__move_backward_loopIS1_EENS_23__move_backward_trivialEPPNS_6threadES7_S7_EENS_4pairIT2_T4_EES9_T3_SA_, symObjAddr: 0x19EF8, symBinAddr: 0x10001B6A0, symSize: 0x44 }
  - { offsetInCU: 0x2B8EF, offset: 0x2B8EF, size: 0x8, addend: 0x0, symName: __ZNSt3__121__unwrap_and_dispatchB7v160006INS_10__overloadINS_20__move_backward_loopINS_17_ClassicAlgPolicyEEENS_23__move_backward_trivialEEEPPNS_6threadES9_S9_Li0EEENS_4pairIT0_T2_EESB_T1_SC_, symObjAddr: 0x19F3C, symBinAddr: 0x10001B6E4, symSize: 0xB4 }
  - { offsetInCU: 0x2B97D, offset: 0x2B97D, size: 0x8, addend: 0x0, symName: __ZNSt3__128__copy_backward_trivial_implB7v160006IPNS_6threadES2_EENS_4pairIPT_PT0_EES5_S5_S7_, symObjAddr: 0x1A038, symBinAddr: 0x10001B7E0, symSize: 0x94 }
  - { offsetInCU: 0x2B9E5, offset: 0x2B9E5, size: 0x8, addend: 0x0, symName: __ZNSt3__19make_pairB7v160006IRPPNS_6threadES4_EENS_4pairINS_18__unwrap_ref_decayIT_E4typeENS6_IT0_E4typeEEEOS7_OSA_, symObjAddr: 0x1A0CC, symBinAddr: 0x10001B874, symSize: 0x38 }
  - { offsetInCU: 0x2BA34, offset: 0x2BA34, size: 0x8, addend: 0x0, symName: __ZNSt3__119__allocate_at_leastB7v160006INS_9allocatorIPNS_6threadEEEEENS_19__allocation_resultINS_16allocator_traitsIT_E7pointerEEERS7_m, symObjAddr: 0x1A284, symBinAddr: 0x10001BA2C, symSize: 0x40 }
  - { offsetInCU: 0x2BA9E, offset: 0x2BA9E, size: 0x8, addend: 0x0, symName: __ZNSt3__112construct_atB7v160006INS_6threadEJZN14SSS_ThreadPool13start_threadsEjEUlvE_EPS1_EEPT_S6_DpOT0_, symObjAddr: 0x1A8BC, symBinAddr: 0x10001C064, symSize: 0x3C }
  - { offsetInCU: 0x2BF0D, offset: 0x2BF0D, size: 0x8, addend: 0x0, symName: __ZNSt3__122__libcpp_thread_createB7v160006EPP17_opaque_pthread_tPFPvS3_ES3_, symObjAddr: 0x1AB18, symBinAddr: 0x10001C2C0, symSize: 0x38 }
  - { offsetInCU: 0x2BF59, offset: 0x2BF59, size: 0x8, addend: 0x0, symName: __ZNSt3__114__thread_proxyB7v160006INS_5tupleIJNS_10unique_ptrINS_15__thread_structENS_14default_deleteIS3_EEEEZN14SSS_ThreadPool13start_threadsEjEUlvE_EEEEEPvSA_, symObjAddr: 0x1AB50, symBinAddr: 0x10001C2F8, symSize: 0x90 }
  - { offsetInCU: 0x2C0A0, offset: 0x2C0A0, size: 0x8, addend: 0x0, symName: __ZNSt3__13getB7v160006ILm0EJNS_10unique_ptrINS_15__thread_structENS_14default_deleteIS2_EEEEZN14SSS_ThreadPool13start_threadsEjEUlvE_EEERNS_13tuple_elementIXT_ENS_5tupleIJDpT0_EEEE4typeERSC_, symObjAddr: 0x1B204, symBinAddr: 0x10001C9AC, symSize: 0x24 }
  - { offsetInCU: 0x2C0E9, offset: 0x2C0E9, size: 0x8, addend: 0x0, symName: __ZNSt3__116__thread_executeB7v160006INS_10unique_ptrINS_15__thread_structENS_14default_deleteIS2_EEEEZN14SSS_ThreadPool13start_threadsEjEUlvE_JEJEEEvRNS_5tupleIJT_T0_DpT1_EEENS_15__tuple_indicesIJXspT2_EEEE, symObjAddr: 0x1B228, symBinAddr: 0x10001C9D0, symSize: 0x28 }
  - { offsetInCU: 0x2C13B, offset: 0x2C13B, size: 0x8, addend: 0x0, symName: __ZNSt3__116__libcpp_tls_setB7v160006EmPv, symObjAddr: 0x1B250, symBinAddr: 0x10001C9F8, symSize: 0x2C }
  - { offsetInCU: 0x2C179, offset: 0x2C179, size: 0x8, addend: 0x0, symName: __ZNSt3__18__invokeB7v160006IZN14SSS_ThreadPool13start_threadsEjEUlvE_JEEEDTclclsr3stdE7declvalIT_EEspclsr3stdE7declvalIT0_EEEEOS3_DpOS4_, symObjAddr: 0x1B290, symBinAddr: 0x10001CA38, symSize: 0x24 }
  - { offsetInCU: 0x2C1B1, offset: 0x2C1B1, size: 0x8, addend: 0x0, symName: __ZNSt3__13getB7v160006ILm1EJNS_10unique_ptrINS_15__thread_structENS_14default_deleteIS2_EEEEZN14SSS_ThreadPool13start_threadsEjEUlvE_EEERNS_13tuple_elementIXT_ENS_5tupleIJDpT0_EEEE4typeERSC_, symObjAddr: 0x1B2B4, symBinAddr: 0x10001CA5C, symSize: 0x28 }
  - { offsetInCU: 0x2C1F9, offset: 0x2C1F9, size: 0x8, addend: 0x0, symName: __ZNSt3__14swapB7v160006IPNS_10__function6__baseIFvvEEEEENS_9enable_ifIXaasr21is_move_constructibleIT_EE5valuesr18is_move_assignableIS7_EE5valueEvE4typeERS7_SA_, symObjAddr: 0x1B9CC, symBinAddr: 0x10001D174, symSize: 0x3C }
  - { offsetInCU: 0x2C24A, offset: 0x2C24A, size: 0x8, addend: 0x0, symName: __ZNSt3__117__cxx_atomic_waitB7v160006INS_17__cxx_atomic_implIlNS_22__cxx_atomic_base_implIlEEEERKZNS_23__atomic_semaphore_base7acquireB7v160006EvEUlvE_EEbPT_OT0_, symObjAddr: 0x1BA84, symBinAddr: 0x10001D22C, symSize: 0x64 }
  - { offsetInCU: 0x2C2A8, offset: 0x2C2A8, size: 0x8, addend: 0x0, symName: __ZNSt3__133__libcpp_thread_poll_with_backoffB7v160006IRKZNS_23__atomic_semaphore_base7acquireB7v160006EvEUlvE_RNS_33__libcpp_atomic_wait_backoff_implINS_17__cxx_atomic_implIlNS_22__cxx_atomic_base_implIlEEEES2_EEEEbOT_OT0_NS_6chrono8durationIxNS_5ratioILl1ELl1000000000EEEEE, symObjAddr: 0x1BAE8, symBinAddr: 0x10001D290, symSize: 0x12C }
  - { offsetInCU: 0x2C39C, offset: 0x2C39C, size: 0x8, addend: 0x0, symName: __ZNSt3__136__cxx_atomic_compare_exchange_strongB7v160006IlEEbPNS_22__cxx_atomic_base_implIT_EEPS2_S2_NS_12memory_orderES6_, symObjAddr: 0x1BF88, symBinAddr: 0x10001D730, symSize: 0x644 }
  - { offsetInCU: 0x2C40F, offset: 0x2C40F, size: 0x8, addend: 0x0, symName: __ZNSt3__118__to_failure_orderB7v160006ENS_12memory_orderE, symObjAddr: 0x1C5E0, symBinAddr: 0x10001DD88, symSize: 0x6C }
  - { offsetInCU: 0x2C43E, offset: 0x2C43E, size: 0x8, addend: 0x0, symName: __ZNSt3__121__libcpp_thread_yieldB7v160006Ev, symObjAddr: 0x1C890, symBinAddr: 0x10001E038, symSize: 0x14 }
  - { offsetInCU: 0x2C458, offset: 0x2C458, size: 0x8, addend: 0x0, symName: __ZNSt3__122__cxx_atomic_fetch_addB7v160006IlEET_PNS_22__cxx_atomic_base_implIS1_EES1_NS_12memory_orderE, symObjAddr: 0x1CF44, symBinAddr: 0x10001E6EC, symSize: 0xC4 }
  - { offsetInCU: 0x2C4AD, offset: 0x2C4AD, size: 0x8, addend: 0x0, symName: __ZNSt3__1eqB7v160006IPP8SSS_NodeIfEEEbRKNS_11__wrap_iterIT_EES9_, symObjAddr: 0x1D0B0, symBinAddr: 0x10001E858, symSize: 0x48 }
  - { offsetInCU: 0x2C4F0, offset: 0x2C4F0, size: 0x8, addend: 0x0, symName: __ZNSt3__1neB7v160006IvJP9SSS_MixerIfEPfmEEEbRKNS_8functionIFT_DpT0_EEEDn, symObjAddr: 0x1D80C, symBinAddr: 0x10001EFB4, symSize: 0x2C }
  - { offsetInCU: 0x2C544, offset: 0x2C544, size: 0x8, addend: 0x0, symName: __ZNSt3__122__make_exception_guardB7v160006INS_6vectorIfNS_9allocatorIfEEE16__destroy_vectorEEENS_28__exception_guard_exceptionsIT_EES7_, symObjAddr: 0x1DBDC, symBinAddr: 0x10001F384, symSize: 0x40 }
  - { offsetInCU: 0x2C579, offset: 0x2C579, size: 0x8, addend: 0x0, symName: __ZNSt3__119__allocate_at_leastB7v160006INS_9allocatorIfEEEENS_19__allocation_resultINS_16allocator_traitsIT_E7pointerEEERS5_m, symObjAddr: 0x1DEB4, symBinAddr: 0x10001F65C, symSize: 0x40 }
  - { offsetInCU: 0x2C5E3, offset: 0x2C5E3, size: 0x8, addend: 0x0, symName: __ZNSt3__112construct_atB7v160006IfJRKfEPfEEPT_S5_DpOT0_, symObjAddr: 0x1E1BC, symBinAddr: 0x10001F964, symSize: 0x2C }
  - { offsetInCU: 0x2C655, offset: 0x2C655, size: 0x8, addend: 0x0, symName: __ZNSt3__115__debug_db_swapB7v160006INS_6vectorIfNS_9allocatorIfEEEEEEvPT_S6_, symObjAddr: 0x1E3BC, symBinAddr: 0x10001FB64, symSize: 0x14 }
  - { offsetInCU: 0x2C694, offset: 0x2C694, size: 0x8, addend: 0x0, symName: __ZNSt3__125__debug_db_invalidate_allB7v160006INS_6vectorIfNS_9allocatorIfEEEEEEvPT_, symObjAddr: 0x1E4D8, symBinAddr: 0x10001FC80, symSize: 0x10 }
  - { offsetInCU: 0x2C6C5, offset: 0x2C6C5, size: 0x8, addend: 0x0, symName: __ZNSt3__112construct_atB7v160006IcJRKcEPcEEPT_S5_DpOT0_, symObjAddr: 0x1E864, symBinAddr: 0x10002000C, symSize: 0x2C }
  - { offsetInCU: 0x2C737, offset: 0x2C737, size: 0x8, addend: 0x0, symName: __ZNSt3__18distanceB7v160006INS_11__wrap_iterIPcEEEENS_15iterator_traitsIT_E15difference_typeES5_S5_, symObjAddr: 0x1EA70, symBinAddr: 0x100020218, symSize: 0x3C }
  - { offsetInCU: 0x2C77A, offset: 0x2C77A, size: 0x8, addend: 0x0, symName: __ZNSt3__110__distanceB7v160006INS_11__wrap_iterIPcEEEENS_15iterator_traitsIT_E15difference_typeES5_S5_NS_26random_access_iterator_tagE, symObjAddr: 0x1EB48, symBinAddr: 0x1000202F0, symSize: 0x30 }
  - { offsetInCU: 0x2C7C7, offset: 0x2C7C7, size: 0x8, addend: 0x0, symName: __ZNSt3__1miB7v160006IPcS1_EEDTmicldtfp_4baseEcldtfp0_4baseEERKNS_11__wrap_iterIT_EERKNS3_IT0_EE, symObjAddr: 0x1EB78, symBinAddr: 0x100020320, symSize: 0x40 }
  - { offsetInCU: 0x2C813, offset: 0x2C813, size: 0x8, addend: 0x0, symName: __ZNSt3__130__uninitialized_allocator_copyB7v160006INS_9allocatorIcEENS_11__wrap_iterIPcEES5_S4_EET2_RT_T0_T1_S6_, symObjAddr: 0x1EBD0, symBinAddr: 0x100020378, symSize: 0xF8 }
  - { offsetInCU: 0x2C8B1, offset: 0x2C8B1, size: 0x8, addend: 0x0, symName: __ZNSt3__1neB7v160006IPcEEbRKNS_11__wrap_iterIT_EES6_, symObjAddr: 0x1ECC8, symBinAddr: 0x100020470, symSize: 0x34 }
  - { offsetInCU: 0x2C8F4, offset: 0x2C8F4, size: 0x8, addend: 0x0, symName: __ZNSt3__1eqB7v160006IPcEEbRKNS_11__wrap_iterIT_EES6_, symObjAddr: 0x1ED34, symBinAddr: 0x1000204DC, symSize: 0x48 }
  - { offsetInCU: 0x2C937, offset: 0x2C937, size: 0x8, addend: 0x0, symName: __ZNSt3__1neB7v160006IPjEEbRKNS_11__wrap_iterIT_EES6_, symObjAddr: 0x1F010, symBinAddr: 0x1000207B8, symSize: 0x34 }
  - { offsetInCU: 0x2C97A, offset: 0x2C97A, size: 0x8, addend: 0x0, symName: __ZNSt3__1eqB7v160006IPjEEbRKNS_11__wrap_iterIT_EES6_, symObjAddr: 0x1F110, symBinAddr: 0x1000208B8, symSize: 0x48 }
  - { offsetInCU: 0x2D77A, offset: 0x2D77A, size: 0x8, addend: 0x0, symName: __ZSt28__throw_bad_array_new_lengthB7v160006v, symObjAddr: 0x812C, symBinAddr: 0x1000098D4, symSize: 0x34 }
  - { offsetInCU: 0x3035B, offset: 0x3035B, size: 0x8, addend: 0x0, symName: __ZNSt3__16vectorIcNS_9allocatorIcEEE26__swap_out_circular_bufferERNS_14__split_bufferIcRS2_EE, symObjAddr: 0xD584, symBinAddr: 0x10000ED2C, symSize: 0x118 }
  - { offsetInCU: 0x30725, offset: 0x30725, size: 0x8, addend: 0x0, symName: __ZNSt3__16vectorIP8SSS_NodeIfENS_9allocatorIS3_EEE26__swap_out_circular_bufferERNS_14__split_bufferIS3_RS5_EE, symObjAddr: 0x155D8, symBinAddr: 0x100016D80, symSize: 0x118 }
  - { offsetInCU: 0x3102C, offset: 0x3102C, size: 0x8, addend: 0x0, symName: __ZN14SSS_ThreadPool13start_threadsEj, symObjAddr: 0x17D3C, symBinAddr: 0x1000194E4, symSize: 0x90 }
  - { offsetInCU: 0x3114F, offset: 0x3114F, size: 0x8, addend: 0x0, symName: __ZNKSt3__16chrono13__duration_ltINS0_8durationIxNS_5ratioILl1ELl1000000EEEEENS2_IxNS3_ILl1ELl1000000000EEEEEEclB7v160006ERKS5_RKS7_, symObjAddr: 0x1C8D8, symBinAddr: 0x10001E080, symSize: 0x6C }
  - { offsetInCU: 0x311A9, offset: 0x311A9, size: 0x8, addend: 0x0, symName: __ZNKSt3__16chrono15__duration_castINS0_8durationIxNS_5ratioILl1ELl1000000EEEEENS2_IxNS3_ILl1ELl1000000000EEEEENS3_ILl1000ELl1EEELb0ELb1EEclB7v160006ERKS5_, symObjAddr: 0x1CA00, symBinAddr: 0x10001E1A8, symSize: 0x48 }
  - { offsetInCU: 0x31234, offset: 0x31234, size: 0x8, addend: 0x0, symName: __ZNKSt3__16chrono13__duration_ltINS0_8durationIxNS_5ratioILl1ELl1EEEEENS2_IeS4_EEEclB7v160006ERKS5_RKS6_, symObjAddr: 0x1F448, symBinAddr: 0x100020BF0, symSize: 0x6C }
  - { offsetInCU: 0x3128E, offset: 0x3128E, size: 0x8, addend: 0x0, symName: __ZNKSt3__16chrono15__duration_castINS0_8durationIxNS_5ratioILl1ELl1EEEEENS2_IxNS3_ILl1ELl1000000000EEEEENS3_ILl1000000000ELl1EEELb0ELb1EEclB7v160006ERKS5_, symObjAddr: 0x1F628, symBinAddr: 0x100020DD0, symSize: 0x4C }
  - { offsetInCU: 0x312D7, offset: 0x312D7, size: 0x8, addend: 0x0, symName: __ZNKSt3__16chrono13__duration_ltINS0_8durationIxNS_5ratioILl1ELl1000000000EEEEENS2_IxNS3_ILl1ELl1EEEEEEclB7v160006ERKS5_RKS7_, symObjAddr: 0x1F674, symBinAddr: 0x100020E1C, symSize: 0x6C }
  - { offsetInCU: 0x33275, offset: 0x33275, size: 0x8, addend: 0x0, symName: __Z11fmt_to_bits7SSS_FMT, symObjAddr: 0x0, symBinAddr: 0x1000017A8, symSize: 0xB8 }
  - { offsetInCU: 0x332A1, offset: 0x332A1, size: 0x8, addend: 0x0, symName: __Z12fmt_to_bytes7SSS_FMT, symObjAddr: 0xDC, symBinAddr: 0x100001884, symSize: 0x2C }
  - { offsetInCU: 0x332CD, offset: 0x332CD, size: 0x8, addend: 0x0, symName: __Z8is_float7SSS_FMT, symObjAddr: 0x108, symBinAddr: 0x1000018B0, symSize: 0x68 }
  - { offsetInCU: 0x332F9, offset: 0x332F9, size: 0x8, addend: 0x0, symName: __Z9is_signed7SSS_FMT, symObjAddr: 0x170, symBinAddr: 0x100001918, symSize: 0x18 }
  - { offsetInCU: 0x33325, offset: 0x33325, size: 0x8, addend: 0x0, symName: __Z14float_to_ucharPfm, symObjAddr: 0x188, symBinAddr: 0x100001930, symSize: 0x3C }
  - { offsetInCU: 0x3336D, offset: 0x3336D, size: 0x8, addend: 0x0, symName: __Z17convert_s16_to_32RNSt3__16vectorIcNS_9allocatorIcEEEEi, symObjAddr: 0x1C4, symBinAddr: 0x10000196C, symSize: 0xAC }
  - { offsetInCU: 0x333E1, offset: 0x333E1, size: 0x8, addend: 0x0, symName: __ZNSt3__16vectorIcNS_9allocatorIcEEE4dataB7v160006Ev, symObjAddr: 0x270, symBinAddr: 0x100001A18, symSize: 0x28 }
  - { offsetInCU: 0x33406, offset: 0x33406, size: 0x8, addend: 0x0, symName: __Z18convert_s16_to_f32RNSt3__16vectorIcNS_9allocatorIcEEEEi, symObjAddr: 0x298, symBinAddr: 0x100001A40, symSize: 0xC4 }
  - { offsetInCU: 0x33479, offset: 0x33479, size: 0x8, addend: 0x0, symName: __Z16set_ca_fmt_flagsR27AudioStreamBasicDescription7SSS_FMT, symObjAddr: 0x35C, symBinAddr: 0x100001B04, symSize: 0x50 }
  - { offsetInCU: 0x334AF, offset: 0x334AF, size: 0x8, addend: 0x0, symName: __Z11prep_sampled, symObjAddr: 0x3AC, symBinAddr: 0x100001B54, symSize: 0x3C }
  - { offsetInCU: 0x334F7, offset: 0x334F7, size: 0x8, addend: 0x0, symName: __Z8input_fnP8SSS_NodeIfEm, symObjAddr: 0x3E8, symBinAddr: 0x100001B90, symSize: 0x40 }
  - { offsetInCU: 0x33532, offset: 0x33532, size: 0x8, addend: 0x0, symName: __ZN8SSS_File15write_out_bytesEPfm, symObjAddr: 0x428, symBinAddr: 0x100001BD0, symSize: 0x38 }
  - { offsetInCU: 0x33573, offset: 0x33573, size: 0x8, addend: 0x0, symName: __Z9gen_sine1P8SSS_NodeIfEm, symObjAddr: 0x460, symBinAddr: 0x100001C08, symSize: 0x1D4 }
  - { offsetInCU: 0x33667, offset: 0x33667, size: 0x8, addend: 0x0, symName: __ZN8SSS_FifoIfE7enqueueEf, symObjAddr: 0x634, symBinAddr: 0x100001DDC, symSize: 0x120 }
  - { offsetInCU: 0x336CA, offset: 0x336CA, size: 0x8, addend: 0x0, symName: __ZN7fn_dataC1Ev, symObjAddr: 0x754, symBinAddr: 0x100001EFC, symSize: 0x2C }
  - { offsetInCU: 0x336F5, offset: 0x336F5, size: 0x8, addend: 0x0, symName: __Z9gen_sine2Pim, symObjAddr: 0x780, symBinAddr: 0x100001F28, symSize: 0x1D8 }
  - { offsetInCU: 0x337DB, offset: 0x337DB, size: 0x8, addend: 0x0, symName: __ZNSt3__113basic_ostreamIcNS_11char_traitsIcEEElsB7v160006EPFRS3_S4_E, symObjAddr: 0x958, symBinAddr: 0x100002100, symSize: 0x2C }
  - { offsetInCU: 0x3380E, offset: 0x3380E, size: 0x8, addend: 0x0, symName: __Z8mixer_fnP9SSS_MixerIfEPfm, symObjAddr: 0x9DC, symBinAddr: 0x100002184, symSize: 0x94 }
  - { offsetInCU: 0x33885, offset: 0x33885, size: 0x8, addend: 0x0, symName: __ZNSt3__16vectorIfNS_9allocatorIfEEE5beginB7v160006Ev, symObjAddr: 0xB10, symBinAddr: 0x1000022B8, symSize: 0x30 }
  - { offsetInCU: 0x338AD, offset: 0x338AD, size: 0x8, addend: 0x0, symName: __ZNKSt3__111__wrap_iterIPfEplB7v160006El, symObjAddr: 0xB40, symBinAddr: 0x1000022E8, symSize: 0x3C }
  - { offsetInCU: 0x338EF, offset: 0x338EF, size: 0x8, addend: 0x0, symName: _main, symObjAddr: 0xB7C, symBinAddr: 0x100002324, symSize: 0x438 }
  - { offsetInCU: 0x33D12, offset: 0x33D12, size: 0x8, addend: 0x0, symName: __ZN3SSSIfEC1Emhi7SSS_FMT, symObjAddr: 0xFB4, symBinAddr: 0x10000275C, symSize: 0x4C }
  - { offsetInCU: 0x33D74, offset: 0x33D74, size: 0x8, addend: 0x0, symName: __ZN3SSSIfE12set_mixer_fnENSt3__18functionIFvP9SSS_MixerIfEPfmEEE, symObjAddr: 0x1000, symBinAddr: 0x1000027A8, symSize: 0xA8 }
  - { offsetInCU: 0x33DA9, offset: 0x33DA9, size: 0x8, addend: 0x0, symName: __ZNSt3__18functionIFvP9SSS_MixerIfEPfmEEC1IPS5_vEET_, symObjAddr: 0x10A8, symBinAddr: 0x100002850, symSize: 0x34 }
  - { offsetInCU: 0x33DEE, offset: 0x33DEE, size: 0x8, addend: 0x0, symName: __ZNSt3__18functionIFvP9SSS_MixerIfEPfmEED1Ev, symObjAddr: 0x10DC, symBinAddr: 0x100002884, symSize: 0x2C }
  - { offsetInCU: 0x33E1A, offset: 0x33E1A, size: 0x8, addend: 0x0, symName: __ZNSt3__18functionIFmP8SSS_NodeIfEmEEC1IPS4_vEET_, symObjAddr: 0x1108, symBinAddr: 0x1000028B0, symSize: 0x34 }
  - { offsetInCU: 0x33E5F, offset: 0x33E5F, size: 0x8, addend: 0x0, symName: __ZN3SSSIfE9push_nodeE8NodeTypeNSt3__18functionIFmP8SSS_NodeIfEmEEEPvNS2_12basic_stringIcNS2_11char_traitsIcEENS2_9allocatorIcEEEESF_, symObjAddr: 0x113C, symBinAddr: 0x1000028E4, symSize: 0x164 }
  - { offsetInCU: 0x33ED1, offset: 0x33ED1, size: 0x8, addend: 0x0, symName: __ZNSt3__18functionIFmP8SSS_NodeIfEmEEC1ERKS5_, symObjAddr: 0x12A0, symBinAddr: 0x100002A48, symSize: 0x34 }
  - { offsetInCU: 0x33F0C, offset: 0x33F0C, size: 0x8, addend: 0x0, symName: __ZNSt3__112basic_stringIcNS_11char_traitsIcEENS_9allocatorIcEEEC1B7v160006IDnEEPKc, symObjAddr: 0x12D4, symBinAddr: 0x100002A7C, symSize: 0x34 }
  - { offsetInCU: 0x33F4A, offset: 0x33F4A, size: 0x8, addend: 0x0, symName: __ZNSt3__18functionIFmP8SSS_NodeIfEmEED1Ev, symObjAddr: 0x1308, symBinAddr: 0x100002AB0, symSize: 0x2C }
  - { offsetInCU: 0x33F76, offset: 0x33F76, size: 0x8, addend: 0x0, symName: __ZN3SSSIfE19init_output_backendEv, symObjAddr: 0x1334, symBinAddr: 0x100002ADC, symSize: 0x74 }
  - { offsetInCU: 0x33F9C, offset: 0x33F9C, size: 0x8, addend: 0x0, symName: __ZN3SSSIfE12list_devicesEv, symObjAddr: 0x13A8, symBinAddr: 0x100002B50, symSize: 0x28 }
  - { offsetInCU: 0x33FC2, offset: 0x33FC2, size: 0x8, addend: 0x0, symName: __ZN3SSSIfE20start_output_backendEv, symObjAddr: 0x13D0, symBinAddr: 0x100002B78, symSize: 0x28 }
  - { offsetInCU: 0x33FF3, offset: 0x33FF3, size: 0x8, addend: 0x0, symName: __ZNSt3__16chrono8durationIxNS_5ratioILl1ELl1EEEEC1B7v160006IiEERKT_PNS_9enable_ifIXaasr14is_convertibleIS8_xEE5valueooL_ZNS_17integral_constantIbLb0EE5valueEEntsr23treat_as_floating_pointIS6_EE5valueEvE4typeE, symObjAddr: 0x14B4, symBinAddr: 0x100002C5C, symSize: 0x3C }
  - { offsetInCU: 0x34040, offset: 0x34040, size: 0x8, addend: 0x0, symName: __ZN3SSSIfE20pause_output_backendEv, symObjAddr: 0x14F0, symBinAddr: 0x100002C98, symSize: 0x28 }
  - { offsetInCU: 0x34066, offset: 0x34066, size: 0x8, addend: 0x0, symName: __ZN7fn_dataC2Ev, symObjAddr: 0x1574, symBinAddr: 0x100002D1C, symSize: 0x34 }
  - { offsetInCU: 0x3409C, offset: 0x3409C, size: 0x8, addend: 0x0, symName: '__ZZ8mixer_fnP9SSS_MixerIfEPfmENK3$_0clEff', symObjAddr: 0x15DC, symBinAddr: 0x100002D84, symSize: 0x58 }
  - { offsetInCU: 0x340E2, offset: 0x340E2, size: 0x8, addend: 0x0, symName: __ZNKSt3__111__wrap_iterIPfEdeB7v160006Ev, symObjAddr: 0x1634, symBinAddr: 0x100002DDC, symSize: 0x18 }
  - { offsetInCU: 0x34108, offset: 0x34108, size: 0x8, addend: 0x0, symName: __ZNSt3__111__wrap_iterIPfEppB7v160006Ev, symObjAddr: 0x164C, symBinAddr: 0x100002DF4, symSize: 0x20 }
  - { offsetInCU: 0x3412E, offset: 0x3412E, size: 0x8, addend: 0x0, symName: __ZNKSt3__111__wrap_iterIPfE4baseB7v160006Ev, symObjAddr: 0x16B4, symBinAddr: 0x100002E5C, symSize: 0x18 }
  - { offsetInCU: 0x34154, offset: 0x34154, size: 0x8, addend: 0x0, symName: __ZNSt3__16vectorIfNS_9allocatorIfEEE11__make_iterB7v160006EPf, symObjAddr: 0x16CC, symBinAddr: 0x100002E74, symSize: 0x34 }
  - { offsetInCU: 0x34189, offset: 0x34189, size: 0x8, addend: 0x0, symName: __ZNSt3__111__wrap_iterIPfEC1B7v160006EPKvS1_, symObjAddr: 0x1700, symBinAddr: 0x100002EA8, symSize: 0x3C }
  - { offsetInCU: 0x341CF, offset: 0x341CF, size: 0x8, addend: 0x0, symName: __ZNSt3__111__wrap_iterIPfEC2B7v160006EPKvS1_, symObjAddr: 0x173C, symBinAddr: 0x100002EE4, symSize: 0x24 }
  - { offsetInCU: 0x34215, offset: 0x34215, size: 0x8, addend: 0x0, symName: __ZNSt3__111__wrap_iterIPfEpLB7v160006El, symObjAddr: 0x1760, symBinAddr: 0x100002F08, symSize: 0x28 }
  - { offsetInCU: 0x34249, offset: 0x34249, size: 0x8, addend: 0x0, symName: __ZNSt3__112basic_stringIcNS_11char_traitsIcEENS_9allocatorIcEEEC2B7v160006IDnEEPKc, symObjAddr: 0x1788, symBinAddr: 0x100002F30, symSize: 0x60 }
  - { offsetInCU: 0x3428D, offset: 0x3428D, size: 0x8, addend: 0x0, symName: __ZNSt3__117__compressed_pairINS_12basic_stringIcNS_11char_traitsIcEENS_9allocatorIcEEE5__repES5_EC1B7v160006INS_18__default_init_tagESA_EEOT_OT0_, symObjAddr: 0x17E8, symBinAddr: 0x100002F90, symSize: 0x3C }
  - { offsetInCU: 0x342E5, offset: 0x342E5, size: 0x8, addend: 0x0, symName: __ZNSt3__111char_traitsIcE6lengthEPKc, symObjAddr: 0x1824, symBinAddr: 0x100002FCC, symSize: 0x34 }
  - { offsetInCU: 0x34308, offset: 0x34308, size: 0x8, addend: 0x0, symName: __ZNSt3__117__compressed_pairINS_12basic_stringIcNS_11char_traitsIcEENS_9allocatorIcEEE5__repES5_EC2B7v160006INS_18__default_init_tagESA_EEOT_OT0_, symObjAddr: 0x1868, symBinAddr: 0x100003010, symSize: 0x3C }
  - { offsetInCU: 0x34360, offset: 0x34360, size: 0x8, addend: 0x0, symName: __ZNSt3__122__compressed_pair_elemINS_12basic_stringIcNS_11char_traitsIcEENS_9allocatorIcEEE5__repELi0ELb0EEC2B7v160006ENS_18__default_init_tagE, symObjAddr: 0x18A4, symBinAddr: 0x10000304C, symSize: 0x14 }
  - { offsetInCU: 0x34394, offset: 0x34394, size: 0x8, addend: 0x0, symName: __ZNSt3__122__compressed_pair_elemINS_9allocatorIcEELi1ELb1EEC2B7v160006ENS_18__default_init_tagE, symObjAddr: 0x18B8, symBinAddr: 0x100003060, symSize: 0x2C }
  - { offsetInCU: 0x343C8, offset: 0x343C8, size: 0x8, addend: 0x0, symName: __ZNSt3__19allocatorIcEC2B7v160006Ev, symObjAddr: 0x18E4, symBinAddr: 0x10000308C, symSize: 0x2C }
  - { offsetInCU: 0x343F2, offset: 0x343F2, size: 0x8, addend: 0x0, symName: __ZNSt3__116__non_trivial_ifILb1ENS_9allocatorIcEEEC2B7v160006Ev, symObjAddr: 0x1910, symBinAddr: 0x1000030B8, symSize: 0x14 }
  - { offsetInCU: 0x3441C, offset: 0x3441C, size: 0x8, addend: 0x0, symName: __ZNSt3__16chrono8durationIxNS_5ratioILl1ELl1EEEEC2B7v160006IiEERKT_PNS_9enable_ifIXaasr14is_convertibleIS8_xEE5valueooL_ZNS_17integral_constantIbLb0EE5valueEEntsr23treat_as_floating_pointIS6_EE5valueEvE4typeE, symObjAddr: 0x1954, symBinAddr: 0x1000030FC, symSize: 0x28 }
  - { offsetInCU: 0x34484, offset: 0x34484, size: 0x8, addend: 0x0, symName: __ZNKSt3__113basic_ostreamIcNS_11char_traitsIcEEE6sentrycvbB7v160006Ev, symObjAddr: 0x1B68, symBinAddr: 0x100003310, symSize: 0x1C }
  - { offsetInCU: 0x344AA, offset: 0x344AA, size: 0x8, addend: 0x0, symName: __ZNSt3__119ostreambuf_iteratorIcNS_11char_traitsIcEEEC1B7v160006ERNS_13basic_ostreamIcS2_EE, symObjAddr: 0x1DC4, symBinAddr: 0x10000356C, symSize: 0x34 }
  - { offsetInCU: 0x344E2, offset: 0x344E2, size: 0x8, addend: 0x0, symName: __ZNKSt3__18ios_base5flagsB7v160006Ev, symObjAddr: 0x1DF8, symBinAddr: 0x1000035A0, symSize: 0x18 }
  - { offsetInCU: 0x3450A, offset: 0x3450A, size: 0x8, addend: 0x0, symName: __ZNKSt3__19basic_iosIcNS_11char_traitsIcEEE4fillB7v160006Ev, symObjAddr: 0x1E10, symBinAddr: 0x1000035B8, symSize: 0x64 }
  - { offsetInCU: 0x34532, offset: 0x34532, size: 0x8, addend: 0x0, symName: __ZNKSt3__119ostreambuf_iteratorIcNS_11char_traitsIcEEE6failedB7v160006Ev, symObjAddr: 0x1E74, symBinAddr: 0x10000361C, symSize: 0x24 }
  - { offsetInCU: 0x34558, offset: 0x34558, size: 0x8, addend: 0x0, symName: __ZNSt3__19basic_iosIcNS_11char_traitsIcEEE8setstateB7v160006Ej, symObjAddr: 0x1E98, symBinAddr: 0x100003640, symSize: 0x2C }
  - { offsetInCU: 0x3458D, offset: 0x3458D, size: 0x8, addend: 0x0, symName: __ZNKSt3__18ios_base5widthB7v160006Ev, symObjAddr: 0x1EC4, symBinAddr: 0x10000366C, symSize: 0x18 }
  - { offsetInCU: 0x345B5, offset: 0x345B5, size: 0x8, addend: 0x0, symName: __ZNSt3__115basic_streambufIcNS_11char_traitsIcEEE5sputnB7v160006EPKcl, symObjAddr: 0x1EDC, symBinAddr: 0x100003684, symSize: 0x3C }
  - { offsetInCU: 0x345F7, offset: 0x345F7, size: 0x8, addend: 0x0, symName: __ZNSt3__112basic_stringIcNS_11char_traitsIcEENS_9allocatorIcEEEC1B7v160006Emc, symObjAddr: 0x1F18, symBinAddr: 0x1000036C0, symSize: 0x3C }
  - { offsetInCU: 0x3463F, offset: 0x3463F, size: 0x8, addend: 0x0, symName: __ZNSt3__112basic_stringIcNS_11char_traitsIcEENS_9allocatorIcEEE4dataB7v160006Ev, symObjAddr: 0x1F54, symBinAddr: 0x1000036FC, symSize: 0x28 }
  - { offsetInCU: 0x34665, offset: 0x34665, size: 0x8, addend: 0x0, symName: __ZNSt3__18ios_base5widthB7v160006El, symObjAddr: 0x1F7C, symBinAddr: 0x100003724, symSize: 0x2C }
  - { offsetInCU: 0x346AB, offset: 0x346AB, size: 0x8, addend: 0x0, symName: __ZNSt3__112basic_stringIcNS_11char_traitsIcEENS_9allocatorIcEEEC2B7v160006Emc, symObjAddr: 0x1FA8, symBinAddr: 0x100003750, symSize: 0x54 }
  - { offsetInCU: 0x346F3, offset: 0x346F3, size: 0x8, addend: 0x0, symName: __ZNSt3__112basic_stringIcNS_11char_traitsIcEENS_9allocatorIcEEE13__get_pointerB7v160006Ev, symObjAddr: 0x1FFC, symBinAddr: 0x1000037A4, symSize: 0x54 }
  - { offsetInCU: 0x34719, offset: 0x34719, size: 0x8, addend: 0x0, symName: __ZNKSt3__112basic_stringIcNS_11char_traitsIcEENS_9allocatorIcEEE9__is_longB7v160006Ev, symObjAddr: 0x2050, symBinAddr: 0x1000037F8, symSize: 0x38 }
  - { offsetInCU: 0x3473F, offset: 0x3473F, size: 0x8, addend: 0x0, symName: __ZNSt3__112basic_stringIcNS_11char_traitsIcEENS_9allocatorIcEEE18__get_long_pointerB7v160006Ev, symObjAddr: 0x2088, symBinAddr: 0x100003830, symSize: 0x28 }
  - { offsetInCU: 0x34765, offset: 0x34765, size: 0x8, addend: 0x0, symName: __ZNSt3__112basic_stringIcNS_11char_traitsIcEENS_9allocatorIcEEE19__get_short_pointerB7v160006Ev, symObjAddr: 0x20B0, symBinAddr: 0x100003858, symSize: 0x28 }
  - { offsetInCU: 0x3478B, offset: 0x3478B, size: 0x8, addend: 0x0, symName: __ZNKSt3__117__compressed_pairINS_12basic_stringIcNS_11char_traitsIcEENS_9allocatorIcEEE5__repES5_E5firstB7v160006Ev, symObjAddr: 0x20D8, symBinAddr: 0x100003880, symSize: 0x24 }
  - { offsetInCU: 0x347B1, offset: 0x347B1, size: 0x8, addend: 0x0, symName: __ZNKSt3__122__compressed_pair_elemINS_12basic_stringIcNS_11char_traitsIcEENS_9allocatorIcEEE5__repELi0ELb0EE5__getB7v160006Ev, symObjAddr: 0x20FC, symBinAddr: 0x1000038A4, symSize: 0x14 }
  - { offsetInCU: 0x347D7, offset: 0x347D7, size: 0x8, addend: 0x0, symName: __ZNSt3__117__compressed_pairINS_12basic_stringIcNS_11char_traitsIcEENS_9allocatorIcEEE5__repES5_E5firstB7v160006Ev, symObjAddr: 0x2110, symBinAddr: 0x1000038B8, symSize: 0x24 }
  - { offsetInCU: 0x347FD, offset: 0x347FD, size: 0x8, addend: 0x0, symName: __ZNSt3__122__compressed_pair_elemINS_12basic_stringIcNS_11char_traitsIcEENS_9allocatorIcEEE5__repELi0ELb0EE5__getB7v160006Ev, symObjAddr: 0x2134, symBinAddr: 0x1000038DC, symSize: 0x14 }
  - { offsetInCU: 0x34823, offset: 0x34823, size: 0x8, addend: 0x0, symName: __ZNSt3__114pointer_traitsIPcE10pointer_toB7v160006ERc, symObjAddr: 0x2148, symBinAddr: 0x1000038F0, symSize: 0x14 }
  - { offsetInCU: 0x34846, offset: 0x34846, size: 0x8, addend: 0x0, symName: __ZNSt3__119ostreambuf_iteratorIcNS_11char_traitsIcEEEC2B7v160006ERNS_13basic_ostreamIcS2_EE, symObjAddr: 0x215C, symBinAddr: 0x100003904, symSize: 0x54 }
  - { offsetInCU: 0x3487E, offset: 0x3487E, size: 0x8, addend: 0x0, symName: __ZNKSt3__19basic_iosIcNS_11char_traitsIcEEE5rdbufB7v160006Ev, symObjAddr: 0x21B0, symBinAddr: 0x100003958, symSize: 0x24 }
  - { offsetInCU: 0x348A6, offset: 0x348A6, size: 0x8, addend: 0x0, symName: __ZNKSt3__18ios_base5rdbufB7v160006Ev, symObjAddr: 0x21D4, symBinAddr: 0x10000397C, symSize: 0x18 }
  - { offsetInCU: 0x348CC, offset: 0x348CC, size: 0x8, addend: 0x0, symName: __ZNSt3__111char_traitsIcE11eq_int_typeEii, symObjAddr: 0x21EC, symBinAddr: 0x100003994, symSize: 0x28 }
  - { offsetInCU: 0x348FD, offset: 0x348FD, size: 0x8, addend: 0x0, symName: __ZNSt3__111char_traitsIcE3eofEv, symObjAddr: 0x2214, symBinAddr: 0x1000039BC, symSize: 0x8 }
  - { offsetInCU: 0x34911, offset: 0x34911, size: 0x8, addend: 0x0, symName: __ZNKSt3__19basic_iosIcNS_11char_traitsIcEEE5widenB7v160006Ec, symObjAddr: 0x221C, symBinAddr: 0x1000039C4, symSize: 0x84 }
  - { offsetInCU: 0x3497F, offset: 0x3497F, size: 0x8, addend: 0x0, symName: __ZNKSt3__15ctypeIcE5widenB7v160006Ec, symObjAddr: 0x22CC, symBinAddr: 0x100003A74, symSize: 0x38 }
  - { offsetInCU: 0x349B4, offset: 0x349B4, size: 0x8, addend: 0x0, symName: __ZNSt3__18ios_base8setstateB7v160006Ej, symObjAddr: 0x2304, symBinAddr: 0x100003AAC, symSize: 0x34 }
  - { offsetInCU: 0x349EB, offset: 0x349EB, size: 0x8, addend: 0x0, symName: __ZNKSt3__113__atomic_baseImLb0EE4loadB7v160006ENS_12memory_orderE, symObjAddr: 0x2338, symBinAddr: 0x100003AE0, symSize: 0x2C }
  - { offsetInCU: 0x34A20, offset: 0x34A20, size: 0x8, addend: 0x0, symName: __ZNKSt3__113__atomic_baseImLb0EEcvmB7v160006Ev, symObjAddr: 0x2364, symBinAddr: 0x100003B0C, symSize: 0x28 }
  - { offsetInCU: 0x34A46, offset: 0x34A46, size: 0x8, addend: 0x0, symName: __ZNSt3__113__atomic_baseImLb0EE5storeB7v160006EmNS_12memory_orderE, symObjAddr: 0x238C, symBinAddr: 0x100003B34, symSize: 0x34 }
  - { offsetInCU: 0x34A8A, offset: 0x34A8A, size: 0x8, addend: 0x0, symName: __ZN3SSSIfEC2Emhi7SSS_FMT, symObjAddr: 0x24C4, symBinAddr: 0x100003C6C, symSize: 0x1B0 }
  - { offsetInCU: 0x34AEC, offset: 0x34AEC, size: 0x8, addend: 0x0, symName: __ZN16CoreAudioBackendIfEC1Eihhmm7SSS_FMT, symObjAddr: 0x2674, symBinAddr: 0x100003E1C, symSize: 0x5C }
  - { offsetInCU: 0x34B6A, offset: 0x34B6A, size: 0x8, addend: 0x0, symName: __ZN11SSS_BackendIfEC1Ehii7SSS_FMTm, symObjAddr: 0x26D0, symBinAddr: 0x100003E78, symSize: 0x54 }
  - { offsetInCU: 0x34BDA, offset: 0x34BDA, size: 0x8, addend: 0x0, symName: __ZN21CoreAudioInputBackendIfEC1Eihhmm7SSS_FMT, symObjAddr: 0x2724, symBinAddr: 0x100003ECC, symSize: 0x5C }
  - { offsetInCU: 0x34C58, offset: 0x34C58, size: 0x8, addend: 0x0, symName: __ZN16CoreAudioBackendIfEC2Eihhmm7SSS_FMT, symObjAddr: 0x2780, symBinAddr: 0x100003F28, symSize: 0xE4 }
  - { offsetInCU: 0x34CD6, offset: 0x34CD6, size: 0x8, addend: 0x0, symName: __ZNSt3__16vectorIjNS_9allocatorIjEEEC1B7v160006Ev, symObjAddr: 0x2864, symBinAddr: 0x10000400C, symSize: 0x2C }
  - { offsetInCU: 0x34D00, offset: 0x34D00, size: 0x8, addend: 0x0, symName: __ZNSt3__16vectorIjNS_9allocatorIjEEEC2B7v160006Ev, symObjAddr: 0x2890, symBinAddr: 0x100004038, symSize: 0x58 }
  - { offsetInCU: 0x34D30, offset: 0x34D30, size: 0x8, addend: 0x0, symName: __ZNSt3__117__compressed_pairIPjNS_9allocatorIjEEEC1B7v160006IDnNS_18__default_init_tagEEEOT_OT0_, symObjAddr: 0x28E8, symBinAddr: 0x100004090, symSize: 0x3C }
  - { offsetInCU: 0x34D88, offset: 0x34D88, size: 0x8, addend: 0x0, symName: __ZNSt3__117__compressed_pairIPjNS_9allocatorIjEEEC2B7v160006IDnNS_18__default_init_tagEEEOT_OT0_, symObjAddr: 0x2934, symBinAddr: 0x1000040DC, symSize: 0x40 }
  - { offsetInCU: 0x34DE0, offset: 0x34DE0, size: 0x8, addend: 0x0, symName: __ZNSt3__122__compressed_pair_elemIPjLi0ELb0EEC2B7v160006IDnvEEOT_, symObjAddr: 0x2974, symBinAddr: 0x10000411C, symSize: 0x1C }
  - { offsetInCU: 0x34E22, offset: 0x34E22, size: 0x8, addend: 0x0, symName: __ZNSt3__122__compressed_pair_elemINS_9allocatorIjEELi1ELb1EEC2B7v160006ENS_18__default_init_tagE, symObjAddr: 0x2990, symBinAddr: 0x100004138, symSize: 0x2C }
  - { offsetInCU: 0x34E56, offset: 0x34E56, size: 0x8, addend: 0x0, symName: __ZNSt3__19allocatorIjEC2B7v160006Ev, symObjAddr: 0x29BC, symBinAddr: 0x100004164, symSize: 0x2C }
  - { offsetInCU: 0x34E80, offset: 0x34E80, size: 0x8, addend: 0x0, symName: __ZNSt3__116__non_trivial_ifILb1ENS_9allocatorIjEEEC2B7v160006Ev, symObjAddr: 0x29E8, symBinAddr: 0x100004190, symSize: 0x14 }
  - { offsetInCU: 0x34EAA, offset: 0x34EAA, size: 0x8, addend: 0x0, symName: __ZN11SSS_BackendIfEC2Ehii7SSS_FMTm, symObjAddr: 0x29FC, symBinAddr: 0x1000041A4, symSize: 0xD4 }
  - { offsetInCU: 0x34F1A, offset: 0x34F1A, size: 0x8, addend: 0x0, symName: __ZN9SSS_MixerIfEC1Emb, symObjAddr: 0x2AD0, symBinAddr: 0x100004278, symSize: 0x48 }
  - { offsetInCU: 0x34F60, offset: 0x34F60, size: 0x8, addend: 0x0, symName: __ZN9SSS_MixerIfEC2Emb, symObjAddr: 0x2B18, symBinAddr: 0x1000042C0, symSize: 0x188 }
  - { offsetInCU: 0x34FA6, offset: 0x34FA6, size: 0x8, addend: 0x0, symName: __ZNSt3__16vectorIfNS_9allocatorIfEEEC1B7v160006Ev, symObjAddr: 0x2CA0, symBinAddr: 0x100004448, symSize: 0x2C }
  - { offsetInCU: 0x34FD0, offset: 0x34FD0, size: 0x8, addend: 0x0, symName: __ZNSt3__16vectorIP8SSS_NodeIfENS_9allocatorIS3_EEEC1B7v160006Ev, symObjAddr: 0x2CCC, symBinAddr: 0x100004474, symSize: 0x2C }
  - { offsetInCU: 0x34FFA, offset: 0x34FFA, size: 0x8, addend: 0x0, symName: __ZNSt3__113unordered_mapINS_12basic_stringIcNS_11char_traitsIcEENS_9allocatorIcEEEEP8SSS_NodeIfENS_4hashIS6_EENS_8equal_toIS6_EENS4_INS_4pairIKS6_S9_EEEEEC1B7v160006Ev, symObjAddr: 0x2CF8, symBinAddr: 0x1000044A0, symSize: 0x2C }
  - { offsetInCU: 0x35024, offset: 0x35024, size: 0x8, addend: 0x0, symName: __ZNSt3__18functionIFvP9SSS_MixerIfEPfmEEC1B7v160006Ev, symObjAddr: 0x2D24, symBinAddr: 0x1000044CC, symSize: 0x2C }
  - { offsetInCU: 0x3504E, offset: 0x3504E, size: 0x8, addend: 0x0, symName: __ZN10SSS_BufferIfEC1Em, symObjAddr: 0x2D50, symBinAddr: 0x1000044F8, symSize: 0x34 }
  - { offsetInCU: 0x35086, offset: 0x35086, size: 0x8, addend: 0x0, symName: __ZN14SSS_ThreadPoolC1Ej, symObjAddr: 0x2D84, symBinAddr: 0x10000452C, symSize: 0x34 }
  - { offsetInCU: 0x350BE, offset: 0x350BE, size: 0x8, addend: 0x0, symName: __ZNSt3__113unordered_mapINS_12basic_stringIcNS_11char_traitsIcEENS_9allocatorIcEEEEP8SSS_NodeIfENS_4hashIS6_EENS_8equal_toIS6_EENS4_INS_4pairIKS6_S9_EEEEED1B7v160006Ev, symObjAddr: 0x2DB8, symBinAddr: 0x100004560, symSize: 0x2C }
  - { offsetInCU: 0x350E8, offset: 0x350E8, size: 0x8, addend: 0x0, symName: __ZNSt3__16vectorIP8SSS_NodeIfENS_9allocatorIS3_EEED1B7v160006Ev, symObjAddr: 0x2DE4, symBinAddr: 0x10000458C, symSize: 0x2C }
  - { offsetInCU: 0x35112, offset: 0x35112, size: 0x8, addend: 0x0, symName: __ZNSt3__16vectorIfNS_9allocatorIfEEED1B7v160006Ev, symObjAddr: 0x2E10, symBinAddr: 0x1000045B8, symSize: 0x2C }
  - { offsetInCU: 0x3513C, offset: 0x3513C, size: 0x8, addend: 0x0, symName: __ZNSt3__16vectorIfNS_9allocatorIfEEEC2B7v160006Ev, symObjAddr: 0x2E3C, symBinAddr: 0x1000045E4, symSize: 0x58 }
  - { offsetInCU: 0x35166, offset: 0x35166, size: 0x8, addend: 0x0, symName: __ZNSt3__117__compressed_pairIPfNS_9allocatorIfEEEC1B7v160006IDnNS_18__default_init_tagEEEOT_OT0_, symObjAddr: 0x2E94, symBinAddr: 0x10000463C, symSize: 0x3C }
  - { offsetInCU: 0x351BE, offset: 0x351BE, size: 0x8, addend: 0x0, symName: __ZNSt3__117__compressed_pairIPfNS_9allocatorIfEEEC2B7v160006IDnNS_18__default_init_tagEEEOT_OT0_, symObjAddr: 0x2EE0, symBinAddr: 0x100004688, symSize: 0x40 }
  - { offsetInCU: 0x35216, offset: 0x35216, size: 0x8, addend: 0x0, symName: __ZNSt3__122__compressed_pair_elemIPfLi0ELb0EEC2B7v160006IDnvEEOT_, symObjAddr: 0x2F20, symBinAddr: 0x1000046C8, symSize: 0x1C }
  - { offsetInCU: 0x35258, offset: 0x35258, size: 0x8, addend: 0x0, symName: __ZNSt3__122__compressed_pair_elemINS_9allocatorIfEELi1ELb1EEC2B7v160006ENS_18__default_init_tagE, symObjAddr: 0x2F3C, symBinAddr: 0x1000046E4, symSize: 0x2C }
  - { offsetInCU: 0x3528C, offset: 0x3528C, size: 0x8, addend: 0x0, symName: __ZNSt3__19allocatorIfEC2B7v160006Ev, symObjAddr: 0x2F68, symBinAddr: 0x100004710, symSize: 0x2C }
  - { offsetInCU: 0x352B6, offset: 0x352B6, size: 0x8, addend: 0x0, symName: __ZNSt3__116__non_trivial_ifILb1ENS_9allocatorIfEEEC2B7v160006Ev, symObjAddr: 0x2F94, symBinAddr: 0x10000473C, symSize: 0x14 }
  - { offsetInCU: 0x352E0, offset: 0x352E0, size: 0x8, addend: 0x0, symName: __ZNSt3__16vectorIP8SSS_NodeIfENS_9allocatorIS3_EEEC2B7v160006Ev, symObjAddr: 0x2FA8, symBinAddr: 0x100004750, symSize: 0x58 }
  - { offsetInCU: 0x3530A, offset: 0x3530A, size: 0x8, addend: 0x0, symName: __ZNSt3__117__compressed_pairIPP8SSS_NodeIfENS_9allocatorIS3_EEEC1B7v160006IDnNS_18__default_init_tagEEEOT_OT0_, symObjAddr: 0x3000, symBinAddr: 0x1000047A8, symSize: 0x3C }
  - { offsetInCU: 0x35362, offset: 0x35362, size: 0x8, addend: 0x0, symName: __ZNSt3__117__compressed_pairIPP8SSS_NodeIfENS_9allocatorIS3_EEEC2B7v160006IDnNS_18__default_init_tagEEEOT_OT0_, symObjAddr: 0x304C, symBinAddr: 0x1000047F4, symSize: 0x40 }
  - { offsetInCU: 0x353BA, offset: 0x353BA, size: 0x8, addend: 0x0, symName: __ZNSt3__122__compressed_pair_elemIPP8SSS_NodeIfELi0ELb0EEC2B7v160006IDnvEEOT_, symObjAddr: 0x308C, symBinAddr: 0x100004834, symSize: 0x1C }
  - { offsetInCU: 0x353FC, offset: 0x353FC, size: 0x8, addend: 0x0, symName: __ZNSt3__122__compressed_pair_elemINS_9allocatorIP8SSS_NodeIfEEELi1ELb1EEC2B7v160006ENS_18__default_init_tagE, symObjAddr: 0x30A8, symBinAddr: 0x100004850, symSize: 0x2C }
  - { offsetInCU: 0x35430, offset: 0x35430, size: 0x8, addend: 0x0, symName: __ZNSt3__19allocatorIP8SSS_NodeIfEEC2B7v160006Ev, symObjAddr: 0x30D4, symBinAddr: 0x10000487C, symSize: 0x2C }
  - { offsetInCU: 0x3545A, offset: 0x3545A, size: 0x8, addend: 0x0, symName: __ZNSt3__116__non_trivial_ifILb1ENS_9allocatorIP8SSS_NodeIfEEEEC2B7v160006Ev, symObjAddr: 0x3100, symBinAddr: 0x1000048A8, symSize: 0x14 }
  - { offsetInCU: 0x35484, offset: 0x35484, size: 0x8, addend: 0x0, symName: __ZNSt3__113unordered_mapINS_12basic_stringIcNS_11char_traitsIcEENS_9allocatorIcEEEEP8SSS_NodeIfENS_4hashIS6_EENS_8equal_toIS6_EENS4_INS_4pairIKS6_S9_EEEEEC2B7v160006Ev, symObjAddr: 0x3114, symBinAddr: 0x1000048BC, symSize: 0x3C }
  - { offsetInCU: 0x354AE, offset: 0x354AE, size: 0x8, addend: 0x0, symName: __ZNSt3__112__hash_tableINS_17__hash_value_typeINS_12basic_stringIcNS_11char_traitsIcEENS_9allocatorIcEEEEP8SSS_NodeIfEEENS_22__unordered_map_hasherIS7_SB_NS_4hashIS7_EENS_8equal_toIS7_EELb1EEENS_21__unordered_map_equalIS7_SB_SG_SE_Lb1EEENS5_ISB_EEEC1Ev, symObjAddr: 0x3150, symBinAddr: 0x1000048F8, symSize: 0x2C }
  - { offsetInCU: 0x354DA, offset: 0x354DA, size: 0x8, addend: 0x0, symName: __ZNSt3__112__hash_tableINS_17__hash_value_typeINS_12basic_stringIcNS_11char_traitsIcEENS_9allocatorIcEEEEP8SSS_NodeIfEEENS_22__unordered_map_hasherIS7_SB_NS_4hashIS7_EENS_8equal_toIS7_EELb1EEENS_21__unordered_map_equalIS7_SB_SG_SE_Lb1EEENS5_ISB_EEEC2Ev, symObjAddr: 0x318C, symBinAddr: 0x100004934, symSize: 0x7C }
  - { offsetInCU: 0x35506, offset: 0x35506, size: 0x8, addend: 0x0, symName: __ZNSt3__110unique_ptrIA_PNS_16__hash_node_baseIPNS_11__hash_nodeINS_17__hash_value_typeINS_12basic_stringIcNS_11char_traitsIcEENS_9allocatorIcEEEEP8SSS_NodeIfEEEPvEEEENS_25__bucket_list_deallocatorINS7_ISI_EEEEEC1B7v160006ILb1EvEEv, symObjAddr: 0x3208, symBinAddr: 0x1000049B0, symSize: 0x2C }
  - { offsetInCU: 0x3553B, offset: 0x3553B, size: 0x8, addend: 0x0, symName: __ZNSt3__117__compressed_pairINS_16__hash_node_baseIPNS_11__hash_nodeINS_17__hash_value_typeINS_12basic_stringIcNS_11char_traitsIcEENS_9allocatorIcEEEEP8SSS_NodeIfEEEPvEEEENS7_ISF_EEEC1B7v160006ILb1EvEEv, symObjAddr: 0x3234, symBinAddr: 0x1000049DC, symSize: 0x2C }
  - { offsetInCU: 0x35576, offset: 0x35576, size: 0x8, addend: 0x0, symName: __ZNSt3__117__compressed_pairImNS_22__unordered_map_hasherINS_12basic_stringIcNS_11char_traitsIcEENS_9allocatorIcEEEENS_17__hash_value_typeIS7_P8SSS_NodeIfEEENS_4hashIS7_EENS_8equal_toIS7_EELb1EEEEC1B7v160006IiNS_18__default_init_tagEEEOT_OT0_, symObjAddr: 0x3260, symBinAddr: 0x100004A08, symSize: 0x3C }
  - { offsetInCU: 0x355D4, offset: 0x355D4, size: 0x8, addend: 0x0, symName: __ZNSt3__117__compressed_pairIfNS_21__unordered_map_equalINS_12basic_stringIcNS_11char_traitsIcEENS_9allocatorIcEEEENS_17__hash_value_typeIS7_P8SSS_NodeIfEEENS_8equal_toIS7_EENS_4hashIS7_EELb1EEEEC1B7v160006IfNS_18__default_init_tagEEEOT_OT0_, symObjAddr: 0x329C, symBinAddr: 0x100004A44, symSize: 0x3C }
  - { offsetInCU: 0x3562C, offset: 0x3562C, size: 0x8, addend: 0x0, symName: __ZNSt3__110unique_ptrIA_PNS_16__hash_node_baseIPNS_11__hash_nodeINS_17__hash_value_typeINS_12basic_stringIcNS_11char_traitsIcEENS_9allocatorIcEEEEP8SSS_NodeIfEEEPvEEEENS_25__bucket_list_deallocatorINS7_ISI_EEEEEC2B7v160006ILb1EvEEv, symObjAddr: 0x32D8, symBinAddr: 0x100004A80, symSize: 0x3C }
  - { offsetInCU: 0x35667, offset: 0x35667, size: 0x8, addend: 0x0, symName: __ZNSt3__117__compressed_pairIPPNS_16__hash_node_baseIPNS_11__hash_nodeINS_17__hash_value_typeINS_12basic_stringIcNS_11char_traitsIcEENS_9allocatorIcEEEEP8SSS_NodeIfEEEPvEEEENS_25__bucket_list_deallocatorINS7_ISI_EEEEEC1B7v160006INS_16__value_init_tagESP_EEOT_OT0_, symObjAddr: 0x3314, symBinAddr: 0x100004ABC, symSize: 0x3C }
  - { offsetInCU: 0x356BF, offset: 0x356BF, size: 0x8, addend: 0x0, symName: __ZNSt3__117__compressed_pairIPPNS_16__hash_node_baseIPNS_11__hash_nodeINS_17__hash_value_typeINS_12basic_stringIcNS_11char_traitsIcEENS_9allocatorIcEEEEP8SSS_NodeIfEEEPvEEEENS_25__bucket_list_deallocatorINS7_ISI_EEEEEC2B7v160006INS_16__value_init_tagESP_EEOT_OT0_, symObjAddr: 0x3350, symBinAddr: 0x100004AF8, symSize: 0x40 }
  - { offsetInCU: 0x35717, offset: 0x35717, size: 0x8, addend: 0x0, symName: __ZNSt3__122__compressed_pair_elemIPPNS_16__hash_node_baseIPNS_11__hash_nodeINS_17__hash_value_typeINS_12basic_stringIcNS_11char_traitsIcEENS_9allocatorIcEEEEP8SSS_NodeIfEEEPvEEEELi0ELb0EEC2B7v160006ENS_16__value_init_tagE, symObjAddr: 0x3390, symBinAddr: 0x100004B38, symSize: 0x18 }
  - { offsetInCU: 0x3574B, offset: 0x3574B, size: 0x8, addend: 0x0, symName: __ZNSt3__122__compressed_pair_elemINS_25__bucket_list_deallocatorINS_9allocatorIPNS_16__hash_node_baseIPNS_11__hash_nodeINS_17__hash_value_typeINS_12basic_stringIcNS_11char_traitsIcEENS2_IcEEEEP8SSS_NodeIfEEEPvEEEEEEEELi1ELb0EEC2B7v160006ENS_16__value_init_tagE, symObjAddr: 0x33A8, symBinAddr: 0x100004B50, symSize: 0x2C }
  - { offsetInCU: 0x3577F, offset: 0x3577F, size: 0x8, addend: 0x0, symName: __ZNSt3__125__bucket_list_deallocatorINS_9allocatorIPNS_16__hash_node_baseIPNS_11__hash_nodeINS_17__hash_value_typeINS_12basic_stringIcNS_11char_traitsIcEENS1_IcEEEEP8SSS_NodeIfEEEPvEEEEEEEC1B7v160006Ev, symObjAddr: 0x33D4, symBinAddr: 0x100004B7C, symSize: 0x2C }
  - { offsetInCU: 0x357A9, offset: 0x357A9, size: 0x8, addend: 0x0, symName: __ZNSt3__125__bucket_list_deallocatorINS_9allocatorIPNS_16__hash_node_baseIPNS_11__hash_nodeINS_17__hash_value_typeINS_12basic_stringIcNS_11char_traitsIcEENS1_IcEEEEP8SSS_NodeIfEEEPvEEEEEEEC2B7v160006Ev, symObjAddr: 0x3400, symBinAddr: 0x100004BA8, symSize: 0x40 }
  - { offsetInCU: 0x357D3, offset: 0x357D3, size: 0x8, addend: 0x0, symName: __ZNSt3__117__compressed_pairImNS_9allocatorIPNS_16__hash_node_baseIPNS_11__hash_nodeINS_17__hash_value_typeINS_12basic_stringIcNS_11char_traitsIcEENS1_IcEEEEP8SSS_NodeIfEEEPvEEEEEEEC1B7v160006IiNS_18__default_init_tagEEEOT_OT0_, symObjAddr: 0x3440, symBinAddr: 0x100004BE8, symSize: 0x3C }
  - { offsetInCU: 0x3582B, offset: 0x3582B, size: 0x8, addend: 0x0, symName: __ZNSt3__117__compressed_pairImNS_9allocatorIPNS_16__hash_node_baseIPNS_11__hash_nodeINS_17__hash_value_typeINS_12basic_stringIcNS_11char_traitsIcEENS1_IcEEEEP8SSS_NodeIfEEEPvEEEEEEEC2B7v160006IiNS_18__default_init_tagEEEOT_OT0_, symObjAddr: 0x347C, symBinAddr: 0x100004C24, symSize: 0x40 }
  - { offsetInCU: 0x35883, offset: 0x35883, size: 0x8, addend: 0x0, symName: __ZNSt3__122__compressed_pair_elemImLi0ELb0EEC2B7v160006IivEEOT_, symObjAddr: 0x34BC, symBinAddr: 0x100004C64, symSize: 0x24 }
  - { offsetInCU: 0x358C5, offset: 0x358C5, size: 0x8, addend: 0x0, symName: __ZNSt3__122__compressed_pair_elemINS_9allocatorIPNS_16__hash_node_baseIPNS_11__hash_nodeINS_17__hash_value_typeINS_12basic_stringIcNS_11char_traitsIcEENS1_IcEEEEP8SSS_NodeIfEEEPvEEEEEELi1ELb1EEC2B7v160006ENS_18__default_init_tagE, symObjAddr: 0x34E0, symBinAddr: 0x100004C88, symSize: 0x2C }
  - { offsetInCU: 0x358F9, offset: 0x358F9, size: 0x8, addend: 0x0, symName: __ZNSt3__19allocatorIPNS_16__hash_node_baseIPNS_11__hash_nodeINS_17__hash_value_typeINS_12basic_stringIcNS_11char_traitsIcEENS0_IcEEEEP8SSS_NodeIfEEEPvEEEEEC2B7v160006Ev, symObjAddr: 0x350C, symBinAddr: 0x100004CB4, symSize: 0x2C }
  - { offsetInCU: 0x35923, offset: 0x35923, size: 0x8, addend: 0x0, symName: __ZNSt3__116__non_trivial_ifILb1ENS_9allocatorIPNS_16__hash_node_baseIPNS_11__hash_nodeINS_17__hash_value_typeINS_12basic_stringIcNS_11char_traitsIcEENS1_IcEEEEP8SSS_NodeIfEEEPvEEEEEEEC2B7v160006Ev, symObjAddr: 0x3538, symBinAddr: 0x100004CE0, symSize: 0x14 }
  - { offsetInCU: 0x3594D, offset: 0x3594D, size: 0x8, addend: 0x0, symName: __ZNSt3__117__compressed_pairINS_16__hash_node_baseIPNS_11__hash_nodeINS_17__hash_value_typeINS_12basic_stringIcNS_11char_traitsIcEENS_9allocatorIcEEEEP8SSS_NodeIfEEEPvEEEENS7_ISF_EEEC2B7v160006ILb1EvEEv, symObjAddr: 0x354C, symBinAddr: 0x100004CF4, symSize: 0x34 }
  - { offsetInCU: 0x35982, offset: 0x35982, size: 0x8, addend: 0x0, symName: __ZNSt3__122__compressed_pair_elemINS_16__hash_node_baseIPNS_11__hash_nodeINS_17__hash_value_typeINS_12basic_stringIcNS_11char_traitsIcEENS_9allocatorIcEEEEP8SSS_NodeIfEEEPvEEEELi0ELb0EEC2B7v160006ENS_16__value_init_tagE, symObjAddr: 0x3580, symBinAddr: 0x100004D28, symSize: 0x2C }
  - { offsetInCU: 0x359B6, offset: 0x359B6, size: 0x8, addend: 0x0, symName: __ZNSt3__122__compressed_pair_elemINS_9allocatorINS_11__hash_nodeINS_17__hash_value_typeINS_12basic_stringIcNS_11char_traitsIcEENS1_IcEEEEP8SSS_NodeIfEEEPvEEEELi1ELb1EEC2B7v160006ENS_16__value_init_tagE, symObjAddr: 0x35AC, symBinAddr: 0x100004D54, symSize: 0x2C }
  - { offsetInCU: 0x359EA, offset: 0x359EA, size: 0x8, addend: 0x0, symName: __ZNSt3__116__hash_node_baseIPNS_11__hash_nodeINS_17__hash_value_typeINS_12basic_stringIcNS_11char_traitsIcEENS_9allocatorIcEEEEP8SSS_NodeIfEEEPvEEEC1B7v160006Ev, symObjAddr: 0x35D8, symBinAddr: 0x100004D80, symSize: 0x2C }
  - { offsetInCU: 0x35A14, offset: 0x35A14, size: 0x8, addend: 0x0, symName: __ZNSt3__116__hash_node_baseIPNS_11__hash_nodeINS_17__hash_value_typeINS_12basic_stringIcNS_11char_traitsIcEENS_9allocatorIcEEEEP8SSS_NodeIfEEEPvEEEC2B7v160006Ev, symObjAddr: 0x3604, symBinAddr: 0x100004DAC, symSize: 0x18 }
  - { offsetInCU: 0x35A3E, offset: 0x35A3E, size: 0x8, addend: 0x0, symName: __ZNSt3__19allocatorINS_11__hash_nodeINS_17__hash_value_typeINS_12basic_stringIcNS_11char_traitsIcEENS0_IcEEEEP8SSS_NodeIfEEEPvEEEC2B7v160006Ev, symObjAddr: 0x361C, symBinAddr: 0x100004DC4, symSize: 0x2C }
  - { offsetInCU: 0x35A68, offset: 0x35A68, size: 0x8, addend: 0x0, symName: __ZNSt3__116__non_trivial_ifILb1ENS_9allocatorINS_11__hash_nodeINS_17__hash_value_typeINS_12basic_stringIcNS_11char_traitsIcEENS1_IcEEEEP8SSS_NodeIfEEEPvEEEEEC2B7v160006Ev, symObjAddr: 0x3648, symBinAddr: 0x100004DF0, symSize: 0x14 }
  - { offsetInCU: 0x35A92, offset: 0x35A92, size: 0x8, addend: 0x0, symName: __ZNSt3__117__compressed_pairImNS_22__unordered_map_hasherINS_12basic_stringIcNS_11char_traitsIcEENS_9allocatorIcEEEENS_17__hash_value_typeIS7_P8SSS_NodeIfEEENS_4hashIS7_EENS_8equal_toIS7_EELb1EEEEC2B7v160006IiNS_18__default_init_tagEEEOT_OT0_, symObjAddr: 0x365C, symBinAddr: 0x100004E04, symSize: 0x40 }
  - { offsetInCU: 0x35AEA, offset: 0x35AEA, size: 0x8, addend: 0x0, symName: __ZNSt3__122__compressed_pair_elemINS_22__unordered_map_hasherINS_12basic_stringIcNS_11char_traitsIcEENS_9allocatorIcEEEENS_17__hash_value_typeIS7_P8SSS_NodeIfEEENS_4hashIS7_EENS_8equal_toIS7_EELb1EEELi1ELb1EEC2B7v160006ENS_18__default_init_tagE, symObjAddr: 0x369C, symBinAddr: 0x100004E44, symSize: 0x2C }
  - { offsetInCU: 0x35B1E, offset: 0x35B1E, size: 0x8, addend: 0x0, symName: __ZNSt3__122__unordered_map_hasherINS_12basic_stringIcNS_11char_traitsIcEENS_9allocatorIcEEEENS_17__hash_value_typeIS6_P8SSS_NodeIfEEENS_4hashIS6_EENS_8equal_toIS6_EELb1EEC2B7v160006Ev, symObjAddr: 0x36C8, symBinAddr: 0x100004E70, symSize: 0x14 }
  - { offsetInCU: 0x35B48, offset: 0x35B48, size: 0x8, addend: 0x0, symName: __ZNSt3__117__compressed_pairIfNS_21__unordered_map_equalINS_12basic_stringIcNS_11char_traitsIcEENS_9allocatorIcEEEENS_17__hash_value_typeIS7_P8SSS_NodeIfEEENS_8equal_toIS7_EENS_4hashIS7_EELb1EEEEC2B7v160006IfNS_18__default_init_tagEEEOT_OT0_, symObjAddr: 0x36DC, symBinAddr: 0x100004E84, symSize: 0x40 }
  - { offsetInCU: 0x35BA0, offset: 0x35BA0, size: 0x8, addend: 0x0, symName: __ZNSt3__122__compressed_pair_elemIfLi0ELb0EEC2B7v160006IfvEEOT_, symObjAddr: 0x371C, symBinAddr: 0x100004EC4, symSize: 0x24 }
  - { offsetInCU: 0x35BE2, offset: 0x35BE2, size: 0x8, addend: 0x0, symName: __ZNSt3__122__compressed_pair_elemINS_21__unordered_map_equalINS_12basic_stringIcNS_11char_traitsIcEENS_9allocatorIcEEEENS_17__hash_value_typeIS7_P8SSS_NodeIfEEENS_8equal_toIS7_EENS_4hashIS7_EELb1EEELi1ELb1EEC2B7v160006ENS_18__default_init_tagE, symObjAddr: 0x3740, symBinAddr: 0x100004EE8, symSize: 0x2C }
  - { offsetInCU: 0x35C16, offset: 0x35C16, size: 0x8, addend: 0x0, symName: __ZNSt3__121__unordered_map_equalINS_12basic_stringIcNS_11char_traitsIcEENS_9allocatorIcEEEENS_17__hash_value_typeIS6_P8SSS_NodeIfEEENS_8equal_toIS6_EENS_4hashIS6_EELb1EEC2B7v160006Ev, symObjAddr: 0x376C, symBinAddr: 0x100004F14, symSize: 0x14 }
  - { offsetInCU: 0x35C40, offset: 0x35C40, size: 0x8, addend: 0x0, symName: __ZNSt3__18functionIFvP9SSS_MixerIfEPfmEEC2B7v160006Ev, symObjAddr: 0x3780, symBinAddr: 0x100004F28, symSize: 0x2C }
  - { offsetInCU: 0x35C6A, offset: 0x35C6A, size: 0x8, addend: 0x0, symName: __ZNSt3__110__function12__value_funcIFvP9SSS_MixerIfEPfmEEC1B7v160006Ev, symObjAddr: 0x37AC, symBinAddr: 0x100004F54, symSize: 0x2C }
  - { offsetInCU: 0x35C94, offset: 0x35C94, size: 0x8, addend: 0x0, symName: __ZNSt3__110__function12__value_funcIFvP9SSS_MixerIfEPfmEEC2B7v160006Ev, symObjAddr: 0x37D8, symBinAddr: 0x100004F80, symSize: 0x18 }
  - { offsetInCU: 0x35CBE, offset: 0x35CBE, size: 0x8, addend: 0x0, symName: __ZN10SSS_BufferIfEC2Em, symObjAddr: 0x37F0, symBinAddr: 0x100004F98, symSize: 0x74 }
  - { offsetInCU: 0x35CF6, offset: 0x35CF6, size: 0x8, addend: 0x0, symName: __ZN14SSS_ThreadPoolC2Ej, symObjAddr: 0x3864, symBinAddr: 0x10000500C, symSize: 0xBC }
  - { offsetInCU: 0x35D2E, offset: 0x35D2E, size: 0x8, addend: 0x0, symName: __ZNSt3__15dequeINS_8functionIFvvEEENS_9allocatorIS3_EEEC1B7v160006Ev, symObjAddr: 0x3920, symBinAddr: 0x1000050C8, symSize: 0x2C }
  - { offsetInCU: 0x35D58, offset: 0x35D58, size: 0x8, addend: 0x0, symName: __ZNSt3__15dequeINS_6threadENS_9allocatorIS1_EEEC1B7v160006Ev, symObjAddr: 0x394C, symBinAddr: 0x1000050F4, symSize: 0x2C }
  - { offsetInCU: 0x35D82, offset: 0x35D82, size: 0x8, addend: 0x0, symName: __ZNSt3__15mutexC1B7v160006Ev, symObjAddr: 0x3978, symBinAddr: 0x100005120, symSize: 0x2C }
  - { offsetInCU: 0x35DAC, offset: 0x35DAC, size: 0x8, addend: 0x0, symName: __ZNSt3__118condition_variableC1B7v160006Ev, symObjAddr: 0x39A4, symBinAddr: 0x10000514C, symSize: 0x2C }
  - { offsetInCU: 0x35DD6, offset: 0x35DD6, size: 0x8, addend: 0x0, symName: __ZNSt3__16atomicIbEC1B7v160006Ev, symObjAddr: 0x39D0, symBinAddr: 0x100005178, symSize: 0x2C }
  - { offsetInCU: 0x35E00, offset: 0x35E00, size: 0x8, addend: 0x0, symName: __ZNSt3__118counting_semaphoreILl1EEC1B7v160006El, symObjAddr: 0x39FC, symBinAddr: 0x1000051A4, symSize: 0x34 }
  - { offsetInCU: 0x35E38, offset: 0x35E38, size: 0x8, addend: 0x0, symName: __ZNSt3__15dequeINS_6threadENS_9allocatorIS1_EEED1B7v160006Ev, symObjAddr: 0x3A30, symBinAddr: 0x1000051D8, symSize: 0x2C }
  - { offsetInCU: 0x35E62, offset: 0x35E62, size: 0x8, addend: 0x0, symName: __ZNSt3__15dequeINS_8functionIFvvEEENS_9allocatorIS3_EEED1B7v160006Ev, symObjAddr: 0x3A5C, symBinAddr: 0x100005204, symSize: 0x2C }
  - { offsetInCU: 0x35E8C, offset: 0x35E8C, size: 0x8, addend: 0x0, symName: __ZNSt3__15dequeINS_8functionIFvvEEENS_9allocatorIS3_EEEC2B7v160006Ev, symObjAddr: 0x3A88, symBinAddr: 0x100005230, symSize: 0x50 }
  - { offsetInCU: 0x35EB6, offset: 0x35EB6, size: 0x8, addend: 0x0, symName: __ZNSt3__114__split_bufferIPNS_8functionIFvvEEENS_9allocatorIS4_EEEC1Ev, symObjAddr: 0x3AD8, symBinAddr: 0x100005280, symSize: 0x2C }
  - { offsetInCU: 0x35EE2, offset: 0x35EE2, size: 0x8, addend: 0x0, symName: __ZNSt3__117__compressed_pairImNS_9allocatorINS_8functionIFvvEEEEEEC1B7v160006IiNS_18__default_init_tagEEEOT_OT0_, symObjAddr: 0x3B04, symBinAddr: 0x1000052AC, symSize: 0x3C }
  - { offsetInCU: 0x35F3A, offset: 0x35F3A, size: 0x8, addend: 0x0, symName: __ZNSt3__114__split_bufferIPNS_8functionIFvvEEENS_9allocatorIS4_EEEC2Ev, symObjAddr: 0x3B40, symBinAddr: 0x1000052E8, symSize: 0x50 }
  - { offsetInCU: 0x35F66, offset: 0x35F66, size: 0x8, addend: 0x0, symName: __ZNSt3__117__compressed_pairIPPNS_8functionIFvvEEENS_9allocatorIS4_EEEC1B7v160006IDnNS_18__default_init_tagEEEOT_OT0_, symObjAddr: 0x3B90, symBinAddr: 0x100005338, symSize: 0x3C }
  - { offsetInCU: 0x35FBE, offset: 0x35FBE, size: 0x8, addend: 0x0, symName: __ZNSt3__117__compressed_pairIPPNS_8functionIFvvEEENS_9allocatorIS4_EEEC2B7v160006IDnNS_18__default_init_tagEEEOT_OT0_, symObjAddr: 0x3BCC, symBinAddr: 0x100005374, symSize: 0x40 }
  - { offsetInCU: 0x36016, offset: 0x36016, size: 0x8, addend: 0x0, symName: __ZNSt3__122__compressed_pair_elemIPPNS_8functionIFvvEEELi0ELb0EEC2B7v160006IDnvEEOT_, symObjAddr: 0x3C0C, symBinAddr: 0x1000053B4, symSize: 0x1C }
  - { offsetInCU: 0x36058, offset: 0x36058, size: 0x8, addend: 0x0, symName: __ZNSt3__122__compressed_pair_elemINS_9allocatorIPNS_8functionIFvvEEEEELi1ELb1EEC2B7v160006ENS_18__default_init_tagE, symObjAddr: 0x3C28, symBinAddr: 0x1000053D0, symSize: 0x2C }
  - { offsetInCU: 0x3608C, offset: 0x3608C, size: 0x8, addend: 0x0, symName: __ZNSt3__19allocatorIPNS_8functionIFvvEEEEC2B7v160006Ev, symObjAddr: 0x3C54, symBinAddr: 0x1000053FC, symSize: 0x2C }
  - { offsetInCU: 0x360B6, offset: 0x360B6, size: 0x8, addend: 0x0, symName: __ZNSt3__116__non_trivial_ifILb1ENS_9allocatorIPNS_8functionIFvvEEEEEEC2B7v160006Ev, symObjAddr: 0x3C80, symBinAddr: 0x100005428, symSize: 0x14 }
  - { offsetInCU: 0x360E0, offset: 0x360E0, size: 0x8, addend: 0x0, symName: __ZNSt3__117__compressed_pairImNS_9allocatorINS_8functionIFvvEEEEEEC2B7v160006IiNS_18__default_init_tagEEEOT_OT0_, symObjAddr: 0x3C94, symBinAddr: 0x10000543C, symSize: 0x40 }
  - { offsetInCU: 0x36138, offset: 0x36138, size: 0x8, addend: 0x0, symName: __ZNSt3__122__compressed_pair_elemINS_9allocatorINS_8functionIFvvEEEEELi1ELb1EEC2B7v160006ENS_18__default_init_tagE, symObjAddr: 0x3CD4, symBinAddr: 0x10000547C, symSize: 0x2C }
  - { offsetInCU: 0x3616C, offset: 0x3616C, size: 0x8, addend: 0x0, symName: __ZNSt3__19allocatorINS_8functionIFvvEEEEC2B7v160006Ev, symObjAddr: 0x3D00, symBinAddr: 0x1000054A8, symSize: 0x2C }
  - { offsetInCU: 0x36196, offset: 0x36196, size: 0x8, addend: 0x0, symName: __ZNSt3__116__non_trivial_ifILb1ENS_9allocatorINS_8functionIFvvEEEEEEC2B7v160006Ev, symObjAddr: 0x3D2C, symBinAddr: 0x1000054D4, symSize: 0x14 }
  - { offsetInCU: 0x361C0, offset: 0x361C0, size: 0x8, addend: 0x0, symName: __ZNSt3__15dequeINS_6threadENS_9allocatorIS1_EEEC2B7v160006Ev, symObjAddr: 0x3D40, symBinAddr: 0x1000054E8, symSize: 0x50 }
  - { offsetInCU: 0x361EA, offset: 0x361EA, size: 0x8, addend: 0x0, symName: __ZNSt3__114__split_bufferIPNS_6threadENS_9allocatorIS2_EEEC1Ev, symObjAddr: 0x3D90, symBinAddr: 0x100005538, symSize: 0x2C }
  - { offsetInCU: 0x36216, offset: 0x36216, size: 0x8, addend: 0x0, symName: __ZNSt3__117__compressed_pairImNS_9allocatorINS_6threadEEEEC1B7v160006IiNS_18__default_init_tagEEEOT_OT0_, symObjAddr: 0x3DBC, symBinAddr: 0x100005564, symSize: 0x3C }
  - { offsetInCU: 0x3626E, offset: 0x3626E, size: 0x8, addend: 0x0, symName: __ZNSt3__114__split_bufferIPNS_6threadENS_9allocatorIS2_EEEC2Ev, symObjAddr: 0x3DF8, symBinAddr: 0x1000055A0, symSize: 0x50 }
  - { offsetInCU: 0x3629A, offset: 0x3629A, size: 0x8, addend: 0x0, symName: __ZNSt3__117__compressed_pairIPPNS_6threadENS_9allocatorIS2_EEEC1B7v160006IDnNS_18__default_init_tagEEEOT_OT0_, symObjAddr: 0x3E48, symBinAddr: 0x1000055F0, symSize: 0x3C }
  - { offsetInCU: 0x362F2, offset: 0x362F2, size: 0x8, addend: 0x0, symName: __ZNSt3__117__compressed_pairIPPNS_6threadENS_9allocatorIS2_EEEC2B7v160006IDnNS_18__default_init_tagEEEOT_OT0_, symObjAddr: 0x3E84, symBinAddr: 0x10000562C, symSize: 0x40 }
  - { offsetInCU: 0x3634A, offset: 0x3634A, size: 0x8, addend: 0x0, symName: __ZNSt3__122__compressed_pair_elemIPPNS_6threadELi0ELb0EEC2B7v160006IDnvEEOT_, symObjAddr: 0x3EC4, symBinAddr: 0x10000566C, symSize: 0x1C }
  - { offsetInCU: 0x3638C, offset: 0x3638C, size: 0x8, addend: 0x0, symName: __ZNSt3__122__compressed_pair_elemINS_9allocatorIPNS_6threadEEELi1ELb1EEC2B7v160006ENS_18__default_init_tagE, symObjAddr: 0x3EE0, symBinAddr: 0x100005688, symSize: 0x2C }
  - { offsetInCU: 0x363C0, offset: 0x363C0, size: 0x8, addend: 0x0, symName: __ZNSt3__19allocatorIPNS_6threadEEC2B7v160006Ev, symObjAddr: 0x3F0C, symBinAddr: 0x1000056B4, symSize: 0x2C }
  - { offsetInCU: 0x363EA, offset: 0x363EA, size: 0x8, addend: 0x0, symName: __ZNSt3__116__non_trivial_ifILb1ENS_9allocatorIPNS_6threadEEEEC2B7v160006Ev, symObjAddr: 0x3F38, symBinAddr: 0x1000056E0, symSize: 0x14 }
  - { offsetInCU: 0x36414, offset: 0x36414, size: 0x8, addend: 0x0, symName: __ZNSt3__117__compressed_pairImNS_9allocatorINS_6threadEEEEC2B7v160006IiNS_18__default_init_tagEEEOT_OT0_, symObjAddr: 0x3F4C, symBinAddr: 0x1000056F4, symSize: 0x40 }
  - { offsetInCU: 0x3646C, offset: 0x3646C, size: 0x8, addend: 0x0, symName: __ZNSt3__122__compressed_pair_elemINS_9allocatorINS_6threadEEELi1ELb1EEC2B7v160006ENS_18__default_init_tagE, symObjAddr: 0x3F8C, symBinAddr: 0x100005734, symSize: 0x2C }
  - { offsetInCU: 0x364A0, offset: 0x364A0, size: 0x8, addend: 0x0, symName: __ZNSt3__19allocatorINS_6threadEEC2B7v160006Ev, symObjAddr: 0x3FB8, symBinAddr: 0x100005760, symSize: 0x2C }
  - { offsetInCU: 0x364CA, offset: 0x364CA, size: 0x8, addend: 0x0, symName: __ZNSt3__116__non_trivial_ifILb1ENS_9allocatorINS_6threadEEEEC2B7v160006Ev, symObjAddr: 0x3FE4, symBinAddr: 0x10000578C, symSize: 0x14 }
  - { offsetInCU: 0x364F4, offset: 0x364F4, size: 0x8, addend: 0x0, symName: __ZNSt3__15mutexC2B7v160006Ev, symObjAddr: 0x3FF8, symBinAddr: 0x1000057A0, symSize: 0x44 }
  - { offsetInCU: 0x3651E, offset: 0x3651E, size: 0x8, addend: 0x0, symName: __ZNSt3__118condition_variableC2B7v160006Ev, symObjAddr: 0x403C, symBinAddr: 0x1000057E4, symSize: 0x44 }
  - { offsetInCU: 0x36548, offset: 0x36548, size: 0x8, addend: 0x0, symName: __ZNSt3__16atomicIbEC2B7v160006Ev, symObjAddr: 0x4080, symBinAddr: 0x100005828, symSize: 0x2C }
  - { offsetInCU: 0x36572, offset: 0x36572, size: 0x8, addend: 0x0, symName: __ZNSt3__113__atomic_baseIbLb0EEC2B7v160006Ev, symObjAddr: 0x40AC, symBinAddr: 0x100005854, symSize: 0x34 }
  - { offsetInCU: 0x3659C, offset: 0x3659C, size: 0x8, addend: 0x0, symName: __ZNSt3__117__cxx_atomic_implIbNS_22__cxx_atomic_base_implIbEEEC1B7v160006Eb, symObjAddr: 0x40E0, symBinAddr: 0x100005888, symSize: 0x40 }
  - { offsetInCU: 0x365D5, offset: 0x365D5, size: 0x8, addend: 0x0, symName: __ZNSt3__117__cxx_atomic_implIbNS_22__cxx_atomic_base_implIbEEEC2B7v160006Eb, symObjAddr: 0x4120, symBinAddr: 0x1000058C8, symSize: 0x40 }
  - { offsetInCU: 0x3660E, offset: 0x3660E, size: 0x8, addend: 0x0, symName: __ZNSt3__122__cxx_atomic_base_implIbEC2Eb, symObjAddr: 0x4160, symBinAddr: 0x100005908, symSize: 0x2C }
  - { offsetInCU: 0x36647, offset: 0x36647, size: 0x8, addend: 0x0, symName: __ZNSt3__118counting_semaphoreILl1EEC2B7v160006El, symObjAddr: 0x418C, symBinAddr: 0x100005934, symSize: 0x34 }
  - { offsetInCU: 0x3667F, offset: 0x3667F, size: 0x8, addend: 0x0, symName: __ZNSt3__123__atomic_semaphore_baseC1B7v160006El, symObjAddr: 0x41C0, symBinAddr: 0x100005968, symSize: 0x34 }
  - { offsetInCU: 0x366B7, offset: 0x366B7, size: 0x8, addend: 0x0, symName: __ZNSt3__123__atomic_semaphore_baseC2B7v160006El, symObjAddr: 0x41F4, symBinAddr: 0x10000599C, symSize: 0x34 }
  - { offsetInCU: 0x366EF, offset: 0x366EF, size: 0x8, addend: 0x0, symName: __ZNSt3__113__atomic_baseIlLb1EEC1B7v160006El, symObjAddr: 0x4228, symBinAddr: 0x1000059D0, symSize: 0x34 }
  - { offsetInCU: 0x36728, offset: 0x36728, size: 0x8, addend: 0x0, symName: __ZNSt3__113__atomic_baseIlLb1EEC2B7v160006El, symObjAddr: 0x425C, symBinAddr: 0x100005A04, symSize: 0x34 }
  - { offsetInCU: 0x36761, offset: 0x36761, size: 0x8, addend: 0x0, symName: __ZNSt3__113__atomic_baseIlLb0EEC2B7v160006El, symObjAddr: 0x4290, symBinAddr: 0x100005A38, symSize: 0x34 }
  - { offsetInCU: 0x3679A, offset: 0x3679A, size: 0x8, addend: 0x0, symName: __ZNSt3__117__cxx_atomic_implIlNS_22__cxx_atomic_base_implIlEEEC1B7v160006El, symObjAddr: 0x42C4, symBinAddr: 0x100005A6C, symSize: 0x34 }
  - { offsetInCU: 0x367D3, offset: 0x367D3, size: 0x8, addend: 0x0, symName: __ZNSt3__117__cxx_atomic_implIlNS_22__cxx_atomic_base_implIlEEEC2B7v160006El, symObjAddr: 0x42F8, symBinAddr: 0x100005AA0, symSize: 0x34 }
  - { offsetInCU: 0x3680C, offset: 0x3680C, size: 0x8, addend: 0x0, symName: __ZNSt3__122__cxx_atomic_base_implIlEC2El, symObjAddr: 0x432C, symBinAddr: 0x100005AD4, symSize: 0x20 }
  - { offsetInCU: 0x36845, offset: 0x36845, size: 0x8, addend: 0x0, symName: __ZNSt3__15dequeINS_6threadENS_9allocatorIS1_EEED2B7v160006Ev, symObjAddr: 0x434C, symBinAddr: 0x100005AF4, symSize: 0x9C }
  - { offsetInCU: 0x3689C, offset: 0x3689C, size: 0x8, addend: 0x0, symName: __ZNSt3__15dequeINS_6threadENS_9allocatorIS1_EEE5clearEv, symObjAddr: 0x43E8, symBinAddr: 0x100005B90, symSize: 0x180 }
  - { offsetInCU: 0x368F7, offset: 0x368F7, size: 0x8, addend: 0x0, symName: __ZNSt3__114__split_bufferIPNS_6threadENS_9allocatorIS2_EEE5beginB7v160006Ev, symObjAddr: 0x4568, symBinAddr: 0x100005D10, symSize: 0x18 }
  - { offsetInCU: 0x3691D, offset: 0x3691D, size: 0x8, addend: 0x0, symName: __ZNSt3__114__split_bufferIPNS_6threadENS_9allocatorIS2_EEE3endB7v160006Ev, symObjAddr: 0x4580, symBinAddr: 0x100005D28, symSize: 0x18 }
  - { offsetInCU: 0x36943, offset: 0x36943, size: 0x8, addend: 0x0, symName: __ZNSt3__116allocator_traitsINS_9allocatorINS_6threadEEEE10deallocateB7v160006ERS3_PS2_m, symObjAddr: 0x4598, symBinAddr: 0x100005D40, symSize: 0x34 }
  - { offsetInCU: 0x36985, offset: 0x36985, size: 0x8, addend: 0x0, symName: __ZNSt3__15dequeINS_6threadENS_9allocatorIS1_EEE7__allocB7v160006Ev, symObjAddr: 0x45CC, symBinAddr: 0x100005D74, symSize: 0x28 }
  - { offsetInCU: 0x369AB, offset: 0x369AB, size: 0x8, addend: 0x0, symName: __ZNSt3__114__split_bufferIPNS_6threadENS_9allocatorIS2_EEED1Ev, symObjAddr: 0x45F4, symBinAddr: 0x100005D9C, symSize: 0x2C }
  - { offsetInCU: 0x369D7, offset: 0x369D7, size: 0x8, addend: 0x0, symName: __ZNSt3__15dequeINS_6threadENS_9allocatorIS1_EEE5beginB7v160006Ev, symObjAddr: 0x4620, symBinAddr: 0x100005DC8, symSize: 0xB8 }
  - { offsetInCU: 0x36A0C, offset: 0x36A0C, size: 0x8, addend: 0x0, symName: __ZNSt3__15dequeINS_6threadENS_9allocatorIS1_EEE3endB7v160006Ev, symObjAddr: 0x46D8, symBinAddr: 0x100005E80, symSize: 0xBC }
  - { offsetInCU: 0x36A50, offset: 0x36A50, size: 0x8, addend: 0x0, symName: __ZNSt3__116allocator_traitsINS_9allocatorINS_6threadEEEE7destroyB7v160006IS2_vvEEvRS3_PT_, symObjAddr: 0x47C8, symBinAddr: 0x100005F70, symSize: 0x28 }
  - { offsetInCU: 0x36A8B, offset: 0x36A8B, size: 0x8, addend: 0x0, symName: __ZNKSt3__116__deque_iteratorINS_6threadEPS1_RS1_PS2_lLl512EEdeB7v160006Ev, symObjAddr: 0x47F0, symBinAddr: 0x100005F98, symSize: 0x18 }
  - { offsetInCU: 0x36AB1, offset: 0x36AB1, size: 0x8, addend: 0x0, symName: __ZNSt3__116__deque_iteratorINS_6threadEPS1_RS1_PS2_lLl512EEppB7v160006Ev, symObjAddr: 0x4808, symBinAddr: 0x100005FB0, symSize: 0x70 }
  - { offsetInCU: 0x36AD7, offset: 0x36AD7, size: 0x8, addend: 0x0, symName: __ZNSt3__15dequeINS_6threadENS_9allocatorIS1_EEE6__sizeB7v160006Ev, symObjAddr: 0x4878, symBinAddr: 0x100006020, symSize: 0x28 }
  - { offsetInCU: 0x36AFD, offset: 0x36AFD, size: 0x8, addend: 0x0, symName: __ZNKSt3__114__split_bufferIPNS_6threadENS_9allocatorIS2_EEE4sizeB7v160006Ev, symObjAddr: 0x48A0, symBinAddr: 0x100006048, symSize: 0x28 }
  - { offsetInCU: 0x36B23, offset: 0x36B23, size: 0x8, addend: 0x0, symName: __ZNSt3__114__split_bufferIPNS_6threadENS_9allocatorIS2_EEE5frontB7v160006Ev, symObjAddr: 0x48C8, symBinAddr: 0x100006070, symSize: 0x18 }
  - { offsetInCU: 0x36B49, offset: 0x36B49, size: 0x8, addend: 0x0, symName: __ZNSt3__114__split_bufferIPNS_6threadENS_9allocatorIS2_EEE9pop_frontB7v160006Ev, symObjAddr: 0x48E0, symBinAddr: 0x100006088, symSize: 0x2C }
  - { offsetInCU: 0x36B6F, offset: 0x36B6F, size: 0x8, addend: 0x0, symName: __ZNKSt3__114__split_bufferIPNS_6threadENS_9allocatorIS2_EEE5emptyB7v160006Ev, symObjAddr: 0x490C, symBinAddr: 0x1000060B4, symSize: 0x28 }
  - { offsetInCU: 0x36B95, offset: 0x36B95, size: 0x8, addend: 0x0, symName: __ZNSt3__116__deque_iteratorINS_6threadEPS1_RS1_PS2_lLl512EEC1B7v160006ES4_S2_, symObjAddr: 0x4934, symBinAddr: 0x1000060DC, symSize: 0x3C }
  - { offsetInCU: 0x36BDD, offset: 0x36BDD, size: 0x8, addend: 0x0, symName: __ZNSt3__116__deque_iteratorINS_6threadEPS1_RS1_PS2_lLl512EEC2B7v160006ES4_S2_, symObjAddr: 0x4970, symBinAddr: 0x100006118, symSize: 0x2C }
  - { offsetInCU: 0x36C25, offset: 0x36C25, size: 0x8, addend: 0x0, symName: __ZNKSt3__15dequeINS_6threadENS_9allocatorIS1_EEE4sizeB7v160006Ev, symObjAddr: 0x499C, symBinAddr: 0x100006144, symSize: 0x28 }
  - { offsetInCU: 0x36C4B, offset: 0x36C4B, size: 0x8, addend: 0x0, symName: __ZNKSt3__15dequeINS_6threadENS_9allocatorIS1_EEE6__sizeB7v160006Ev, symObjAddr: 0x49C4, symBinAddr: 0x10000616C, symSize: 0x28 }
  - { offsetInCU: 0x36C71, offset: 0x36C71, size: 0x8, addend: 0x0, symName: __ZNKSt3__117__compressed_pairImNS_9allocatorINS_6threadEEEE5firstB7v160006Ev, symObjAddr: 0x49EC, symBinAddr: 0x100006194, symSize: 0x24 }
  - { offsetInCU: 0x36C97, offset: 0x36C97, size: 0x8, addend: 0x0, symName: __ZNKSt3__122__compressed_pair_elemImLi0ELb0EE5__getB7v160006Ev, symObjAddr: 0x4A10, symBinAddr: 0x1000061B8, symSize: 0x14 }
  - { offsetInCU: 0x36CBD, offset: 0x36CBD, size: 0x8, addend: 0x0, symName: __ZNSt3__117__compressed_pairImNS_9allocatorINS_6threadEEEE5firstB7v160006Ev, symObjAddr: 0x4A9C, symBinAddr: 0x100006244, symSize: 0x24 }
  - { offsetInCU: 0x36CE3, offset: 0x36CE3, size: 0x8, addend: 0x0, symName: __ZNSt3__122__compressed_pair_elemImLi0ELb0EE5__getB7v160006Ev, symObjAddr: 0x4AC0, symBinAddr: 0x100006268, symSize: 0x14 }
  - { offsetInCU: 0x36D09, offset: 0x36D09, size: 0x8, addend: 0x0, symName: __ZNSt3__114__split_bufferIPNS_6threadENS_9allocatorIS2_EEE19__destruct_at_beginB7v160006EPS2_, symObjAddr: 0x4AD4, symBinAddr: 0x10000627C, symSize: 0x2C }
  - { offsetInCU: 0x36D3D, offset: 0x36D3D, size: 0x8, addend: 0x0, symName: __ZNSt3__114__split_bufferIPNS_6threadENS_9allocatorIS2_EEE19__destruct_at_beginEPS2_NS_17integral_constantIbLb1EEE, symObjAddr: 0x4B00, symBinAddr: 0x1000062A8, symSize: 0x20 }
  - { offsetInCU: 0x36D7D, offset: 0x36D7D, size: 0x8, addend: 0x0, symName: __ZNSt3__19allocatorINS_6threadEE10deallocateB7v160006EPS1_m, symObjAddr: 0x4B20, symBinAddr: 0x1000062C8, symSize: 0x40 }
  - { offsetInCU: 0x36DBF, offset: 0x36DBF, size: 0x8, addend: 0x0, symName: __ZNSt3__117__compressed_pairImNS_9allocatorINS_6threadEEEE6secondB7v160006Ev, symObjAddr: 0x4C88, symBinAddr: 0x100006430, symSize: 0x24 }
  - { offsetInCU: 0x36DE5, offset: 0x36DE5, size: 0x8, addend: 0x0, symName: __ZNSt3__122__compressed_pair_elemINS_9allocatorINS_6threadEEELi1ELb1EE5__getB7v160006Ev, symObjAddr: 0x4CAC, symBinAddr: 0x100006454, symSize: 0x14 }
  - { offsetInCU: 0x36E0B, offset: 0x36E0B, size: 0x8, addend: 0x0, symName: __ZNSt3__114__split_bufferIPNS_6threadENS_9allocatorIS2_EEED2Ev, symObjAddr: 0x4CC0, symBinAddr: 0x100006468, symSize: 0x8C }
  - { offsetInCU: 0x36E37, offset: 0x36E37, size: 0x8, addend: 0x0, symName: __ZNSt3__114__split_bufferIPNS_6threadENS_9allocatorIS2_EEE5clearB7v160006Ev, symObjAddr: 0x4D4C, symBinAddr: 0x1000064F4, symSize: 0x28 }
  - { offsetInCU: 0x36E5D, offset: 0x36E5D, size: 0x8, addend: 0x0, symName: __ZNSt3__116allocator_traitsINS_9allocatorIPNS_6threadEEEE10deallocateB7v160006ERS4_PS3_m, symObjAddr: 0x4D74, symBinAddr: 0x10000651C, symSize: 0x34 }
  - { offsetInCU: 0x36E9F, offset: 0x36E9F, size: 0x8, addend: 0x0, symName: __ZNSt3__114__split_bufferIPNS_6threadENS_9allocatorIS2_EEE7__allocB7v160006Ev, symObjAddr: 0x4DA8, symBinAddr: 0x100006550, symSize: 0x28 }
  - { offsetInCU: 0x36EC5, offset: 0x36EC5, size: 0x8, addend: 0x0, symName: __ZNKSt3__114__split_bufferIPNS_6threadENS_9allocatorIS2_EEE8capacityB7v160006Ev, symObjAddr: 0x4DD0, symBinAddr: 0x100006578, symSize: 0x40 }
  - { offsetInCU: 0x36EEB, offset: 0x36EEB, size: 0x8, addend: 0x0, symName: __ZNSt3__114__split_bufferIPNS_6threadENS_9allocatorIS2_EEE17__destruct_at_endB7v160006EPS2_, symObjAddr: 0x4E10, symBinAddr: 0x1000065B8, symSize: 0x2C }
  - { offsetInCU: 0x36F1F, offset: 0x36F1F, size: 0x8, addend: 0x0, symName: __ZNSt3__114__split_bufferIPNS_6threadENS_9allocatorIS2_EEE17__destruct_at_endB7v160006EPS2_NS_17integral_constantIbLb0EEE, symObjAddr: 0x4E3C, symBinAddr: 0x1000065E4, symSize: 0x80 }
  - { offsetInCU: 0x36F5F, offset: 0x36F5F, size: 0x8, addend: 0x0, symName: __ZNSt3__116allocator_traitsINS_9allocatorIPNS_6threadEEEE7destroyB7v160006IS3_vvEEvRS4_PT_, symObjAddr: 0x4EBC, symBinAddr: 0x100006664, symSize: 0x28 }
  - { offsetInCU: 0x36F9A, offset: 0x36F9A, size: 0x8, addend: 0x0, symName: __ZNSt3__19allocatorIPNS_6threadEE10deallocateB7v160006EPS2_m, symObjAddr: 0x4F2C, symBinAddr: 0x1000066D4, symSize: 0x40 }
  - { offsetInCU: 0x36FDC, offset: 0x36FDC, size: 0x8, addend: 0x0, symName: __ZNSt3__117__compressed_pairIPPNS_6threadENS_9allocatorIS2_EEE6secondB7v160006Ev, symObjAddr: 0x4F6C, symBinAddr: 0x100006714, symSize: 0x24 }
  - { offsetInCU: 0x37002, offset: 0x37002, size: 0x8, addend: 0x0, symName: __ZNSt3__122__compressed_pair_elemINS_9allocatorIPNS_6threadEEELi1ELb1EE5__getB7v160006Ev, symObjAddr: 0x4F90, symBinAddr: 0x100006738, symSize: 0x14 }
  - { offsetInCU: 0x37028, offset: 0x37028, size: 0x8, addend: 0x0, symName: __ZNKSt3__114__split_bufferIPNS_6threadENS_9allocatorIS2_EEE9__end_capB7v160006Ev, symObjAddr: 0x4FA4, symBinAddr: 0x10000674C, symSize: 0x28 }
  - { offsetInCU: 0x3704E, offset: 0x3704E, size: 0x8, addend: 0x0, symName: __ZNKSt3__117__compressed_pairIPPNS_6threadENS_9allocatorIS2_EEE5firstB7v160006Ev, symObjAddr: 0x4FCC, symBinAddr: 0x100006774, symSize: 0x24 }
  - { offsetInCU: 0x37074, offset: 0x37074, size: 0x8, addend: 0x0, symName: __ZNKSt3__122__compressed_pair_elemIPPNS_6threadELi0ELb0EE5__getB7v160006Ev, symObjAddr: 0x4FF0, symBinAddr: 0x100006798, symSize: 0x14 }
  - { offsetInCU: 0x3709A, offset: 0x3709A, size: 0x8, addend: 0x0, symName: __ZNSt3__15dequeINS_8functionIFvvEEENS_9allocatorIS3_EEED2B7v160006Ev, symObjAddr: 0x5004, symBinAddr: 0x1000067AC, symSize: 0x9C }
  - { offsetInCU: 0x370F1, offset: 0x370F1, size: 0x8, addend: 0x0, symName: __ZNSt3__15dequeINS_8functionIFvvEEENS_9allocatorIS3_EEE5clearEv, symObjAddr: 0x50A0, symBinAddr: 0x100006848, symSize: 0x180 }
  - { offsetInCU: 0x3714C, offset: 0x3714C, size: 0x8, addend: 0x0, symName: __ZNSt3__114__split_bufferIPNS_8functionIFvvEEENS_9allocatorIS4_EEE5beginB7v160006Ev, symObjAddr: 0x5220, symBinAddr: 0x1000069C8, symSize: 0x18 }
  - { offsetInCU: 0x37172, offset: 0x37172, size: 0x8, addend: 0x0, symName: __ZNSt3__114__split_bufferIPNS_8functionIFvvEEENS_9allocatorIS4_EEE3endB7v160006Ev, symObjAddr: 0x5238, symBinAddr: 0x1000069E0, symSize: 0x18 }
  - { offsetInCU: 0x37198, offset: 0x37198, size: 0x8, addend: 0x0, symName: __ZNSt3__116allocator_traitsINS_9allocatorINS_8functionIFvvEEEEEE10deallocateB7v160006ERS5_PS4_m, symObjAddr: 0x5250, symBinAddr: 0x1000069F8, symSize: 0x34 }
  - { offsetInCU: 0x371DA, offset: 0x371DA, size: 0x8, addend: 0x0, symName: __ZNSt3__15dequeINS_8functionIFvvEEENS_9allocatorIS3_EEE7__allocB7v160006Ev, symObjAddr: 0x5284, symBinAddr: 0x100006A2C, symSize: 0x28 }
  - { offsetInCU: 0x37200, offset: 0x37200, size: 0x8, addend: 0x0, symName: __ZNSt3__114__split_bufferIPNS_8functionIFvvEEENS_9allocatorIS4_EEED1Ev, symObjAddr: 0x52AC, symBinAddr: 0x100006A54, symSize: 0x2C }
  - { offsetInCU: 0x3722C, offset: 0x3722C, size: 0x8, addend: 0x0, symName: __ZNSt3__15dequeINS_8functionIFvvEEENS_9allocatorIS3_EEE5beginB7v160006Ev, symObjAddr: 0x52D8, symBinAddr: 0x100006A80, symSize: 0xB8 }
  - { offsetInCU: 0x37261, offset: 0x37261, size: 0x8, addend: 0x0, symName: __ZNSt3__15dequeINS_8functionIFvvEEENS_9allocatorIS3_EEE3endB7v160006Ev, symObjAddr: 0x5390, symBinAddr: 0x100006B38, symSize: 0xBC }
  - { offsetInCU: 0x372A5, offset: 0x372A5, size: 0x8, addend: 0x0, symName: __ZNSt3__116allocator_traitsINS_9allocatorINS_8functionIFvvEEEEEE7destroyB7v160006IS4_vvEEvRS5_PT_, symObjAddr: 0x5480, symBinAddr: 0x100006C28, symSize: 0x28 }
  - { offsetInCU: 0x372E0, offset: 0x372E0, size: 0x8, addend: 0x0, symName: __ZNKSt3__116__deque_iteratorINS_8functionIFvvEEEPS3_RS3_PS4_lLl128EEdeB7v160006Ev, symObjAddr: 0x54A8, symBinAddr: 0x100006C50, symSize: 0x18 }
  - { offsetInCU: 0x37306, offset: 0x37306, size: 0x8, addend: 0x0, symName: __ZNSt3__116__deque_iteratorINS_8functionIFvvEEEPS3_RS3_PS4_lLl128EEppB7v160006Ev, symObjAddr: 0x54C0, symBinAddr: 0x100006C68, symSize: 0x70 }
  - { offsetInCU: 0x3732C, offset: 0x3732C, size: 0x8, addend: 0x0, symName: __ZNSt3__15dequeINS_8functionIFvvEEENS_9allocatorIS3_EEE6__sizeB7v160006Ev, symObjAddr: 0x5530, symBinAddr: 0x100006CD8, symSize: 0x28 }
  - { offsetInCU: 0x37352, offset: 0x37352, size: 0x8, addend: 0x0, symName: __ZNKSt3__114__split_bufferIPNS_8functionIFvvEEENS_9allocatorIS4_EEE4sizeB7v160006Ev, symObjAddr: 0x5558, symBinAddr: 0x100006D00, symSize: 0x28 }
  - { offsetInCU: 0x37378, offset: 0x37378, size: 0x8, addend: 0x0, symName: __ZNSt3__114__split_bufferIPNS_8functionIFvvEEENS_9allocatorIS4_EEE5frontB7v160006Ev, symObjAddr: 0x5580, symBinAddr: 0x100006D28, symSize: 0x18 }
  - { offsetInCU: 0x3739E, offset: 0x3739E, size: 0x8, addend: 0x0, symName: __ZNSt3__114__split_bufferIPNS_8functionIFvvEEENS_9allocatorIS4_EEE9pop_frontB7v160006Ev, symObjAddr: 0x5598, symBinAddr: 0x100006D40, symSize: 0x2C }
  - { offsetInCU: 0x373C4, offset: 0x373C4, size: 0x8, addend: 0x0, symName: __ZNKSt3__114__split_bufferIPNS_8functionIFvvEEENS_9allocatorIS4_EEE5emptyB7v160006Ev, symObjAddr: 0x55C4, symBinAddr: 0x100006D6C, symSize: 0x28 }
  - { offsetInCU: 0x373EA, offset: 0x373EA, size: 0x8, addend: 0x0, symName: __ZNSt3__116__deque_iteratorINS_8functionIFvvEEEPS3_RS3_PS4_lLl128EEC1B7v160006ES6_S4_, symObjAddr: 0x55EC, symBinAddr: 0x100006D94, symSize: 0x3C }
  - { offsetInCU: 0x37432, offset: 0x37432, size: 0x8, addend: 0x0, symName: __ZNSt3__116__deque_iteratorINS_8functionIFvvEEEPS3_RS3_PS4_lLl128EEC2B7v160006ES6_S4_, symObjAddr: 0x5628, symBinAddr: 0x100006DD0, symSize: 0x2C }
  - { offsetInCU: 0x3747A, offset: 0x3747A, size: 0x8, addend: 0x0, symName: __ZNKSt3__15dequeINS_8functionIFvvEEENS_9allocatorIS3_EEE4sizeB7v160006Ev, symObjAddr: 0x5654, symBinAddr: 0x100006DFC, symSize: 0x28 }
  - { offsetInCU: 0x374A0, offset: 0x374A0, size: 0x8, addend: 0x0, symName: __ZNKSt3__15dequeINS_8functionIFvvEEENS_9allocatorIS3_EEE6__sizeB7v160006Ev, symObjAddr: 0x567C, symBinAddr: 0x100006E24, symSize: 0x28 }
  - { offsetInCU: 0x374C6, offset: 0x374C6, size: 0x8, addend: 0x0, symName: __ZNKSt3__117__compressed_pairImNS_9allocatorINS_8functionIFvvEEEEEE5firstB7v160006Ev, symObjAddr: 0x56A4, symBinAddr: 0x100006E4C, symSize: 0x24 }
  - { offsetInCU: 0x374EC, offset: 0x374EC, size: 0x8, addend: 0x0, symName: __ZNSt3__18functionIFvvEED1Ev, symObjAddr: 0x5740, symBinAddr: 0x100006EE8, symSize: 0x2C }
  - { offsetInCU: 0x37518, offset: 0x37518, size: 0x8, addend: 0x0, symName: __ZNSt3__18functionIFvvEED2Ev, symObjAddr: 0x576C, symBinAddr: 0x100006F14, symSize: 0x2C }
  - { offsetInCU: 0x37544, offset: 0x37544, size: 0x8, addend: 0x0, symName: __ZNSt3__110__function12__value_funcIFvvEED1B7v160006Ev, symObjAddr: 0x5798, symBinAddr: 0x100006F40, symSize: 0x2C }
  - { offsetInCU: 0x3756E, offset: 0x3756E, size: 0x8, addend: 0x0, symName: __ZNSt3__110__function12__value_funcIFvvEED2B7v160006Ev, symObjAddr: 0x57C4, symBinAddr: 0x100006F6C, symSize: 0x90 }
  - { offsetInCU: 0x37598, offset: 0x37598, size: 0x8, addend: 0x0, symName: __ZNSt3__117__compressed_pairImNS_9allocatorINS_8functionIFvvEEEEEE5firstB7v160006Ev, symObjAddr: 0x5854, symBinAddr: 0x100006FFC, symSize: 0x24 }
  - { offsetInCU: 0x375BE, offset: 0x375BE, size: 0x8, addend: 0x0, symName: __ZNSt3__114__split_bufferIPNS_8functionIFvvEEENS_9allocatorIS4_EEE19__destruct_at_beginB7v160006EPS4_, symObjAddr: 0x5878, symBinAddr: 0x100007020, symSize: 0x2C }
  - { offsetInCU: 0x375F2, offset: 0x375F2, size: 0x8, addend: 0x0, symName: __ZNSt3__114__split_bufferIPNS_8functionIFvvEEENS_9allocatorIS4_EEE19__destruct_at_beginEPS4_NS_17integral_constantIbLb1EEE, symObjAddr: 0x58A4, symBinAddr: 0x10000704C, symSize: 0x20 }
  - { offsetInCU: 0x37632, offset: 0x37632, size: 0x8, addend: 0x0, symName: __ZNSt3__19allocatorINS_8functionIFvvEEEE10deallocateB7v160006EPS3_m, symObjAddr: 0x58C4, symBinAddr: 0x10000706C, symSize: 0x40 }
  - { offsetInCU: 0x37674, offset: 0x37674, size: 0x8, addend: 0x0, symName: __ZNSt3__117__compressed_pairImNS_9allocatorINS_8functionIFvvEEEEEE6secondB7v160006Ev, symObjAddr: 0x5904, symBinAddr: 0x1000070AC, symSize: 0x24 }
  - { offsetInCU: 0x3769A, offset: 0x3769A, size: 0x8, addend: 0x0, symName: __ZNSt3__122__compressed_pair_elemINS_9allocatorINS_8functionIFvvEEEEELi1ELb1EE5__getB7v160006Ev, symObjAddr: 0x5928, symBinAddr: 0x1000070D0, symSize: 0x14 }
  - { offsetInCU: 0x376C0, offset: 0x376C0, size: 0x8, addend: 0x0, symName: __ZNSt3__114__split_bufferIPNS_8functionIFvvEEENS_9allocatorIS4_EEED2Ev, symObjAddr: 0x593C, symBinAddr: 0x1000070E4, symSize: 0x8C }
  - { offsetInCU: 0x376EC, offset: 0x376EC, size: 0x8, addend: 0x0, symName: __ZNSt3__114__split_bufferIPNS_8functionIFvvEEENS_9allocatorIS4_EEE5clearB7v160006Ev, symObjAddr: 0x59C8, symBinAddr: 0x100007170, symSize: 0x28 }
  - { offsetInCU: 0x37712, offset: 0x37712, size: 0x8, addend: 0x0, symName: __ZNSt3__116allocator_traitsINS_9allocatorIPNS_8functionIFvvEEEEEE10deallocateB7v160006ERS6_PS5_m, symObjAddr: 0x59F0, symBinAddr: 0x100007198, symSize: 0x34 }
  - { offsetInCU: 0x37754, offset: 0x37754, size: 0x8, addend: 0x0, symName: __ZNSt3__114__split_bufferIPNS_8functionIFvvEEENS_9allocatorIS4_EEE7__allocB7v160006Ev, symObjAddr: 0x5A24, symBinAddr: 0x1000071CC, symSize: 0x28 }
  - { offsetInCU: 0x3777A, offset: 0x3777A, size: 0x8, addend: 0x0, symName: __ZNKSt3__114__split_bufferIPNS_8functionIFvvEEENS_9allocatorIS4_EEE8capacityB7v160006Ev, symObjAddr: 0x5A4C, symBinAddr: 0x1000071F4, symSize: 0x40 }
  - { offsetInCU: 0x377A0, offset: 0x377A0, size: 0x8, addend: 0x0, symName: __ZNSt3__114__split_bufferIPNS_8functionIFvvEEENS_9allocatorIS4_EEE17__destruct_at_endB7v160006EPS4_, symObjAddr: 0x5A8C, symBinAddr: 0x100007234, symSize: 0x2C }
  - { offsetInCU: 0x377D4, offset: 0x377D4, size: 0x8, addend: 0x0, symName: __ZNSt3__114__split_bufferIPNS_8functionIFvvEEENS_9allocatorIS4_EEE17__destruct_at_endB7v160006EPS4_NS_17integral_constantIbLb0EEE, symObjAddr: 0x5AB8, symBinAddr: 0x100007260, symSize: 0x80 }
  - { offsetInCU: 0x37814, offset: 0x37814, size: 0x8, addend: 0x0, symName: __ZNSt3__116allocator_traitsINS_9allocatorIPNS_8functionIFvvEEEEEE7destroyB7v160006IS5_vvEEvRS6_PT_, symObjAddr: 0x5B38, symBinAddr: 0x1000072E0, symSize: 0x28 }
  - { offsetInCU: 0x3784F, offset: 0x3784F, size: 0x8, addend: 0x0, symName: __ZNSt3__19allocatorIPNS_8functionIFvvEEEE10deallocateB7v160006EPS4_m, symObjAddr: 0x5BA8, symBinAddr: 0x100007350, symSize: 0x40 }
  - { offsetInCU: 0x37891, offset: 0x37891, size: 0x8, addend: 0x0, symName: __ZNSt3__117__compressed_pairIPPNS_8functionIFvvEEENS_9allocatorIS4_EEE6secondB7v160006Ev, symObjAddr: 0x5BE8, symBinAddr: 0x100007390, symSize: 0x24 }
  - { offsetInCU: 0x378B7, offset: 0x378B7, size: 0x8, addend: 0x0, symName: __ZNSt3__122__compressed_pair_elemINS_9allocatorIPNS_8functionIFvvEEEEELi1ELb1EE5__getB7v160006Ev, symObjAddr: 0x5C0C, symBinAddr: 0x1000073B4, symSize: 0x14 }
  - { offsetInCU: 0x378DD, offset: 0x378DD, size: 0x8, addend: 0x0, symName: __ZNKSt3__114__split_bufferIPNS_8functionIFvvEEENS_9allocatorIS4_EEE9__end_capB7v160006Ev, symObjAddr: 0x5C20, symBinAddr: 0x1000073C8, symSize: 0x28 }
  - { offsetInCU: 0x37903, offset: 0x37903, size: 0x8, addend: 0x0, symName: __ZNKSt3__117__compressed_pairIPPNS_8functionIFvvEEENS_9allocatorIS4_EEE5firstB7v160006Ev, symObjAddr: 0x5C48, symBinAddr: 0x1000073F0, symSize: 0x24 }
  - { offsetInCU: 0x37929, offset: 0x37929, size: 0x8, addend: 0x0, symName: __ZNKSt3__122__compressed_pair_elemIPPNS_8functionIFvvEEELi0ELb0EE5__getB7v160006Ev, symObjAddr: 0x5C6C, symBinAddr: 0x100007414, symSize: 0x14 }
  - { offsetInCU: 0x3794F, offset: 0x3794F, size: 0x8, addend: 0x0, symName: __ZNSt3__113unordered_mapINS_12basic_stringIcNS_11char_traitsIcEENS_9allocatorIcEEEEP8SSS_NodeIfENS_4hashIS6_EENS_8equal_toIS6_EENS4_INS_4pairIKS6_S9_EEEEED2B7v160006Ev, symObjAddr: 0x5C80, symBinAddr: 0x100007428, symSize: 0x2C }
  - { offsetInCU: 0x37979, offset: 0x37979, size: 0x8, addend: 0x0, symName: __ZNSt3__112__hash_tableINS_17__hash_value_typeINS_12basic_stringIcNS_11char_traitsIcEENS_9allocatorIcEEEEP8SSS_NodeIfEEENS_22__unordered_map_hasherIS7_SB_NS_4hashIS7_EENS_8equal_toIS7_EELb1EEENS_21__unordered_map_equalIS7_SB_SG_SE_Lb1EEENS5_ISB_EEED1Ev, symObjAddr: 0x5CAC, symBinAddr: 0x100007454, symSize: 0x2C }
  - { offsetInCU: 0x379A5, offset: 0x379A5, size: 0x8, addend: 0x0, symName: __ZNSt3__112__hash_tableINS_17__hash_value_typeINS_12basic_stringIcNS_11char_traitsIcEENS_9allocatorIcEEEEP8SSS_NodeIfEEENS_22__unordered_map_hasherIS7_SB_NS_4hashIS7_EENS_8equal_toIS7_EELb1EEENS_21__unordered_map_equalIS7_SB_SG_SE_Lb1EEENS5_ISB_EEED2Ev, symObjAddr: 0x5CD8, symBinAddr: 0x100007480, symSize: 0x58 }
  - { offsetInCU: 0x379D1, offset: 0x379D1, size: 0x8, addend: 0x0, symName: __ZNSt3__112__hash_tableINS_17__hash_value_typeINS_12basic_stringIcNS_11char_traitsIcEENS_9allocatorIcEEEEP8SSS_NodeIfEEENS_22__unordered_map_hasherIS7_SB_NS_4hashIS7_EENS_8equal_toIS7_EELb1EEENS_21__unordered_map_equalIS7_SB_SG_SE_Lb1EEENS5_ISB_EEE17__deallocate_nodeEPNS_16__hash_node_baseIPNS_11__hash_nodeISB_PvEEEE, symObjAddr: 0x5D30, symBinAddr: 0x1000074D8, symSize: 0xA8 }
  - { offsetInCU: 0x37A3B, offset: 0x37A3B, size: 0x8, addend: 0x0, symName: __ZNSt3__117__compressed_pairINS_16__hash_node_baseIPNS_11__hash_nodeINS_17__hash_value_typeINS_12basic_stringIcNS_11char_traitsIcEENS_9allocatorIcEEEEP8SSS_NodeIfEEEPvEEEENS7_ISF_EEE5firstB7v160006Ev, symObjAddr: 0x5DD8, symBinAddr: 0x100007580, symSize: 0x24 }
  - { offsetInCU: 0x37A61, offset: 0x37A61, size: 0x8, addend: 0x0, symName: __ZNSt3__110unique_ptrIA_PNS_16__hash_node_baseIPNS_11__hash_nodeINS_17__hash_value_typeINS_12basic_stringIcNS_11char_traitsIcEENS_9allocatorIcEEEEP8SSS_NodeIfEEEPvEEEENS_25__bucket_list_deallocatorINS7_ISI_EEEEED1B7v160006Ev, symObjAddr: 0x5E0C, symBinAddr: 0x1000075B4, symSize: 0x2C }
  - { offsetInCU: 0x37A8B, offset: 0x37A8B, size: 0x8, addend: 0x0, symName: __ZNSt3__112__hash_tableINS_17__hash_value_typeINS_12basic_stringIcNS_11char_traitsIcEENS_9allocatorIcEEEEP8SSS_NodeIfEEENS_22__unordered_map_hasherIS7_SB_NS_4hashIS7_EENS_8equal_toIS7_EELb1EEENS_21__unordered_map_equalIS7_SB_SG_SE_Lb1EEENS5_ISB_EEE12__node_allocB7v160006Ev, symObjAddr: 0x5E38, symBinAddr: 0x1000075E0, symSize: 0x28 }
  - { offsetInCU: 0x37AB1, offset: 0x37AB1, size: 0x8, addend: 0x0, symName: __ZNSt3__116__hash_node_baseIPNS_11__hash_nodeINS_17__hash_value_typeINS_12basic_stringIcNS_11char_traitsIcEENS_9allocatorIcEEEEP8SSS_NodeIfEEEPvEEE8__upcastB7v160006Ev, symObjAddr: 0x5E60, symBinAddr: 0x100007608, symSize: 0x24 }
  - { offsetInCU: 0x37ADD, offset: 0x37ADD, size: 0x8, addend: 0x0, symName: __ZNSt3__116allocator_traitsINS_9allocatorINS_11__hash_nodeINS_17__hash_value_typeINS_12basic_stringIcNS_11char_traitsIcEENS1_IcEEEEP8SSS_NodeIfEEEPvEEEEE7destroyB7v160006INS_4pairIKS8_SB_EEvvEEvRSF_PT_, symObjAddr: 0x5E84, symBinAddr: 0x10000762C, symSize: 0x28 }
  - { offsetInCU: 0x37B18, offset: 0x37B18, size: 0x8, addend: 0x0, symName: __ZNSt3__122__hash_key_value_typesINS_17__hash_value_typeINS_12basic_stringIcNS_11char_traitsIcEENS_9allocatorIcEEEEP8SSS_NodeIfEEEE9__get_ptrB7v160006ERSB_, symObjAddr: 0x5EAC, symBinAddr: 0x100007654, symSize: 0x24 }
  - { offsetInCU: 0x37B3B, offset: 0x37B3B, size: 0x8, addend: 0x0, symName: __ZNSt3__116allocator_traitsINS_9allocatorINS_11__hash_nodeINS_17__hash_value_typeINS_12basic_stringIcNS_11char_traitsIcEENS1_IcEEEEP8SSS_NodeIfEEEPvEEEEE10deallocateB7v160006ERSF_PSE_m, symObjAddr: 0x5ED0, symBinAddr: 0x100007678, symSize: 0x34 }
  - { offsetInCU: 0x37B7D, offset: 0x37B7D, size: 0x8, addend: 0x0, symName: __ZNSt3__117__compressed_pairINS_16__hash_node_baseIPNS_11__hash_nodeINS_17__hash_value_typeINS_12basic_stringIcNS_11char_traitsIcEENS_9allocatorIcEEEEP8SSS_NodeIfEEEPvEEEENS7_ISF_EEE6secondB7v160006Ev, symObjAddr: 0x5F04, symBinAddr: 0x1000076AC, symSize: 0x24 }
  - { offsetInCU: 0x37BA3, offset: 0x37BA3, size: 0x8, addend: 0x0, symName: __ZNSt3__122__compressed_pair_elemINS_9allocatorINS_11__hash_nodeINS_17__hash_value_typeINS_12basic_stringIcNS_11char_traitsIcEENS1_IcEEEEP8SSS_NodeIfEEEPvEEEELi1ELb1EE5__getB7v160006Ev, symObjAddr: 0x5F28, symBinAddr: 0x1000076D0, symSize: 0x14 }
  - { offsetInCU: 0x37BC9, offset: 0x37BC9, size: 0x8, addend: 0x0, symName: __ZNSt3__114pointer_traitsIPNS_16__hash_node_baseIPNS_11__hash_nodeINS_17__hash_value_typeINS_12basic_stringIcNS_11char_traitsIcEENS_9allocatorIcEEEEP8SSS_NodeIfEEEPvEEEEE10pointer_toB7v160006ERSH_, symObjAddr: 0x5F3C, symBinAddr: 0x1000076E4, symSize: 0x14 }
  - { offsetInCU: 0x37BEC, offset: 0x37BEC, size: 0x8, addend: 0x0, symName: __ZNSt3__14pairIKNS_12basic_stringIcNS_11char_traitsIcEENS_9allocatorIcEEEEP8SSS_NodeIfEED1Ev, symObjAddr: 0x5F98, symBinAddr: 0x100007740, symSize: 0x2C }
  - { offsetInCU: 0x37C18, offset: 0x37C18, size: 0x8, addend: 0x0, symName: __ZNSt3__14pairIKNS_12basic_stringIcNS_11char_traitsIcEENS_9allocatorIcEEEEP8SSS_NodeIfEED2Ev, symObjAddr: 0x5FC4, symBinAddr: 0x10000776C, symSize: 0x2C }
  - { offsetInCU: 0x37C44, offset: 0x37C44, size: 0x8, addend: 0x0, symName: __ZNSt3__117__hash_value_typeINS_12basic_stringIcNS_11char_traitsIcEENS_9allocatorIcEEEEP8SSS_NodeIfEE11__get_valueB7v160006Ev, symObjAddr: 0x5FF0, symBinAddr: 0x100007798, symSize: 0x24 }
  - { offsetInCU: 0x37C6A, offset: 0x37C6A, size: 0x8, addend: 0x0, symName: __ZNSt3__19allocatorINS_11__hash_nodeINS_17__hash_value_typeINS_12basic_stringIcNS_11char_traitsIcEENS0_IcEEEEP8SSS_NodeIfEEEPvEEE10deallocateB7v160006EPSD_m, symObjAddr: 0x604C, symBinAddr: 0x1000077F4, symSize: 0x44 }
  - { offsetInCU: 0x37CAC, offset: 0x37CAC, size: 0x8, addend: 0x0, symName: __ZNSt3__122__compressed_pair_elemINS_16__hash_node_baseIPNS_11__hash_nodeINS_17__hash_value_typeINS_12basic_stringIcNS_11char_traitsIcEENS_9allocatorIcEEEEP8SSS_NodeIfEEEPvEEEELi0ELb0EE5__getB7v160006Ev, symObjAddr: 0x6090, symBinAddr: 0x100007838, symSize: 0x14 }
  - { offsetInCU: 0x37CD2, offset: 0x37CD2, size: 0x8, addend: 0x0, symName: __ZNSt3__110unique_ptrIA_PNS_16__hash_node_baseIPNS_11__hash_nodeINS_17__hash_value_typeINS_12basic_stringIcNS_11char_traitsIcEENS_9allocatorIcEEEEP8SSS_NodeIfEEEPvEEEENS_25__bucket_list_deallocatorINS7_ISI_EEEEED2B7v160006Ev, symObjAddr: 0x60A4, symBinAddr: 0x10000784C, symSize: 0x30 }
  - { offsetInCU: 0x37CFC, offset: 0x37CFC, size: 0x8, addend: 0x0, symName: __ZNSt3__110unique_ptrIA_PNS_16__hash_node_baseIPNS_11__hash_nodeINS_17__hash_value_typeINS_12basic_stringIcNS_11char_traitsIcEENS_9allocatorIcEEEEP8SSS_NodeIfEEEPvEEEENS_25__bucket_list_deallocatorINS7_ISI_EEEEE5resetB7v160006EDn, symObjAddr: 0x60D4, symBinAddr: 0x10000787C, symSize: 0x6C }
  - { offsetInCU: 0x37D3D, offset: 0x37D3D, size: 0x8, addend: 0x0, symName: __ZNSt3__117__compressed_pairIPPNS_16__hash_node_baseIPNS_11__hash_nodeINS_17__hash_value_typeINS_12basic_stringIcNS_11char_traitsIcEENS_9allocatorIcEEEEP8SSS_NodeIfEEEPvEEEENS_25__bucket_list_deallocatorINS7_ISI_EEEEE5firstB7v160006Ev, symObjAddr: 0x6140, symBinAddr: 0x1000078E8, symSize: 0x24 }
  - { offsetInCU: 0x37D63, offset: 0x37D63, size: 0x8, addend: 0x0, symName: __ZNSt3__117__compressed_pairIPPNS_16__hash_node_baseIPNS_11__hash_nodeINS_17__hash_value_typeINS_12basic_stringIcNS_11char_traitsIcEENS_9allocatorIcEEEEP8SSS_NodeIfEEEPvEEEENS_25__bucket_list_deallocatorINS7_ISI_EEEEE6secondB7v160006Ev, symObjAddr: 0x6164, symBinAddr: 0x10000790C, symSize: 0x28 }
  - { offsetInCU: 0x37D89, offset: 0x37D89, size: 0x8, addend: 0x0, symName: __ZNSt3__125__bucket_list_deallocatorINS_9allocatorIPNS_16__hash_node_baseIPNS_11__hash_nodeINS_17__hash_value_typeINS_12basic_stringIcNS_11char_traitsIcEENS1_IcEEEEP8SSS_NodeIfEEEPvEEEEEEEclB7v160006EPSI_, symObjAddr: 0x618C, symBinAddr: 0x100007934, symSize: 0x58 }
  - { offsetInCU: 0x37DBE, offset: 0x37DBE, size: 0x8, addend: 0x0, symName: __ZNSt3__122__compressed_pair_elemIPPNS_16__hash_node_baseIPNS_11__hash_nodeINS_17__hash_value_typeINS_12basic_stringIcNS_11char_traitsIcEENS_9allocatorIcEEEEP8SSS_NodeIfEEEPvEEEELi0ELb0EE5__getB7v160006Ev, symObjAddr: 0x61E4, symBinAddr: 0x10000798C, symSize: 0x14 }
  - { offsetInCU: 0x37DE4, offset: 0x37DE4, size: 0x8, addend: 0x0, symName: __ZNSt3__122__compressed_pair_elemINS_25__bucket_list_deallocatorINS_9allocatorIPNS_16__hash_node_baseIPNS_11__hash_nodeINS_17__hash_value_typeINS_12basic_stringIcNS_11char_traitsIcEENS2_IcEEEEP8SSS_NodeIfEEEPvEEEEEEEELi1ELb0EE5__getB7v160006Ev, symObjAddr: 0x61F8, symBinAddr: 0x1000079A0, symSize: 0x14 }
  - { offsetInCU: 0x37E0A, offset: 0x37E0A, size: 0x8, addend: 0x0, symName: __ZNSt3__116allocator_traitsINS_9allocatorIPNS_16__hash_node_baseIPNS_11__hash_nodeINS_17__hash_value_typeINS_12basic_stringIcNS_11char_traitsIcEENS1_IcEEEEP8SSS_NodeIfEEEPvEEEEEEE10deallocateB7v160006ERSJ_PSI_m, symObjAddr: 0x620C, symBinAddr: 0x1000079B4, symSize: 0x34 }
  - { offsetInCU: 0x37E4C, offset: 0x37E4C, size: 0x8, addend: 0x0, symName: __ZNSt3__125__bucket_list_deallocatorINS_9allocatorIPNS_16__hash_node_baseIPNS_11__hash_nodeINS_17__hash_value_typeINS_12basic_stringIcNS_11char_traitsIcEENS1_IcEEEEP8SSS_NodeIfEEEPvEEEEEEE7__allocB7v160006Ev, symObjAddr: 0x6240, symBinAddr: 0x1000079E8, symSize: 0x24 }
  - { offsetInCU: 0x37E72, offset: 0x37E72, size: 0x8, addend: 0x0, symName: __ZNSt3__125__bucket_list_deallocatorINS_9allocatorIPNS_16__hash_node_baseIPNS_11__hash_nodeINS_17__hash_value_typeINS_12basic_stringIcNS_11char_traitsIcEENS1_IcEEEEP8SSS_NodeIfEEEPvEEEEEEE4sizeB7v160006Ev, symObjAddr: 0x6264, symBinAddr: 0x100007A0C, symSize: 0x24 }
  - { offsetInCU: 0x37E98, offset: 0x37E98, size: 0x8, addend: 0x0, symName: __ZNSt3__19allocatorIPNS_16__hash_node_baseIPNS_11__hash_nodeINS_17__hash_value_typeINS_12basic_stringIcNS_11char_traitsIcEENS0_IcEEEEP8SSS_NodeIfEEEPvEEEEE10deallocateB7v160006EPSH_m, symObjAddr: 0x6288, symBinAddr: 0x100007A30, symSize: 0x40 }
  - { offsetInCU: 0x37EDA, offset: 0x37EDA, size: 0x8, addend: 0x0, symName: __ZNSt3__117__compressed_pairImNS_9allocatorIPNS_16__hash_node_baseIPNS_11__hash_nodeINS_17__hash_value_typeINS_12basic_stringIcNS_11char_traitsIcEENS1_IcEEEEP8SSS_NodeIfEEEPvEEEEEEE6secondB7v160006Ev, symObjAddr: 0x62C8, symBinAddr: 0x100007A70, symSize: 0x24 }
  - { offsetInCU: 0x37F00, offset: 0x37F00, size: 0x8, addend: 0x0, symName: __ZNSt3__122__compressed_pair_elemINS_9allocatorIPNS_16__hash_node_baseIPNS_11__hash_nodeINS_17__hash_value_typeINS_12basic_stringIcNS_11char_traitsIcEENS1_IcEEEEP8SSS_NodeIfEEEPvEEEEEELi1ELb1EE5__getB7v160006Ev, symObjAddr: 0x62EC, symBinAddr: 0x100007A94, symSize: 0x14 }
  - { offsetInCU: 0x37F26, offset: 0x37F26, size: 0x8, addend: 0x0, symName: __ZNSt3__117__compressed_pairImNS_9allocatorIPNS_16__hash_node_baseIPNS_11__hash_nodeINS_17__hash_value_typeINS_12basic_stringIcNS_11char_traitsIcEENS1_IcEEEEP8SSS_NodeIfEEEPvEEEEEEE5firstB7v160006Ev, symObjAddr: 0x6300, symBinAddr: 0x100007AA8, symSize: 0x24 }
  - { offsetInCU: 0x37F4C, offset: 0x37F4C, size: 0x8, addend: 0x0, symName: __ZNSt3__16vectorIP8SSS_NodeIfENS_9allocatorIS3_EEED2B7v160006Ev, symObjAddr: 0x6324, symBinAddr: 0x100007ACC, symSize: 0x44 }
  - { offsetInCU: 0x37F76, offset: 0x37F76, size: 0x8, addend: 0x0, symName: __ZNSt3__16vectorIP8SSS_NodeIfENS_9allocatorIS3_EEE16__destroy_vectorC1ERS6_, symObjAddr: 0x6368, symBinAddr: 0x100007B10, symSize: 0x34 }
  - { offsetInCU: 0x37FAF, offset: 0x37FAF, size: 0x8, addend: 0x0, symName: __ZNSt3__16vectorIP8SSS_NodeIfENS_9allocatorIS3_EEE16__destroy_vectorclB7v160006Ev, symObjAddr: 0x639C, symBinAddr: 0x100007B44, symSize: 0x9C }
  - { offsetInCU: 0x37FD5, offset: 0x37FD5, size: 0x8, addend: 0x0, symName: __ZNSt3__16vectorIP8SSS_NodeIfENS_9allocatorIS3_EEE16__destroy_vectorC2ERS6_, symObjAddr: 0x6438, symBinAddr: 0x100007BE0, symSize: 0x20 }
  - { offsetInCU: 0x3800E, offset: 0x3800E, size: 0x8, addend: 0x0, symName: __ZNKSt3__16vectorIP8SSS_NodeIfENS_9allocatorIS3_EEE17__annotate_deleteB7v160006Ev, symObjAddr: 0x6458, symBinAddr: 0x100007C00, symSize: 0xB8 }
  - { offsetInCU: 0x38034, offset: 0x38034, size: 0x8, addend: 0x0, symName: __ZNSt3__16vectorIP8SSS_NodeIfENS_9allocatorIS3_EEE7__clearB7v160006Ev, symObjAddr: 0x6520, symBinAddr: 0x100007CC8, symSize: 0x28 }
  - { offsetInCU: 0x3805A, offset: 0x3805A, size: 0x8, addend: 0x0, symName: __ZNSt3__116allocator_traitsINS_9allocatorIP8SSS_NodeIfEEEE10deallocateB7v160006ERS5_PS4_m, symObjAddr: 0x6548, symBinAddr: 0x100007CF0, symSize: 0x34 }
  - { offsetInCU: 0x3809C, offset: 0x3809C, size: 0x8, addend: 0x0, symName: __ZNSt3__16vectorIP8SSS_NodeIfENS_9allocatorIS3_EEE7__allocB7v160006Ev, symObjAddr: 0x657C, symBinAddr: 0x100007D24, symSize: 0x28 }
  - { offsetInCU: 0x380C2, offset: 0x380C2, size: 0x8, addend: 0x0, symName: __ZNKSt3__16vectorIP8SSS_NodeIfENS_9allocatorIS3_EEE8capacityB7v160006Ev, symObjAddr: 0x65A4, symBinAddr: 0x100007D4C, symSize: 0x40 }
  - { offsetInCU: 0x380E8, offset: 0x380E8, size: 0x8, addend: 0x0, symName: __ZNKSt3__16vectorIP8SSS_NodeIfENS_9allocatorIS3_EEE31__annotate_contiguous_containerB7v160006EPKvS8_S8_S8_, symObjAddr: 0x65E4, symBinAddr: 0x100007D8C, symSize: 0x20 }
  - { offsetInCU: 0x3813E, offset: 0x3813E, size: 0x8, addend: 0x0, symName: __ZNKSt3__16vectorIP8SSS_NodeIfENS_9allocatorIS3_EEE4dataB7v160006Ev, symObjAddr: 0x6604, symBinAddr: 0x100007DAC, symSize: 0x28 }
  - { offsetInCU: 0x38164, offset: 0x38164, size: 0x8, addend: 0x0, symName: __ZNKSt3__16vectorIP8SSS_NodeIfENS_9allocatorIS3_EEE4sizeB7v160006Ev, symObjAddr: 0x662C, symBinAddr: 0x100007DD4, symSize: 0x28 }
  - { offsetInCU: 0x3818A, offset: 0x3818A, size: 0x8, addend: 0x0, symName: __ZNSt3__16vectorIP8SSS_NodeIfENS_9allocatorIS3_EEE22__base_destruct_at_endB7v160006EPS3_, symObjAddr: 0x6668, symBinAddr: 0x100007E10, symSize: 0x8C }
  - { offsetInCU: 0x381CE, offset: 0x381CE, size: 0x8, addend: 0x0, symName: __ZNSt3__116allocator_traitsINS_9allocatorIP8SSS_NodeIfEEEE7destroyB7v160006IS4_vvEEvRS5_PT_, symObjAddr: 0x66F4, symBinAddr: 0x100007E9C, symSize: 0x28 }
  - { offsetInCU: 0x38209, offset: 0x38209, size: 0x8, addend: 0x0, symName: __ZNSt3__19allocatorIP8SSS_NodeIfEE10deallocateB7v160006EPS3_m, symObjAddr: 0x6750, symBinAddr: 0x100007EF8, symSize: 0x40 }
  - { offsetInCU: 0x3824B, offset: 0x3824B, size: 0x8, addend: 0x0, symName: __ZNSt3__117__compressed_pairIPP8SSS_NodeIfENS_9allocatorIS3_EEE6secondB7v160006Ev, symObjAddr: 0x6790, symBinAddr: 0x100007F38, symSize: 0x24 }
  - { offsetInCU: 0x38271, offset: 0x38271, size: 0x8, addend: 0x0, symName: __ZNSt3__122__compressed_pair_elemINS_9allocatorIP8SSS_NodeIfEEELi1ELb1EE5__getB7v160006Ev, symObjAddr: 0x67B4, symBinAddr: 0x100007F5C, symSize: 0x14 }
  - { offsetInCU: 0x38297, offset: 0x38297, size: 0x8, addend: 0x0, symName: __ZNKSt3__16vectorIP8SSS_NodeIfENS_9allocatorIS3_EEE9__end_capB7v160006Ev, symObjAddr: 0x67C8, symBinAddr: 0x100007F70, symSize: 0x28 }
  - { offsetInCU: 0x382BD, offset: 0x382BD, size: 0x8, addend: 0x0, symName: __ZNKSt3__117__compressed_pairIPP8SSS_NodeIfENS_9allocatorIS3_EEE5firstB7v160006Ev, symObjAddr: 0x67F0, symBinAddr: 0x100007F98, symSize: 0x24 }
  - { offsetInCU: 0x382E3, offset: 0x382E3, size: 0x8, addend: 0x0, symName: __ZNKSt3__122__compressed_pair_elemIPP8SSS_NodeIfELi0ELb0EE5__getB7v160006Ev, symObjAddr: 0x6814, symBinAddr: 0x100007FBC, symSize: 0x14 }
  - { offsetInCU: 0x38309, offset: 0x38309, size: 0x8, addend: 0x0, symName: __ZNSt3__16vectorIfNS_9allocatorIfEEED2B7v160006Ev, symObjAddr: 0x6828, symBinAddr: 0x100007FD0, symSize: 0x44 }
  - { offsetInCU: 0x38333, offset: 0x38333, size: 0x8, addend: 0x0, symName: __ZNSt3__16vectorIfNS_9allocatorIfEEE16__destroy_vectorC1ERS3_, symObjAddr: 0x686C, symBinAddr: 0x100008014, symSize: 0x34 }
  - { offsetInCU: 0x3836C, offset: 0x3836C, size: 0x8, addend: 0x0, symName: __ZNSt3__16vectorIfNS_9allocatorIfEEE16__destroy_vectorclB7v160006Ev, symObjAddr: 0x68A0, symBinAddr: 0x100008048, symSize: 0x9C }
  - { offsetInCU: 0x38392, offset: 0x38392, size: 0x8, addend: 0x0, symName: __ZNSt3__16vectorIfNS_9allocatorIfEEE16__destroy_vectorC2ERS3_, symObjAddr: 0x693C, symBinAddr: 0x1000080E4, symSize: 0x20 }
  - { offsetInCU: 0x383CB, offset: 0x383CB, size: 0x8, addend: 0x0, symName: __ZNKSt3__16vectorIfNS_9allocatorIfEEE17__annotate_deleteB7v160006Ev, symObjAddr: 0x695C, symBinAddr: 0x100008104, symSize: 0xB8 }
  - { offsetInCU: 0x383F1, offset: 0x383F1, size: 0x8, addend: 0x0, symName: __ZNSt3__16vectorIfNS_9allocatorIfEEE7__clearB7v160006Ev, symObjAddr: 0x6A24, symBinAddr: 0x1000081CC, symSize: 0x28 }
  - { offsetInCU: 0x38417, offset: 0x38417, size: 0x8, addend: 0x0, symName: __ZNSt3__116allocator_traitsINS_9allocatorIfEEE10deallocateB7v160006ERS2_Pfm, symObjAddr: 0x6A4C, symBinAddr: 0x1000081F4, symSize: 0x34 }
  - { offsetInCU: 0x38459, offset: 0x38459, size: 0x8, addend: 0x0, symName: __ZNSt3__16vectorIfNS_9allocatorIfEEE7__allocB7v160006Ev, symObjAddr: 0x6A80, symBinAddr: 0x100008228, symSize: 0x28 }
  - { offsetInCU: 0x3847F, offset: 0x3847F, size: 0x8, addend: 0x0, symName: __ZNKSt3__16vectorIfNS_9allocatorIfEEE8capacityB7v160006Ev, symObjAddr: 0x6AA8, symBinAddr: 0x100008250, symSize: 0x40 }
  - { offsetInCU: 0x384A5, offset: 0x384A5, size: 0x8, addend: 0x0, symName: __ZNKSt3__16vectorIfNS_9allocatorIfEEE31__annotate_contiguous_containerB7v160006EPKvS5_S5_S5_, symObjAddr: 0x6AE8, symBinAddr: 0x100008290, symSize: 0x20 }
  - { offsetInCU: 0x384FB, offset: 0x384FB, size: 0x8, addend: 0x0, symName: __ZNKSt3__16vectorIfNS_9allocatorIfEEE4dataB7v160006Ev, symObjAddr: 0x6B08, symBinAddr: 0x1000082B0, symSize: 0x28 }
  - { offsetInCU: 0x38521, offset: 0x38521, size: 0x8, addend: 0x0, symName: __ZNKSt3__16vectorIfNS_9allocatorIfEEE4sizeB7v160006Ev, symObjAddr: 0x6B30, symBinAddr: 0x1000082D8, symSize: 0x28 }
  - { offsetInCU: 0x38547, offset: 0x38547, size: 0x8, addend: 0x0, symName: __ZNSt3__16vectorIfNS_9allocatorIfEEE22__base_destruct_at_endB7v160006EPf, symObjAddr: 0x6B6C, symBinAddr: 0x100008314, symSize: 0x8C }
  - { offsetInCU: 0x3858B, offset: 0x3858B, size: 0x8, addend: 0x0, symName: __ZNSt3__116allocator_traitsINS_9allocatorIfEEE7destroyB7v160006IfvvEEvRS2_PT_, symObjAddr: 0x6BF8, symBinAddr: 0x1000083A0, symSize: 0x28 }
  - { offsetInCU: 0x385C6, offset: 0x385C6, size: 0x8, addend: 0x0, symName: __ZNSt3__19allocatorIfE10deallocateB7v160006EPfm, symObjAddr: 0x6C54, symBinAddr: 0x1000083FC, symSize: 0x40 }
  - { offsetInCU: 0x38608, offset: 0x38608, size: 0x8, addend: 0x0, symName: __ZNSt3__117__compressed_pairIPfNS_9allocatorIfEEE6secondB7v160006Ev, symObjAddr: 0x6C94, symBinAddr: 0x10000843C, symSize: 0x24 }
  - { offsetInCU: 0x3862E, offset: 0x3862E, size: 0x8, addend: 0x0, symName: __ZNSt3__122__compressed_pair_elemINS_9allocatorIfEELi1ELb1EE5__getB7v160006Ev, symObjAddr: 0x6CB8, symBinAddr: 0x100008460, symSize: 0x14 }
  - { offsetInCU: 0x38654, offset: 0x38654, size: 0x8, addend: 0x0, symName: __ZNKSt3__16vectorIfNS_9allocatorIfEEE9__end_capB7v160006Ev, symObjAddr: 0x6CCC, symBinAddr: 0x100008474, symSize: 0x28 }
  - { offsetInCU: 0x3867A, offset: 0x3867A, size: 0x8, addend: 0x0, symName: __ZNKSt3__117__compressed_pairIPfNS_9allocatorIfEEE5firstB7v160006Ev, symObjAddr: 0x6CF4, symBinAddr: 0x10000849C, symSize: 0x24 }
  - { offsetInCU: 0x386A0, offset: 0x386A0, size: 0x8, addend: 0x0, symName: __ZNKSt3__122__compressed_pair_elemIPfLi0ELb0EE5__getB7v160006Ev, symObjAddr: 0x6D18, symBinAddr: 0x1000084C0, symSize: 0x14 }
  - { offsetInCU: 0x386C6, offset: 0x386C6, size: 0x8, addend: 0x0, symName: __ZN21CoreAudioInputBackendIfEC2Eihhmm7SSS_FMT, symObjAddr: 0x6D2C, symBinAddr: 0x1000084D4, symSize: 0xD8 }
  - { offsetInCU: 0x38744, offset: 0x38744, size: 0x8, addend: 0x0, symName: __ZN11SSS_BackendIfE12set_mixer_fnENSt3__18functionIFvP9SSS_MixerIfEPfmEEE, symObjAddr: 0x6E04, symBinAddr: 0x1000085AC, symSize: 0x34 }
  - { offsetInCU: 0x38779, offset: 0x38779, size: 0x8, addend: 0x0, symName: __ZNSt3__18functionIFvP9SSS_MixerIfEPfmEEC1ERKS6_, symObjAddr: 0x6E38, symBinAddr: 0x1000085E0, symSize: 0x34 }
  - { offsetInCU: 0x387B4, offset: 0x387B4, size: 0x8, addend: 0x0, symName: __ZNSt3__18functionIFvP9SSS_MixerIfEPfmEEaSERKS6_, symObjAddr: 0x6E6C, symBinAddr: 0x100008614, symSize: 0x84 }
  - { offsetInCU: 0x387EB, offset: 0x387EB, size: 0x8, addend: 0x0, symName: __ZNSt3__18functionIFvP9SSS_MixerIfEPfmEE4swapERS6_, symObjAddr: 0x6EF0, symBinAddr: 0x100008698, symSize: 0x2C }
  - { offsetInCU: 0x38822, offset: 0x38822, size: 0x8, addend: 0x0, symName: __ZNSt3__110__function12__value_funcIFvP9SSS_MixerIfEPfmEE4swapB7v160006ERS7_, symObjAddr: 0x6F1C, symBinAddr: 0x1000086C4, symSize: 0x304 }
  - { offsetInCU: 0x3887B, offset: 0x3887B, size: 0x8, addend: 0x0, symName: __ZNSt3__110__function12__value_funcIFvP9SSS_MixerIfEPfmEE9__as_baseEPv, symObjAddr: 0x7220, symBinAddr: 0x1000089C8, symSize: 0x14 }
  - { offsetInCU: 0x3889F, offset: 0x3889F, size: 0x8, addend: 0x0, symName: __ZNSt3__18functionIFvP9SSS_MixerIfEPfmEEC2ERKS6_, symObjAddr: 0x7270, symBinAddr: 0x100008A18, symSize: 0x34 }
  - { offsetInCU: 0x388DA, offset: 0x388DA, size: 0x8, addend: 0x0, symName: __ZNSt3__110__function12__value_funcIFvP9SSS_MixerIfEPfmEEC1B7v160006ERKS7_, symObjAddr: 0x72A4, symBinAddr: 0x100008A4C, symSize: 0x34 }
  - { offsetInCU: 0x38913, offset: 0x38913, size: 0x8, addend: 0x0, symName: __ZNSt3__110__function12__value_funcIFvP9SSS_MixerIfEPfmEEC2B7v160006ERKS7_, symObjAddr: 0x72D8, symBinAddr: 0x100008A80, symSize: 0xC0 }
  - { offsetInCU: 0x3894C, offset: 0x3894C, size: 0x8, addend: 0x0, symName: __ZNSt3__18functionIFvP9SSS_MixerIfEPfmEEC2IPS5_vEET_, symObjAddr: 0x7398, symBinAddr: 0x100008B40, symSize: 0x38 }
  - { offsetInCU: 0x38991, offset: 0x38991, size: 0x8, addend: 0x0, symName: __ZNSt3__110__function12__value_funcIFvP9SSS_MixerIfEPfmEEC1B7v160006IPS6_vEEOT_, symObjAddr: 0x73D0, symBinAddr: 0x100008B78, symSize: 0x50 }
  - { offsetInCU: 0x389D4, offset: 0x389D4, size: 0x8, addend: 0x0, symName: __ZNSt3__19allocatorIPFvP9SSS_MixerIfEPfmEEC1B7v160006Ev, symObjAddr: 0x7420, symBinAddr: 0x100008BC8, symSize: 0x2C }
  - { offsetInCU: 0x389FE, offset: 0x389FE, size: 0x8, addend: 0x0, symName: __ZNSt3__110__function12__value_funcIFvP9SSS_MixerIfEPfmEEC1B7v160006IPS6_NS_9allocatorIS9_EEEEOT_RKT0_, symObjAddr: 0x744C, symBinAddr: 0x100008BF4, symSize: 0x3C }
  - { offsetInCU: 0x38A58, offset: 0x38A58, size: 0x8, addend: 0x0, symName: __ZNSt3__19allocatorIPFvP9SSS_MixerIfEPfmEEC2B7v160006Ev, symObjAddr: 0x7488, symBinAddr: 0x100008C30, symSize: 0x2C }
  - { offsetInCU: 0x38A82, offset: 0x38A82, size: 0x8, addend: 0x0, symName: __ZNSt3__116__non_trivial_ifILb1ENS_9allocatorIPFvP9SSS_MixerIfEPfmEEEEC2B7v160006Ev, symObjAddr: 0x74B4, symBinAddr: 0x100008C5C, symSize: 0x14 }
  - { offsetInCU: 0x38AAC, offset: 0x38AAC, size: 0x8, addend: 0x0, symName: __ZNSt3__110__function12__value_funcIFvP9SSS_MixerIfEPfmEEC2B7v160006IPS6_NS_9allocatorIS9_EEEEOT_RKT0_, symObjAddr: 0x74C8, symBinAddr: 0x100008C70, symSize: 0x98 }
  - { offsetInCU: 0x38B3A, offset: 0x38B3A, size: 0x8, addend: 0x0, symName: __ZNSt3__19allocatorINS_10__function6__funcIPFvP9SSS_MixerIfEPfmENS0_IS8_EES7_EEEC1B7v160006IS8_EERKNS0_IT_EE, symObjAddr: 0x7580, symBinAddr: 0x100008D28, symSize: 0x34 }
  - { offsetInCU: 0x38B82, offset: 0x38B82, size: 0x8, addend: 0x0, symName: __ZNSt3__19allocatorIPFvP9SSS_MixerIfEPfmEEC1B7v160006INS_10__function6__funcIS6_S7_S5_EEEERKNS0_IT_EE, symObjAddr: 0x75B4, symBinAddr: 0x100008D5C, symSize: 0x34 }
  - { offsetInCU: 0x38BBF, offset: 0x38BBF, size: 0x8, addend: 0x0, symName: __ZNSt3__110__function6__funcIPFvP9SSS_MixerIfEPfmENS_9allocatorIS7_EES6_EC1B7v160006EOS7_OS9_, symObjAddr: 0x75E8, symBinAddr: 0x100008D90, symSize: 0x3C }
  - { offsetInCU: 0x38C07, offset: 0x38C07, size: 0x8, addend: 0x0, symName: __ZNSt3__19allocatorINS_10__function6__funcIPFvP9SSS_MixerIfEPfmENS0_IS8_EES7_EEEC2B7v160006IS8_EERKNS0_IT_EE, symObjAddr: 0x7624, symBinAddr: 0x100008DCC, symSize: 0x30 }
  - { offsetInCU: 0x38C44, offset: 0x38C44, size: 0x8, addend: 0x0, symName: __ZNSt3__116__non_trivial_ifILb1ENS_9allocatorINS_10__function6__funcIPFvP9SSS_MixerIfEPfmENS1_IS9_EES8_EEEEEC2B7v160006Ev, symObjAddr: 0x7654, symBinAddr: 0x100008DFC, symSize: 0x14 }
  - { offsetInCU: 0x38C6E, offset: 0x38C6E, size: 0x8, addend: 0x0, symName: __ZNSt3__19allocatorIPFvP9SSS_MixerIfEPfmEEC2B7v160006INS_10__function6__funcIS6_S7_S5_EEEERKNS0_IT_EE, symObjAddr: 0x7668, symBinAddr: 0x100008E10, symSize: 0x30 }
  - { offsetInCU: 0x38CAB, offset: 0x38CAB, size: 0x8, addend: 0x0, symName: __ZNSt3__110__function6__funcIPFvP9SSS_MixerIfEPfmENS_9allocatorIS7_EES6_EC2B7v160006EOS7_OS9_, symObjAddr: 0x7698, symBinAddr: 0x100008E40, symSize: 0x88 }
  - { offsetInCU: 0x38CF3, offset: 0x38CF3, size: 0x8, addend: 0x0, symName: __ZNSt3__110__function6__baseIFvP9SSS_MixerIfEPfmEEC2B7v160006Ev, symObjAddr: 0x7720, symBinAddr: 0x100008EC8, symSize: 0x24 }
  - { offsetInCU: 0x38D1D, offset: 0x38D1D, size: 0x8, addend: 0x0, symName: __ZNSt3__110__function12__alloc_funcIPFvP9SSS_MixerIfEPfmENS_9allocatorIS7_EES6_EC1B7v160006EOS7_OS9_, symObjAddr: 0x7744, symBinAddr: 0x100008EEC, symSize: 0x3C }
  - { offsetInCU: 0x38D63, offset: 0x38D63, size: 0x8, addend: 0x0, symName: __ZNSt3__110__function6__baseIFvP9SSS_MixerIfEPfmEED2Ev, symObjAddr: 0x7780, symBinAddr: 0x100008F28, symSize: 0x14 }
  - { offsetInCU: 0x38D8D, offset: 0x38D8D, size: 0x8, addend: 0x0, symName: __ZNSt3__110__function6__funcIPFvP9SSS_MixerIfEPfmENS_9allocatorIS7_EES6_ED1Ev, symObjAddr: 0x7794, symBinAddr: 0x100008F3C, symSize: 0x2C }
  - { offsetInCU: 0x38DBA, offset: 0x38DBA, size: 0x8, addend: 0x0, symName: __ZNSt3__110__function6__funcIPFvP9SSS_MixerIfEPfmENS_9allocatorIS7_EES6_ED0Ev, symObjAddr: 0x77C0, symBinAddr: 0x100008F68, symSize: 0x30 }
  - { offsetInCU: 0x38DE7, offset: 0x38DE7, size: 0x8, addend: 0x0, symName: __ZNKSt3__110__function6__funcIPFvP9SSS_MixerIfEPfmENS_9allocatorIS7_EES6_E7__cloneEv, symObjAddr: 0x77F0, symBinAddr: 0x100008F98, symSize: 0xFC }
  - { offsetInCU: 0x38E39, offset: 0x38E39, size: 0x8, addend: 0x0, symName: __ZNKSt3__110__function6__funcIPFvP9SSS_MixerIfEPfmENS_9allocatorIS7_EES6_E7__cloneEPNS0_6__baseIS6_EE, symObjAddr: 0x78EC, symBinAddr: 0x100009094, symSize: 0x58 }
  - { offsetInCU: 0x38E70, offset: 0x38E70, size: 0x8, addend: 0x0, symName: __ZNSt3__110__function6__funcIPFvP9SSS_MixerIfEPfmENS_9allocatorIS7_EES6_E7destroyEv, symObjAddr: 0x7944, symBinAddr: 0x1000090EC, symSize: 0x28 }
  - { offsetInCU: 0x38E98, offset: 0x38E98, size: 0x8, addend: 0x0, symName: __ZNSt3__110__function6__funcIPFvP9SSS_MixerIfEPfmENS_9allocatorIS7_EES6_E18destroy_deallocateEv, symObjAddr: 0x796C, symBinAddr: 0x100009114, symSize: 0x58 }
  - { offsetInCU: 0x38EDB, offset: 0x38EDB, size: 0x8, addend: 0x0, symName: __ZNSt3__110__function6__funcIPFvP9SSS_MixerIfEPfmENS_9allocatorIS7_EES6_EclEOS4_OS5_Om, symObjAddr: 0x79C4, symBinAddr: 0x10000916C, symSize: 0x40 }
  - { offsetInCU: 0x38F30, offset: 0x38F30, size: 0x8, addend: 0x0, symName: __ZNKSt3__110__function6__funcIPFvP9SSS_MixerIfEPfmENS_9allocatorIS7_EES6_E6targetERKSt9type_info, symObjAddr: 0x7A04, symBinAddr: 0x1000091AC, symSize: 0x60 }
  - { offsetInCU: 0x38F67, offset: 0x38F67, size: 0x8, addend: 0x0, symName: __ZNKSt3__110__function6__funcIPFvP9SSS_MixerIfEPfmENS_9allocatorIS7_EES6_E11target_typeEv, symObjAddr: 0x7A64, symBinAddr: 0x10000920C, symSize: 0x18 }
  - { offsetInCU: 0x38F8F, offset: 0x38F8F, size: 0x8, addend: 0x0, symName: __ZNSt3__110__function6__baseIFvP9SSS_MixerIfEPfmEED1Ev, symObjAddr: 0x7A7C, symBinAddr: 0x100009224, symSize: 0x14 }
  - { offsetInCU: 0x38FB9, offset: 0x38FB9, size: 0x8, addend: 0x0, symName: __ZNSt3__110__function6__baseIFvP9SSS_MixerIfEPfmEED0Ev, symObjAddr: 0x7A90, symBinAddr: 0x100009238, symSize: 0xC }
  - { offsetInCU: 0x38FE3, offset: 0x38FE3, size: 0x8, addend: 0x0, symName: __ZNSt3__110__function12__alloc_funcIPFvP9SSS_MixerIfEPfmENS_9allocatorIS7_EES6_EC2B7v160006EOS7_OS9_, symObjAddr: 0x7A9C, symBinAddr: 0x100009244, symSize: 0x5C }
  - { offsetInCU: 0x39029, offset: 0x39029, size: 0x8, addend: 0x0, symName: __ZNSt3__117__compressed_pairIPFvP9SSS_MixerIfEPfmENS_9allocatorIS6_EEEC1B7v160006IJOS6_EJOS8_EEENS_21piecewise_construct_tENS_5tupleIJDpT_EEENSE_IJDpT0_EEE, symObjAddr: 0x7B50, symBinAddr: 0x1000092F8, symSize: 0x3C }
  - { offsetInCU: 0x39093, offset: 0x39093, size: 0x8, addend: 0x0, symName: __ZNSt3__15tupleIJOPFvP9SSS_MixerIfEPfmEEEC1B7v160006IJS6_ELi0EEEDpOT_, symObjAddr: 0x7B8C, symBinAddr: 0x100009334, symSize: 0x34 }
  - { offsetInCU: 0x390DD, offset: 0x390DD, size: 0x8, addend: 0x0, symName: __ZNSt3__15tupleIJOPFvP9SSS_MixerIfEPfmEEEC2B7v160006IJS6_ELi0EEEDpOT_, symObjAddr: 0x7BC0, symBinAddr: 0x100009368, symSize: 0x34 }
  - { offsetInCU: 0x39127, offset: 0x39127, size: 0x8, addend: 0x0, symName: __ZNSt3__112__tuple_implINS_15__tuple_indicesIJLm0EEEEJOPFvP9SSS_MixerIfEPfmEEEC1B7v160006IJLm0EEJS9_EJEJEJS8_EEENS1_IJXspT_EEEENS_13__tuple_typesIJDpT0_EEENS1_IJXspT1_EEEENSD_IJDpT2_EEEDpOT3_, symObjAddr: 0x7BF4, symBinAddr: 0x10000939C, symSize: 0x34 }
  - { offsetInCU: 0x391BC, offset: 0x391BC, size: 0x8, addend: 0x0, symName: __ZNSt3__112__tuple_implINS_15__tuple_indicesIJLm0EEEEJOPFvP9SSS_MixerIfEPfmEEEC2B7v160006IJLm0EEJS9_EJEJEJS8_EEENS1_IJXspT_EEEENS_13__tuple_typesIJDpT0_EEENS1_IJXspT1_EEEENSD_IJDpT2_EEEDpOT3_, symObjAddr: 0x7C28, symBinAddr: 0x1000093D0, symSize: 0x34 }
  - { offsetInCU: 0x39251, offset: 0x39251, size: 0x8, addend: 0x0, symName: __ZNSt3__112__tuple_leafILm0EOPFvP9SSS_MixerIfEPfmELb0EEC2B7v160006IS6_vEEOT_, symObjAddr: 0x7C5C, symBinAddr: 0x100009404, symSize: 0x20 }
  - { offsetInCU: 0x39294, offset: 0x39294, size: 0x8, addend: 0x0, symName: __ZNSt3__15tupleIJONS_9allocatorIPFvP9SSS_MixerIfEPfmEEEEEC1B7v160006IJS8_ELi0EEEDpOT_, symObjAddr: 0x7C7C, symBinAddr: 0x100009424, symSize: 0x34 }
  - { offsetInCU: 0x392DE, offset: 0x392DE, size: 0x8, addend: 0x0, symName: __ZNSt3__15tupleIJONS_9allocatorIPFvP9SSS_MixerIfEPfmEEEEEC2B7v160006IJS8_ELi0EEEDpOT_, symObjAddr: 0x7CB0, symBinAddr: 0x100009458, symSize: 0x34 }
  - { offsetInCU: 0x39328, offset: 0x39328, size: 0x8, addend: 0x0, symName: __ZNSt3__112__tuple_implINS_15__tuple_indicesIJLm0EEEEJONS_9allocatorIPFvP9SSS_MixerIfEPfmEEEEEC1B7v160006IJLm0EEJSB_EJEJEJSA_EEENS1_IJXspT_EEEENS_13__tuple_typesIJDpT0_EEENS1_IJXspT1_EEEENSF_IJDpT2_EEEDpOT3_, symObjAddr: 0x7CE4, symBinAddr: 0x10000948C, symSize: 0x34 }
  - { offsetInCU: 0x393BD, offset: 0x393BD, size: 0x8, addend: 0x0, symName: __ZNSt3__112__tuple_implINS_15__tuple_indicesIJLm0EEEEJONS_9allocatorIPFvP9SSS_MixerIfEPfmEEEEEC2B7v160006IJLm0EEJSB_EJEJEJSA_EEENS1_IJXspT_EEEENS_13__tuple_typesIJDpT0_EEENS1_IJXspT1_EEEENSF_IJDpT2_EEEDpOT3_, symObjAddr: 0x7D18, symBinAddr: 0x1000094C0, symSize: 0x34 }
  - { offsetInCU: 0x39452, offset: 0x39452, size: 0x8, addend: 0x0, symName: __ZNSt3__112__tuple_leafILm0EONS_9allocatorIPFvP9SSS_MixerIfEPfmEEELb0EEC2B7v160006IS8_vEEOT_, symObjAddr: 0x7D4C, symBinAddr: 0x1000094F4, symSize: 0x20 }
  - { offsetInCU: 0x39495, offset: 0x39495, size: 0x8, addend: 0x0, symName: __ZNSt3__117__compressed_pairIPFvP9SSS_MixerIfEPfmENS_9allocatorIS6_EEEC2B7v160006IJOS6_EJOS8_EEENS_21piecewise_construct_tENS_5tupleIJDpT_EEENSE_IJDpT0_EEE, symObjAddr: 0x7D6C, symBinAddr: 0x100009514, symSize: 0x54 }
  - { offsetInCU: 0x394FF, offset: 0x394FF, size: 0x8, addend: 0x0, symName: __ZNSt3__122__compressed_pair_elemIPFvP9SSS_MixerIfEPfmELi0ELb0EEC2B7v160006IJOS6_EJLm0EEEENS_21piecewise_construct_tENS_5tupleIJDpT_EEENS_15__tuple_indicesIJXspT0_EEEE, symObjAddr: 0x7DC0, symBinAddr: 0x100009568, symSize: 0x44 }
  - { offsetInCU: 0x39562, offset: 0x39562, size: 0x8, addend: 0x0, symName: __ZNSt3__122__compressed_pair_elemINS_9allocatorIPFvP9SSS_MixerIfEPfmEEELi1ELb1EEC2B7v160006IJOS8_EJLm0EEEENS_21piecewise_construct_tENS_5tupleIJDpT_EEENS_15__tuple_indicesIJXspT0_EEEE, symObjAddr: 0x7E04, symBinAddr: 0x1000095AC, symSize: 0x38 }
  - { offsetInCU: 0x395C5, offset: 0x395C5, size: 0x8, addend: 0x0, symName: __ZNSt3__112__tuple_leafILm0EOPFvP9SSS_MixerIfEPfmELb0EE3getB7v160006Ev, symObjAddr: 0x7E60, symBinAddr: 0x100009608, symSize: 0x18 }
  - { offsetInCU: 0x395EB, offset: 0x395EB, size: 0x8, addend: 0x0, symName: __ZNSt3__112__tuple_leafILm0EONS_9allocatorIPFvP9SSS_MixerIfEPfmEEELb0EE3getB7v160006Ev, symObjAddr: 0x7E9C, symBinAddr: 0x100009644, symSize: 0x18 }
  - { offsetInCU: 0x39611, offset: 0x39611, size: 0x8, addend: 0x0, symName: __ZNSt3__110__function6__funcIPFvP9SSS_MixerIfEPfmENS_9allocatorIS7_EES6_ED2Ev, symObjAddr: 0x7EB4, symBinAddr: 0x10000965C, symSize: 0x2C }
  - { offsetInCU: 0x3963E, offset: 0x3963E, size: 0x8, addend: 0x0, symName: __ZNKSt3__110__function12__alloc_funcIPFvP9SSS_MixerIfEPfmENS_9allocatorIS7_EES6_E15__get_allocatorB7v160006Ev, symObjAddr: 0x7EE0, symBinAddr: 0x100009688, symSize: 0x24 }
  - { offsetInCU: 0x39664, offset: 0x39664, size: 0x8, addend: 0x0, symName: __ZNSt3__19allocatorINS_10__function6__funcIPFvP9SSS_MixerIfEPfmENS0_IS8_EES7_EEE8allocateB7v160006Em, symObjAddr: 0x7F04, symBinAddr: 0x1000096AC, symSize: 0x58 }
  - { offsetInCU: 0x396A9, offset: 0x396A9, size: 0x8, addend: 0x0, symName: __ZNSt3__122__allocator_destructorINS_9allocatorINS_10__function6__funcIPFvP9SSS_MixerIfEPfmENS1_IS9_EES8_EEEEEC1B7v160006ERSC_m, symObjAddr: 0x7F5C, symBinAddr: 0x100009704, symSize: 0x3C }
  - { offsetInCU: 0x3978B, offset: 0x3978B, size: 0x8, addend: 0x0, symName: __ZNSt3__110unique_ptrINS_10__function6__funcIPFvP9SSS_MixerIfEPfmENS_9allocatorIS8_EES7_EENS_22__allocator_destructorINS9_ISB_EEEEEC1B7v160006ILb1EvEEPSB_NS_16__dependent_typeINS_27__unique_ptr_deleter_sfinaeISE_EEXT_EE20__good_rval_ref_typeE, symObjAddr: 0x7F98, symBinAddr: 0x100009740, symSize: 0x3C }
  - { offsetInCU: 0x397DC, offset: 0x397DC, size: 0x8, addend: 0x0, symName: __ZNKSt3__110unique_ptrINS_10__function6__funcIPFvP9SSS_MixerIfEPfmENS_9allocatorIS8_EES7_EENS_22__allocator_destructorINS9_ISB_EEEEE3getB7v160006Ev, symObjAddr: 0x7FD4, symBinAddr: 0x10000977C, symSize: 0x28 }
  - { offsetInCU: 0x39802, offset: 0x39802, size: 0x8, addend: 0x0, symName: __ZNKSt3__110__function12__alloc_funcIPFvP9SSS_MixerIfEPfmENS_9allocatorIS7_EES6_E8__targetB7v160006Ev, symObjAddr: 0x7FFC, symBinAddr: 0x1000097A4, symSize: 0x24 }
  - { offsetInCU: 0x39828, offset: 0x39828, size: 0x8, addend: 0x0, symName: __ZNSt3__110__function6__funcIPFvP9SSS_MixerIfEPfmENS_9allocatorIS7_EES6_EC1B7v160006ERKS7_OS9_, symObjAddr: 0x8020, symBinAddr: 0x1000097C8, symSize: 0x3C }
  - { offsetInCU: 0x39870, offset: 0x39870, size: 0x8, addend: 0x0, symName: __ZNSt3__110unique_ptrINS_10__function6__funcIPFvP9SSS_MixerIfEPfmENS_9allocatorIS8_EES7_EENS_22__allocator_destructorINS9_ISB_EEEEE7releaseB7v160006Ev, symObjAddr: 0x805C, symBinAddr: 0x100009804, symSize: 0x44 }
  - { offsetInCU: 0x398A5, offset: 0x398A5, size: 0x8, addend: 0x0, symName: __ZNSt3__110unique_ptrINS_10__function6__funcIPFvP9SSS_MixerIfEPfmENS_9allocatorIS8_EES7_EENS_22__allocator_destructorINS9_ISB_EEEEED1B7v160006Ev, symObjAddr: 0x80A0, symBinAddr: 0x100009848, symSize: 0x2C }
  - { offsetInCU: 0x398CF, offset: 0x398CF, size: 0x8, addend: 0x0, symName: __ZNKSt3__117__compressed_pairIPFvP9SSS_MixerIfEPfmENS_9allocatorIS6_EEE6secondB7v160006Ev, symObjAddr: 0x80CC, symBinAddr: 0x100009874, symSize: 0x24 }
  - { offsetInCU: 0x398F5, offset: 0x398F5, size: 0x8, addend: 0x0, symName: __ZNKSt3__122__compressed_pair_elemINS_9allocatorIPFvP9SSS_MixerIfEPfmEEELi1ELb1EE5__getB7v160006Ev, symObjAddr: 0x80F0, symBinAddr: 0x100009898, symSize: 0x14 }
  - { offsetInCU: 0x39926, offset: 0x39926, size: 0x8, addend: 0x0, symName: __ZNSt3__116allocator_traitsINS_9allocatorINS_10__function6__funcIPFvP9SSS_MixerIfEPfmENS1_IS9_EES8_EEEEE8max_sizeB7v160006ISC_vvEEmRKSC_, symObjAddr: 0x8104, symBinAddr: 0x1000098AC, symSize: 0x28 }
  - { offsetInCU: 0x39952, offset: 0x39952, size: 0x8, addend: 0x0, symName: __ZNSt3__114numeric_limitsImE3maxB7v160006Ev, symObjAddr: 0x81C0, symBinAddr: 0x100009968, symSize: 0x14 }
  - { offsetInCU: 0x39966, offset: 0x39966, size: 0x8, addend: 0x0, symName: __ZNSt3__123__libcpp_numeric_limitsImLb1EE3maxB7v160006Ev, symObjAddr: 0x81D4, symBinAddr: 0x10000997C, symSize: 0x8 }
  - { offsetInCU: 0x3997A, offset: 0x3997A, size: 0x8, addend: 0x0, symName: __ZNSt3__122__allocator_destructorINS_9allocatorINS_10__function6__funcIPFvP9SSS_MixerIfEPfmENS1_IS9_EES8_EEEEEC2B7v160006ERSC_m, symObjAddr: 0x822C, symBinAddr: 0x1000099D4, symSize: 0x2C }
  - { offsetInCU: 0x399C0, offset: 0x399C0, size: 0x8, addend: 0x0, symName: __ZNSt3__110unique_ptrINS_10__function6__funcIPFvP9SSS_MixerIfEPfmENS_9allocatorIS8_EES7_EENS_22__allocator_destructorINS9_ISB_EEEEEC2B7v160006ILb1EvEEPSB_NS_16__dependent_typeINS_27__unique_ptr_deleter_sfinaeISE_EEXT_EE20__good_rval_ref_typeE, symObjAddr: 0x8258, symBinAddr: 0x100009A00, symSize: 0x48 }
  - { offsetInCU: 0x39A11, offset: 0x39A11, size: 0x8, addend: 0x0, symName: __ZNSt3__117__compressed_pairIPNS_10__function6__funcIPFvP9SSS_MixerIfEPfmENS_9allocatorIS8_EES7_EENS_22__allocator_destructorINS9_ISB_EEEEEC1B7v160006IRSC_SF_EEOT_OT0_, symObjAddr: 0x82A0, symBinAddr: 0x100009A48, symSize: 0x3C }
  - { offsetInCU: 0x39A69, offset: 0x39A69, size: 0x8, addend: 0x0, symName: __ZNSt3__117__compressed_pairIPNS_10__function6__funcIPFvP9SSS_MixerIfEPfmENS_9allocatorIS8_EES7_EENS_22__allocator_destructorINS9_ISB_EEEEEC2B7v160006IRSC_SF_EEOT_OT0_, symObjAddr: 0x82DC, symBinAddr: 0x100009A84, symSize: 0x48 }
  - { offsetInCU: 0x39AC1, offset: 0x39AC1, size: 0x8, addend: 0x0, symName: __ZNSt3__122__compressed_pair_elemIPNS_10__function6__funcIPFvP9SSS_MixerIfEPfmENS_9allocatorIS8_EES7_EELi0ELb0EEC2B7v160006IRSC_vEEOT_, symObjAddr: 0x8324, symBinAddr: 0x100009ACC, symSize: 0x24 }
  - { offsetInCU: 0x39B03, offset: 0x39B03, size: 0x8, addend: 0x0, symName: __ZNSt3__122__compressed_pair_elemINS_22__allocator_destructorINS_9allocatorINS_10__function6__funcIPFvP9SSS_MixerIfEPfmENS2_ISA_EES9_EEEEEELi1ELb0EEC2B7v160006ISE_vEEOT_, symObjAddr: 0x8348, symBinAddr: 0x100009AF0, symSize: 0x24 }
  - { offsetInCU: 0x39B45, offset: 0x39B45, size: 0x8, addend: 0x0, symName: __ZNKSt3__117__compressed_pairIPNS_10__function6__funcIPFvP9SSS_MixerIfEPfmENS_9allocatorIS8_EES7_EENS_22__allocator_destructorINS9_ISB_EEEEE5firstB7v160006Ev, symObjAddr: 0x836C, symBinAddr: 0x100009B14, symSize: 0x24 }
  - { offsetInCU: 0x39B6B, offset: 0x39B6B, size: 0x8, addend: 0x0, symName: __ZNKSt3__122__compressed_pair_elemIPNS_10__function6__funcIPFvP9SSS_MixerIfEPfmENS_9allocatorIS8_EES7_EELi0ELb0EE5__getB7v160006Ev, symObjAddr: 0x8390, symBinAddr: 0x100009B38, symSize: 0x14 }
  - { offsetInCU: 0x39B91, offset: 0x39B91, size: 0x8, addend: 0x0, symName: __ZNKSt3__117__compressed_pairIPFvP9SSS_MixerIfEPfmENS_9allocatorIS6_EEE5firstB7v160006Ev, symObjAddr: 0x83A4, symBinAddr: 0x100009B4C, symSize: 0x24 }
  - { offsetInCU: 0x39BB7, offset: 0x39BB7, size: 0x8, addend: 0x0, symName: __ZNKSt3__122__compressed_pair_elemIPFvP9SSS_MixerIfEPfmELi0ELb0EE5__getB7v160006Ev, symObjAddr: 0x83C8, symBinAddr: 0x100009B70, symSize: 0x14 }
  - { offsetInCU: 0x39BDD, offset: 0x39BDD, size: 0x8, addend: 0x0, symName: __ZNSt3__110__function6__funcIPFvP9SSS_MixerIfEPfmENS_9allocatorIS7_EES6_EC2B7v160006ERKS7_OS9_, symObjAddr: 0x83DC, symBinAddr: 0x100009B84, symSize: 0x88 }
  - { offsetInCU: 0x39C25, offset: 0x39C25, size: 0x8, addend: 0x0, symName: __ZNSt3__110__function12__alloc_funcIPFvP9SSS_MixerIfEPfmENS_9allocatorIS7_EES6_EC1B7v160006ERKS7_OS9_, symObjAddr: 0x8464, symBinAddr: 0x100009C0C, symSize: 0x3C }
  - { offsetInCU: 0x39C6B, offset: 0x39C6B, size: 0x8, addend: 0x0, symName: __ZNSt3__110__function12__alloc_funcIPFvP9SSS_MixerIfEPfmENS_9allocatorIS7_EES6_EC2B7v160006ERKS7_OS9_, symObjAddr: 0x84A0, symBinAddr: 0x100009C48, symSize: 0x5C }
  - { offsetInCU: 0x39CB1, offset: 0x39CB1, size: 0x8, addend: 0x0, symName: __ZNSt3__117__compressed_pairIPFvP9SSS_MixerIfEPfmENS_9allocatorIS6_EEEC1B7v160006IJRKS6_EJOS8_EEENS_21piecewise_construct_tENS_5tupleIJDpT_EEENSF_IJDpT0_EEE, symObjAddr: 0x8528, symBinAddr: 0x100009CD0, symSize: 0x3C }
  - { offsetInCU: 0x39D1B, offset: 0x39D1B, size: 0x8, addend: 0x0, symName: __ZNSt3__15tupleIJRKPFvP9SSS_MixerIfEPfmEEEC1B7v160006INS_4_AndELi0EEES8_, symObjAddr: 0x8564, symBinAddr: 0x100009D0C, symSize: 0x34 }
  - { offsetInCU: 0x39D63, offset: 0x39D63, size: 0x8, addend: 0x0, symName: __ZNSt3__15tupleIJRKPFvP9SSS_MixerIfEPfmEEEC2B7v160006INS_4_AndELi0EEES8_, symObjAddr: 0x8598, symBinAddr: 0x100009D40, symSize: 0x34 }
  - { offsetInCU: 0x39DAB, offset: 0x39DAB, size: 0x8, addend: 0x0, symName: __ZNSt3__112__tuple_implINS_15__tuple_indicesIJLm0EEEEJRKPFvP9SSS_MixerIfEPfmEEEC1B7v160006IJLm0EEJSA_EJEJEJSA_EEENS1_IJXspT_EEEENS_13__tuple_typesIJDpT0_EEENS1_IJXspT1_EEEENSE_IJDpT2_EEEDpOT3_, symObjAddr: 0x85CC, symBinAddr: 0x100009D74, symSize: 0x34 }
  - { offsetInCU: 0x39E40, offset: 0x39E40, size: 0x8, addend: 0x0, symName: __ZNSt3__112__tuple_implINS_15__tuple_indicesIJLm0EEEEJRKPFvP9SSS_MixerIfEPfmEEEC2B7v160006IJLm0EEJSA_EJEJEJSA_EEENS1_IJXspT_EEEENS_13__tuple_typesIJDpT0_EEENS1_IJXspT1_EEEENSE_IJDpT2_EEEDpOT3_, symObjAddr: 0x8600, symBinAddr: 0x100009DA8, symSize: 0x34 }
  - { offsetInCU: 0x39ED5, offset: 0x39ED5, size: 0x8, addend: 0x0, symName: __ZNSt3__112__tuple_leafILm0ERKPFvP9SSS_MixerIfEPfmELb0EEC2B7v160006IS8_vEEOT_, symObjAddr: 0x8634, symBinAddr: 0x100009DDC, symSize: 0x20 }
  - { offsetInCU: 0x39F18, offset: 0x39F18, size: 0x8, addend: 0x0, symName: __ZNSt3__117__compressed_pairIPFvP9SSS_MixerIfEPfmENS_9allocatorIS6_EEEC2B7v160006IJRKS6_EJOS8_EEENS_21piecewise_construct_tENS_5tupleIJDpT_EEENSF_IJDpT0_EEE, symObjAddr: 0x8654, symBinAddr: 0x100009DFC, symSize: 0x54 }
  - { offsetInCU: 0x39F82, offset: 0x39F82, size: 0x8, addend: 0x0, symName: __ZNSt3__122__compressed_pair_elemIPFvP9SSS_MixerIfEPfmELi0ELb0EEC2B7v160006IJRKS6_EJLm0EEEENS_21piecewise_construct_tENS_5tupleIJDpT_EEENS_15__tuple_indicesIJXspT0_EEEE, symObjAddr: 0x86A8, symBinAddr: 0x100009E50, symSize: 0x44 }
  - { offsetInCU: 0x39FE5, offset: 0x39FE5, size: 0x8, addend: 0x0, symName: __ZNSt3__112__tuple_leafILm0ERKPFvP9SSS_MixerIfEPfmELb0EE3getB7v160006Ev, symObjAddr: 0x8710, symBinAddr: 0x100009EB8, symSize: 0x18 }
  - { offsetInCU: 0x3A00B, offset: 0x3A00B, size: 0x8, addend: 0x0, symName: __ZNSt3__117__compressed_pairIPNS_10__function6__funcIPFvP9SSS_MixerIfEPfmENS_9allocatorIS8_EES7_EENS_22__allocator_destructorINS9_ISB_EEEEE5firstB7v160006Ev, symObjAddr: 0x8728, symBinAddr: 0x100009ED0, symSize: 0x24 }
  - { offsetInCU: 0x3A031, offset: 0x3A031, size: 0x8, addend: 0x0, symName: __ZNSt3__122__compressed_pair_elemIPNS_10__function6__funcIPFvP9SSS_MixerIfEPfmENS_9allocatorIS8_EES7_EELi0ELb0EE5__getB7v160006Ev, symObjAddr: 0x874C, symBinAddr: 0x100009EF4, symSize: 0x14 }
  - { offsetInCU: 0x3A057, offset: 0x3A057, size: 0x8, addend: 0x0, symName: __ZNSt3__110unique_ptrINS_10__function6__funcIPFvP9SSS_MixerIfEPfmENS_9allocatorIS8_EES7_EENS_22__allocator_destructorINS9_ISB_EEEEED2B7v160006Ev, symObjAddr: 0x8760, symBinAddr: 0x100009F08, symSize: 0x30 }
  - { offsetInCU: 0x3A081, offset: 0x3A081, size: 0x8, addend: 0x0, symName: __ZNSt3__110unique_ptrINS_10__function6__funcIPFvP9SSS_MixerIfEPfmENS_9allocatorIS8_EES7_EENS_22__allocator_destructorINS9_ISB_EEEEE5resetB7v160006EPSB_, symObjAddr: 0x8790, symBinAddr: 0x100009F38, symSize: 0x78 }
  - { offsetInCU: 0x3A0C5, offset: 0x3A0C5, size: 0x8, addend: 0x0, symName: __ZNSt3__117__compressed_pairIPNS_10__function6__funcIPFvP9SSS_MixerIfEPfmENS_9allocatorIS8_EES7_EENS_22__allocator_destructorINS9_ISB_EEEEE6secondB7v160006Ev, symObjAddr: 0x8808, symBinAddr: 0x100009FB0, symSize: 0x28 }
  - { offsetInCU: 0x3A0EB, offset: 0x3A0EB, size: 0x8, addend: 0x0, symName: __ZNSt3__122__allocator_destructorINS_9allocatorINS_10__function6__funcIPFvP9SSS_MixerIfEPfmENS1_IS9_EES8_EEEEEclB7v160006EPSB_, symObjAddr: 0x8830, symBinAddr: 0x100009FD8, symSize: 0x34 }
  - { offsetInCU: 0x3A11F, offset: 0x3A11F, size: 0x8, addend: 0x0, symName: __ZNSt3__122__compressed_pair_elemINS_22__allocator_destructorINS_9allocatorINS_10__function6__funcIPFvP9SSS_MixerIfEPfmENS2_ISA_EES9_EEEEEELi1ELb0EE5__getB7v160006Ev, symObjAddr: 0x8864, symBinAddr: 0x10000A00C, symSize: 0x14 }
  - { offsetInCU: 0x3A145, offset: 0x3A145, size: 0x8, addend: 0x0, symName: __ZNSt3__116allocator_traitsINS_9allocatorINS_10__function6__funcIPFvP9SSS_MixerIfEPfmENS1_IS9_EES8_EEEEE10deallocateB7v160006ERSC_PSB_m, symObjAddr: 0x8878, symBinAddr: 0x10000A020, symSize: 0x34 }
  - { offsetInCU: 0x3A187, offset: 0x3A187, size: 0x8, addend: 0x0, symName: __ZNSt3__19allocatorINS_10__function6__funcIPFvP9SSS_MixerIfEPfmENS0_IS8_EES7_EEE10deallocateB7v160006EPSA_m, symObjAddr: 0x88AC, symBinAddr: 0x10000A054, symSize: 0x40 }
  - { offsetInCU: 0x3A1C9, offset: 0x3A1C9, size: 0x8, addend: 0x0, symName: __ZNSt3__110__function6__funcIPFvP9SSS_MixerIfEPfmENS_9allocatorIS7_EES6_EC1B7v160006ERKS7_RKS9_, symObjAddr: 0x88EC, symBinAddr: 0x10000A094, symSize: 0x3C }
  - { offsetInCU: 0x3A211, offset: 0x3A211, size: 0x8, addend: 0x0, symName: __ZNSt3__110__function6__funcIPFvP9SSS_MixerIfEPfmENS_9allocatorIS7_EES6_EC2B7v160006ERKS7_RKS9_, symObjAddr: 0x8928, symBinAddr: 0x10000A0D0, symSize: 0x88 }
  - { offsetInCU: 0x3A259, offset: 0x3A259, size: 0x8, addend: 0x0, symName: __ZNSt3__110__function12__alloc_funcIPFvP9SSS_MixerIfEPfmENS_9allocatorIS7_EES6_EC1B7v160006ERKS7_RKS9_, symObjAddr: 0x89B0, symBinAddr: 0x10000A158, symSize: 0x3C }
  - { offsetInCU: 0x3A29F, offset: 0x3A29F, size: 0x8, addend: 0x0, symName: __ZNSt3__110__function12__alloc_funcIPFvP9SSS_MixerIfEPfmENS_9allocatorIS7_EES6_EC2B7v160006ERKS7_RKS9_, symObjAddr: 0x89EC, symBinAddr: 0x10000A194, symSize: 0x5C }
  - { offsetInCU: 0x3A2E5, offset: 0x3A2E5, size: 0x8, addend: 0x0, symName: __ZNSt3__117__compressed_pairIPFvP9SSS_MixerIfEPfmENS_9allocatorIS6_EEEC1B7v160006IJRKS6_EJRKS8_EEENS_21piecewise_construct_tENS_5tupleIJDpT_EEENSG_IJDpT0_EEE, symObjAddr: 0x8A74, symBinAddr: 0x10000A21C, symSize: 0x3C }
  - { offsetInCU: 0x3A34F, offset: 0x3A34F, size: 0x8, addend: 0x0, symName: __ZNSt3__15tupleIJRKNS_9allocatorIPFvP9SSS_MixerIfEPfmEEEEEC1B7v160006INS_4_AndELi0EEESA_, symObjAddr: 0x8AB0, symBinAddr: 0x10000A258, symSize: 0x34 }
  - { offsetInCU: 0x3A397, offset: 0x3A397, size: 0x8, addend: 0x0, symName: __ZNSt3__15tupleIJRKNS_9allocatorIPFvP9SSS_MixerIfEPfmEEEEEC2B7v160006INS_4_AndELi0EEESA_, symObjAddr: 0x8AE4, symBinAddr: 0x10000A28C, symSize: 0x34 }
  - { offsetInCU: 0x3A3DF, offset: 0x3A3DF, size: 0x8, addend: 0x0, symName: __ZNSt3__112__tuple_implINS_15__tuple_indicesIJLm0EEEEJRKNS_9allocatorIPFvP9SSS_MixerIfEPfmEEEEEC1B7v160006IJLm0EEJSC_EJEJEJSC_EEENS1_IJXspT_EEEENS_13__tuple_typesIJDpT0_EEENS1_IJXspT1_EEEENSG_IJDpT2_EEEDpOT3_, symObjAddr: 0x8B18, symBinAddr: 0x10000A2C0, symSize: 0x34 }
  - { offsetInCU: 0x3A474, offset: 0x3A474, size: 0x8, addend: 0x0, symName: __ZNSt3__112__tuple_implINS_15__tuple_indicesIJLm0EEEEJRKNS_9allocatorIPFvP9SSS_MixerIfEPfmEEEEEC2B7v160006IJLm0EEJSC_EJEJEJSC_EEENS1_IJXspT_EEEENS_13__tuple_typesIJDpT0_EEENS1_IJXspT1_EEEENSG_IJDpT2_EEEDpOT3_, symObjAddr: 0x8B4C, symBinAddr: 0x10000A2F4, symSize: 0x34 }
  - { offsetInCU: 0x3A509, offset: 0x3A509, size: 0x8, addend: 0x0, symName: __ZNSt3__112__tuple_leafILm0ERKNS_9allocatorIPFvP9SSS_MixerIfEPfmEEELb0EEC2B7v160006ISA_vEEOT_, symObjAddr: 0x8B80, symBinAddr: 0x10000A328, symSize: 0x20 }
  - { offsetInCU: 0x3A54C, offset: 0x3A54C, size: 0x8, addend: 0x0, symName: __ZNSt3__117__compressed_pairIPFvP9SSS_MixerIfEPfmENS_9allocatorIS6_EEEC2B7v160006IJRKS6_EJRKS8_EEENS_21piecewise_construct_tENS_5tupleIJDpT_EEENSG_IJDpT0_EEE, symObjAddr: 0x8BA0, symBinAddr: 0x10000A348, symSize: 0x54 }
  - { offsetInCU: 0x3A5B6, offset: 0x3A5B6, size: 0x8, addend: 0x0, symName: __ZNSt3__122__compressed_pair_elemINS_9allocatorIPFvP9SSS_MixerIfEPfmEEELi1ELb1EEC2B7v160006IJRKS8_EJLm0EEEENS_21piecewise_construct_tENS_5tupleIJDpT_EEENS_15__tuple_indicesIJXspT0_EEEE, symObjAddr: 0x8BF4, symBinAddr: 0x10000A39C, symSize: 0x38 }
  - { offsetInCU: 0x3A619, offset: 0x3A619, size: 0x8, addend: 0x0, symName: __ZNSt3__112__tuple_leafILm0ERKNS_9allocatorIPFvP9SSS_MixerIfEPfmEEELb0EE3getB7v160006Ev, symObjAddr: 0x8C50, symBinAddr: 0x10000A3F8, symSize: 0x18 }
  - { offsetInCU: 0x3A63F, offset: 0x3A63F, size: 0x8, addend: 0x0, symName: __ZNSt3__110__function12__alloc_funcIPFvP9SSS_MixerIfEPfmENS_9allocatorIS7_EES6_E7destroyB7v160006Ev, symObjAddr: 0x8C68, symBinAddr: 0x10000A410, symSize: 0x10 }
  - { offsetInCU: 0x3A665, offset: 0x3A665, size: 0x8, addend: 0x0, symName: __ZNSt3__110__function12__alloc_funcIPFvP9SSS_MixerIfEPfmENS_9allocatorIS7_EES6_EclB7v160006EOS4_OS5_Om, symObjAddr: 0x8C78, symBinAddr: 0x10000A420, symSize: 0x40 }
  - { offsetInCU: 0x3A6B5, offset: 0x3A6B5, size: 0x8, addend: 0x0, symName: __ZNSt3__128__invoke_void_return_wrapperIvLb1EE6__callIJRPFvP9SSS_MixerIfEPfmES5_S6_mEEEvDpOT_, symObjAddr: 0x8CB8, symBinAddr: 0x10000A460, symSize: 0x3C }
  - { offsetInCU: 0x3A720, offset: 0x3A720, size: 0x8, addend: 0x0, symName: __ZNSt3__117__compressed_pairIPFvP9SSS_MixerIfEPfmENS_9allocatorIS6_EEE5firstB7v160006Ev, symObjAddr: 0x8CF4, symBinAddr: 0x10000A49C, symSize: 0x24 }
  - { offsetInCU: 0x3A746, offset: 0x3A746, size: 0x8, addend: 0x0, symName: __ZNSt3__122__compressed_pair_elemIPFvP9SSS_MixerIfEPfmELi0ELb0EE5__getB7v160006Ev, symObjAddr: 0x8D64, symBinAddr: 0x10000A50C, symSize: 0x14 }
  - { offsetInCU: 0x3A7A2, offset: 0x3A7A2, size: 0x8, addend: 0x0, symName: __ZNKSt9type_infoeqB7v160006ERKS_, symObjAddr: 0x8D78, symBinAddr: 0x10000A520, symSize: 0xDC }
  - { offsetInCU: 0x3A840, offset: 0x3A840, size: 0x8, addend: 0x0, symName: __ZNSt27__type_info_implementations30__non_unique_arm_rtti_bit_impl21__is_type_name_uniqueB7v160006Em, symObjAddr: 0x8E54, symBinAddr: 0x10000A5FC, symSize: 0x20 }
  - { offsetInCU: 0x3A864, offset: 0x3A864, size: 0x8, addend: 0x0, symName: __ZNSt3__18functionIFvP9SSS_MixerIfEPfmEED2Ev, symObjAddr: 0x8E74, symBinAddr: 0x10000A61C, symSize: 0x2C }
  - { offsetInCU: 0x3A890, offset: 0x3A890, size: 0x8, addend: 0x0, symName: __ZNSt3__110__function12__value_funcIFvP9SSS_MixerIfEPfmEED1B7v160006Ev, symObjAddr: 0x8EA0, symBinAddr: 0x10000A648, symSize: 0x2C }
  - { offsetInCU: 0x3A8BA, offset: 0x3A8BA, size: 0x8, addend: 0x0, symName: __ZNSt3__110__function12__value_funcIFvP9SSS_MixerIfEPfmEED2B7v160006Ev, symObjAddr: 0x8ECC, symBinAddr: 0x10000A674, symSize: 0x90 }
  - { offsetInCU: 0x3A8E4, offset: 0x3A8E4, size: 0x8, addend: 0x0, symName: __ZNSt3__18functionIFmP8SSS_NodeIfEmEEC2IPS4_vEET_, symObjAddr: 0x8F5C, symBinAddr: 0x10000A704, symSize: 0x38 }
  - { offsetInCU: 0x3A929, offset: 0x3A929, size: 0x8, addend: 0x0, symName: __ZNSt3__110__function12__value_funcIFmP8SSS_NodeIfEmEEC1B7v160006IPS5_vEEOT_, symObjAddr: 0x8F94, symBinAddr: 0x10000A73C, symSize: 0x50 }
  - { offsetInCU: 0x3A96C, offset: 0x3A96C, size: 0x8, addend: 0x0, symName: __ZNSt3__19allocatorIPFmP8SSS_NodeIfEmEEC1B7v160006Ev, symObjAddr: 0x8FE4, symBinAddr: 0x10000A78C, symSize: 0x2C }
  - { offsetInCU: 0x3A996, offset: 0x3A996, size: 0x8, addend: 0x0, symName: __ZNSt3__110__function12__value_funcIFmP8SSS_NodeIfEmEEC1B7v160006IPS5_NS_9allocatorIS8_EEEEOT_RKT0_, symObjAddr: 0x9010, symBinAddr: 0x10000A7B8, symSize: 0x3C }
  - { offsetInCU: 0x3A9F0, offset: 0x3A9F0, size: 0x8, addend: 0x0, symName: __ZNSt3__19allocatorIPFmP8SSS_NodeIfEmEEC2B7v160006Ev, symObjAddr: 0x904C, symBinAddr: 0x10000A7F4, symSize: 0x2C }
  - { offsetInCU: 0x3AA1A, offset: 0x3AA1A, size: 0x8, addend: 0x0, symName: __ZNSt3__116__non_trivial_ifILb1ENS_9allocatorIPFmP8SSS_NodeIfEmEEEEC2B7v160006Ev, symObjAddr: 0x9078, symBinAddr: 0x10000A820, symSize: 0x14 }
  - { offsetInCU: 0x3AA44, offset: 0x3AA44, size: 0x8, addend: 0x0, symName: __ZNSt3__110__function12__value_funcIFmP8SSS_NodeIfEmEEC2B7v160006IPS5_NS_9allocatorIS8_EEEEOT_RKT0_, symObjAddr: 0x908C, symBinAddr: 0x10000A834, symSize: 0x98 }
  - { offsetInCU: 0x3AAD2, offset: 0x3AAD2, size: 0x8, addend: 0x0, symName: __ZNSt3__19allocatorINS_10__function6__funcIPFmP8SSS_NodeIfEmENS0_IS7_EES6_EEEC1B7v160006IS7_EERKNS0_IT_EE, symObjAddr: 0x9144, symBinAddr: 0x10000A8EC, symSize: 0x34 }
  - { offsetInCU: 0x3AB1A, offset: 0x3AB1A, size: 0x8, addend: 0x0, symName: __ZNSt3__19allocatorIPFmP8SSS_NodeIfEmEEC1B7v160006INS_10__function6__funcIS5_S6_S4_EEEERKNS0_IT_EE, symObjAddr: 0x9178, symBinAddr: 0x10000A920, symSize: 0x34 }
  - { offsetInCU: 0x3AB57, offset: 0x3AB57, size: 0x8, addend: 0x0, symName: __ZNSt3__110__function6__funcIPFmP8SSS_NodeIfEmENS_9allocatorIS6_EES5_EC1B7v160006EOS6_OS8_, symObjAddr: 0x91AC, symBinAddr: 0x10000A954, symSize: 0x3C }
  - { offsetInCU: 0x3AB9F, offset: 0x3AB9F, size: 0x8, addend: 0x0, symName: __ZNSt3__19allocatorINS_10__function6__funcIPFmP8SSS_NodeIfEmENS0_IS7_EES6_EEEC2B7v160006IS7_EERKNS0_IT_EE, symObjAddr: 0x91E8, symBinAddr: 0x10000A990, symSize: 0x30 }
  - { offsetInCU: 0x3ABDC, offset: 0x3ABDC, size: 0x8, addend: 0x0, symName: __ZNSt3__116__non_trivial_ifILb1ENS_9allocatorINS_10__function6__funcIPFmP8SSS_NodeIfEmENS1_IS8_EES7_EEEEEC2B7v160006Ev, symObjAddr: 0x9218, symBinAddr: 0x10000A9C0, symSize: 0x14 }
  - { offsetInCU: 0x3AC06, offset: 0x3AC06, size: 0x8, addend: 0x0, symName: __ZNSt3__19allocatorIPFmP8SSS_NodeIfEmEEC2B7v160006INS_10__function6__funcIS5_S6_S4_EEEERKNS0_IT_EE, symObjAddr: 0x922C, symBinAddr: 0x10000A9D4, symSize: 0x30 }
  - { offsetInCU: 0x3AC43, offset: 0x3AC43, size: 0x8, addend: 0x0, symName: __ZNSt3__110__function6__funcIPFmP8SSS_NodeIfEmENS_9allocatorIS6_EES5_EC2B7v160006EOS6_OS8_, symObjAddr: 0x925C, symBinAddr: 0x10000AA04, symSize: 0x88 }
  - { offsetInCU: 0x3AC8B, offset: 0x3AC8B, size: 0x8, addend: 0x0, symName: __ZNSt3__110__function6__baseIFmP8SSS_NodeIfEmEEC2B7v160006Ev, symObjAddr: 0x92E4, symBinAddr: 0x10000AA8C, symSize: 0x24 }
  - { offsetInCU: 0x3ACB5, offset: 0x3ACB5, size: 0x8, addend: 0x0, symName: __ZNSt3__110__function12__alloc_funcIPFmP8SSS_NodeIfEmENS_9allocatorIS6_EES5_EC1B7v160006EOS6_OS8_, symObjAddr: 0x9308, symBinAddr: 0x10000AAB0, symSize: 0x3C }
  - { offsetInCU: 0x3ACFB, offset: 0x3ACFB, size: 0x8, addend: 0x0, symName: __ZNSt3__110__function6__baseIFmP8SSS_NodeIfEmEED2Ev, symObjAddr: 0x9344, symBinAddr: 0x10000AAEC, symSize: 0x14 }
  - { offsetInCU: 0x3AD25, offset: 0x3AD25, size: 0x8, addend: 0x0, symName: __ZNSt3__110__function6__funcIPFmP8SSS_NodeIfEmENS_9allocatorIS6_EES5_ED1Ev, symObjAddr: 0x9358, symBinAddr: 0x10000AB00, symSize: 0x2C }
  - { offsetInCU: 0x3AD52, offset: 0x3AD52, size: 0x8, addend: 0x0, symName: __ZNSt3__110__function6__funcIPFmP8SSS_NodeIfEmENS_9allocatorIS6_EES5_ED0Ev, symObjAddr: 0x9384, symBinAddr: 0x10000AB2C, symSize: 0x30 }
  - { offsetInCU: 0x3AD7F, offset: 0x3AD7F, size: 0x8, addend: 0x0, symName: __ZNKSt3__110__function6__funcIPFmP8SSS_NodeIfEmENS_9allocatorIS6_EES5_E7__cloneEv, symObjAddr: 0x93B4, symBinAddr: 0x10000AB5C, symSize: 0xFC }
  - { offsetInCU: 0x3ADD1, offset: 0x3ADD1, size: 0x8, addend: 0x0, symName: __ZNKSt3__110__function6__funcIPFmP8SSS_NodeIfEmENS_9allocatorIS6_EES5_E7__cloneEPNS0_6__baseIS5_EE, symObjAddr: 0x94B0, symBinAddr: 0x10000AC58, symSize: 0x58 }
  - { offsetInCU: 0x3AE08, offset: 0x3AE08, size: 0x8, addend: 0x0, symName: __ZNSt3__110__function6__funcIPFmP8SSS_NodeIfEmENS_9allocatorIS6_EES5_E7destroyEv, symObjAddr: 0x9508, symBinAddr: 0x10000ACB0, symSize: 0x28 }
  - { offsetInCU: 0x3AE30, offset: 0x3AE30, size: 0x8, addend: 0x0, symName: __ZNSt3__110__function6__funcIPFmP8SSS_NodeIfEmENS_9allocatorIS6_EES5_E18destroy_deallocateEv, symObjAddr: 0x9530, symBinAddr: 0x10000ACD8, symSize: 0x58 }
  - { offsetInCU: 0x3AE73, offset: 0x3AE73, size: 0x8, addend: 0x0, symName: __ZNSt3__110__function6__funcIPFmP8SSS_NodeIfEmENS_9allocatorIS6_EES5_EclEOS4_Om, symObjAddr: 0x9588, symBinAddr: 0x10000AD30, symSize: 0x38 }
  - { offsetInCU: 0x3AEB9, offset: 0x3AEB9, size: 0x8, addend: 0x0, symName: __ZNKSt3__110__function6__funcIPFmP8SSS_NodeIfEmENS_9allocatorIS6_EES5_E6targetERKSt9type_info, symObjAddr: 0x95C0, symBinAddr: 0x10000AD68, symSize: 0x60 }
  - { offsetInCU: 0x3AEF0, offset: 0x3AEF0, size: 0x8, addend: 0x0, symName: __ZNKSt3__110__function6__funcIPFmP8SSS_NodeIfEmENS_9allocatorIS6_EES5_E11target_typeEv, symObjAddr: 0x9620, symBinAddr: 0x10000ADC8, symSize: 0x18 }
  - { offsetInCU: 0x3AF18, offset: 0x3AF18, size: 0x8, addend: 0x0, symName: __ZNSt3__110__function6__baseIFmP8SSS_NodeIfEmEED1Ev, symObjAddr: 0x9638, symBinAddr: 0x10000ADE0, symSize: 0x14 }
  - { offsetInCU: 0x3AF42, offset: 0x3AF42, size: 0x8, addend: 0x0, symName: __ZNSt3__110__function6__baseIFmP8SSS_NodeIfEmEED0Ev, symObjAddr: 0x964C, symBinAddr: 0x10000ADF4, symSize: 0xC }
  - { offsetInCU: 0x3AF6C, offset: 0x3AF6C, size: 0x8, addend: 0x0, symName: __ZNSt3__110__function12__alloc_funcIPFmP8SSS_NodeIfEmENS_9allocatorIS6_EES5_EC2B7v160006EOS6_OS8_, symObjAddr: 0x9658, symBinAddr: 0x10000AE00, symSize: 0x5C }
  - { offsetInCU: 0x3AFB2, offset: 0x3AFB2, size: 0x8, addend: 0x0, symName: __ZNSt3__117__compressed_pairIPFmP8SSS_NodeIfEmENS_9allocatorIS5_EEEC1B7v160006IJOS5_EJOS7_EEENS_21piecewise_construct_tENS_5tupleIJDpT_EEENSD_IJDpT0_EEE, symObjAddr: 0x970C, symBinAddr: 0x10000AEB4, symSize: 0x3C }
  - { offsetInCU: 0x3B01C, offset: 0x3B01C, size: 0x8, addend: 0x0, symName: __ZNSt3__15tupleIJOPFmP8SSS_NodeIfEmEEEC1B7v160006IJS5_ELi0EEEDpOT_, symObjAddr: 0x9748, symBinAddr: 0x10000AEF0, symSize: 0x34 }
  - { offsetInCU: 0x3B066, offset: 0x3B066, size: 0x8, addend: 0x0, symName: __ZNSt3__15tupleIJOPFmP8SSS_NodeIfEmEEEC2B7v160006IJS5_ELi0EEEDpOT_, symObjAddr: 0x977C, symBinAddr: 0x10000AF24, symSize: 0x34 }
  - { offsetInCU: 0x3B0B0, offset: 0x3B0B0, size: 0x8, addend: 0x0, symName: __ZNSt3__112__tuple_implINS_15__tuple_indicesIJLm0EEEEJOPFmP8SSS_NodeIfEmEEEC1B7v160006IJLm0EEJS8_EJEJEJS7_EEENS1_IJXspT_EEEENS_13__tuple_typesIJDpT0_EEENS1_IJXspT1_EEEENSC_IJDpT2_EEEDpOT3_, symObjAddr: 0x97B0, symBinAddr: 0x10000AF58, symSize: 0x34 }
  - { offsetInCU: 0x3B145, offset: 0x3B145, size: 0x8, addend: 0x0, symName: __ZNSt3__112__tuple_implINS_15__tuple_indicesIJLm0EEEEJOPFmP8SSS_NodeIfEmEEEC2B7v160006IJLm0EEJS8_EJEJEJS7_EEENS1_IJXspT_EEEENS_13__tuple_typesIJDpT0_EEENS1_IJXspT1_EEEENSC_IJDpT2_EEEDpOT3_, symObjAddr: 0x97E4, symBinAddr: 0x10000AF8C, symSize: 0x34 }
  - { offsetInCU: 0x3B1DA, offset: 0x3B1DA, size: 0x8, addend: 0x0, symName: __ZNSt3__112__tuple_leafILm0EOPFmP8SSS_NodeIfEmELb0EEC2B7v160006IS5_vEEOT_, symObjAddr: 0x9818, symBinAddr: 0x10000AFC0, symSize: 0x20 }
  - { offsetInCU: 0x3B21D, offset: 0x3B21D, size: 0x8, addend: 0x0, symName: __ZNSt3__15tupleIJONS_9allocatorIPFmP8SSS_NodeIfEmEEEEEC1B7v160006IJS7_ELi0EEEDpOT_, symObjAddr: 0x9838, symBinAddr: 0x10000AFE0, symSize: 0x34 }
  - { offsetInCU: 0x3B267, offset: 0x3B267, size: 0x8, addend: 0x0, symName: __ZNSt3__15tupleIJONS_9allocatorIPFmP8SSS_NodeIfEmEEEEEC2B7v160006IJS7_ELi0EEEDpOT_, symObjAddr: 0x986C, symBinAddr: 0x10000B014, symSize: 0x34 }
  - { offsetInCU: 0x3B2B1, offset: 0x3B2B1, size: 0x8, addend: 0x0, symName: __ZNSt3__112__tuple_implINS_15__tuple_indicesIJLm0EEEEJONS_9allocatorIPFmP8SSS_NodeIfEmEEEEEC1B7v160006IJLm0EEJSA_EJEJEJS9_EEENS1_IJXspT_EEEENS_13__tuple_typesIJDpT0_EEENS1_IJXspT1_EEEENSE_IJDpT2_EEEDpOT3_, symObjAddr: 0x98A0, symBinAddr: 0x10000B048, symSize: 0x34 }
  - { offsetInCU: 0x3B346, offset: 0x3B346, size: 0x8, addend: 0x0, symName: __ZNSt3__112__tuple_implINS_15__tuple_indicesIJLm0EEEEJONS_9allocatorIPFmP8SSS_NodeIfEmEEEEEC2B7v160006IJLm0EEJSA_EJEJEJS9_EEENS1_IJXspT_EEEENS_13__tuple_typesIJDpT0_EEENS1_IJXspT1_EEEENSE_IJDpT2_EEEDpOT3_, symObjAddr: 0x98D4, symBinAddr: 0x10000B07C, symSize: 0x34 }
  - { offsetInCU: 0x3B3DB, offset: 0x3B3DB, size: 0x8, addend: 0x0, symName: __ZNSt3__112__tuple_leafILm0EONS_9allocatorIPFmP8SSS_NodeIfEmEEELb0EEC2B7v160006IS7_vEEOT_, symObjAddr: 0x9908, symBinAddr: 0x10000B0B0, symSize: 0x20 }
  - { offsetInCU: 0x3B41E, offset: 0x3B41E, size: 0x8, addend: 0x0, symName: __ZNSt3__117__compressed_pairIPFmP8SSS_NodeIfEmENS_9allocatorIS5_EEEC2B7v160006IJOS5_EJOS7_EEENS_21piecewise_construct_tENS_5tupleIJDpT_EEENSD_IJDpT0_EEE, symObjAddr: 0x9928, symBinAddr: 0x10000B0D0, symSize: 0x54 }
  - { offsetInCU: 0x3B488, offset: 0x3B488, size: 0x8, addend: 0x0, symName: __ZNSt3__122__compressed_pair_elemIPFmP8SSS_NodeIfEmELi0ELb0EEC2B7v160006IJOS5_EJLm0EEEENS_21piecewise_construct_tENS_5tupleIJDpT_EEENS_15__tuple_indicesIJXspT0_EEEE, symObjAddr: 0x997C, symBinAddr: 0x10000B124, symSize: 0x44 }
  - { offsetInCU: 0x3B4EB, offset: 0x3B4EB, size: 0x8, addend: 0x0, symName: __ZNSt3__122__compressed_pair_elemINS_9allocatorIPFmP8SSS_NodeIfEmEEELi1ELb1EEC2B7v160006IJOS7_EJLm0EEEENS_21piecewise_construct_tENS_5tupleIJDpT_EEENS_15__tuple_indicesIJXspT0_EEEE, symObjAddr: 0x99C0, symBinAddr: 0x10000B168, symSize: 0x38 }
  - { offsetInCU: 0x3B54E, offset: 0x3B54E, size: 0x8, addend: 0x0, symName: __ZNSt3__112__tuple_leafILm0EOPFmP8SSS_NodeIfEmELb0EE3getB7v160006Ev, symObjAddr: 0x9A1C, symBinAddr: 0x10000B1C4, symSize: 0x18 }
  - { offsetInCU: 0x3B574, offset: 0x3B574, size: 0x8, addend: 0x0, symName: __ZNSt3__112__tuple_leafILm0EONS_9allocatorIPFmP8SSS_NodeIfEmEEELb0EE3getB7v160006Ev, symObjAddr: 0x9A58, symBinAddr: 0x10000B200, symSize: 0x18 }
  - { offsetInCU: 0x3B59A, offset: 0x3B59A, size: 0x8, addend: 0x0, symName: __ZNSt3__110__function6__funcIPFmP8SSS_NodeIfEmENS_9allocatorIS6_EES5_ED2Ev, symObjAddr: 0x9A70, symBinAddr: 0x10000B218, symSize: 0x2C }
  - { offsetInCU: 0x3B5C7, offset: 0x3B5C7, size: 0x8, addend: 0x0, symName: __ZNKSt3__110__function12__alloc_funcIPFmP8SSS_NodeIfEmENS_9allocatorIS6_EES5_E15__get_allocatorB7v160006Ev, symObjAddr: 0x9A9C, symBinAddr: 0x10000B244, symSize: 0x24 }
  - { offsetInCU: 0x3B5ED, offset: 0x3B5ED, size: 0x8, addend: 0x0, symName: __ZNSt3__19allocatorINS_10__function6__funcIPFmP8SSS_NodeIfEmENS0_IS7_EES6_EEE8allocateB7v160006Em, symObjAddr: 0x9AC0, symBinAddr: 0x10000B268, symSize: 0x58 }
  - { offsetInCU: 0x3B632, offset: 0x3B632, size: 0x8, addend: 0x0, symName: __ZNSt3__122__allocator_destructorINS_9allocatorINS_10__function6__funcIPFmP8SSS_NodeIfEmENS1_IS8_EES7_EEEEEC1B7v160006ERSB_m, symObjAddr: 0x9B18, symBinAddr: 0x10000B2C0, symSize: 0x3C }
  - { offsetInCU: 0x3B714, offset: 0x3B714, size: 0x8, addend: 0x0, symName: __ZNSt3__110unique_ptrINS_10__function6__funcIPFmP8SSS_NodeIfEmENS_9allocatorIS7_EES6_EENS_22__allocator_destructorINS8_ISA_EEEEEC1B7v160006ILb1EvEEPSA_NS_16__dependent_typeINS_27__unique_ptr_deleter_sfinaeISD_EEXT_EE20__good_rval_ref_typeE, symObjAddr: 0x9B54, symBinAddr: 0x10000B2FC, symSize: 0x3C }
  - { offsetInCU: 0x3B765, offset: 0x3B765, size: 0x8, addend: 0x0, symName: __ZNKSt3__110unique_ptrINS_10__function6__funcIPFmP8SSS_NodeIfEmENS_9allocatorIS7_EES6_EENS_22__allocator_destructorINS8_ISA_EEEEE3getB7v160006Ev, symObjAddr: 0x9B90, symBinAddr: 0x10000B338, symSize: 0x28 }
  - { offsetInCU: 0x3B78B, offset: 0x3B78B, size: 0x8, addend: 0x0, symName: __ZNKSt3__110__function12__alloc_funcIPFmP8SSS_NodeIfEmENS_9allocatorIS6_EES5_E8__targetB7v160006Ev, symObjAddr: 0x9BB8, symBinAddr: 0x10000B360, symSize: 0x24 }
  - { offsetInCU: 0x3B7B1, offset: 0x3B7B1, size: 0x8, addend: 0x0, symName: __ZNSt3__110__function6__funcIPFmP8SSS_NodeIfEmENS_9allocatorIS6_EES5_EC1B7v160006ERKS6_OS8_, symObjAddr: 0x9BDC, symBinAddr: 0x10000B384, symSize: 0x3C }
  - { offsetInCU: 0x3B7F9, offset: 0x3B7F9, size: 0x8, addend: 0x0, symName: __ZNSt3__110unique_ptrINS_10__function6__funcIPFmP8SSS_NodeIfEmENS_9allocatorIS7_EES6_EENS_22__allocator_destructorINS8_ISA_EEEEE7releaseB7v160006Ev, symObjAddr: 0x9C18, symBinAddr: 0x10000B3C0, symSize: 0x44 }
  - { offsetInCU: 0x3B82E, offset: 0x3B82E, size: 0x8, addend: 0x0, symName: __ZNSt3__110unique_ptrINS_10__function6__funcIPFmP8SSS_NodeIfEmENS_9allocatorIS7_EES6_EENS_22__allocator_destructorINS8_ISA_EEEEED1B7v160006Ev, symObjAddr: 0x9C5C, symBinAddr: 0x10000B404, symSize: 0x2C }
  - { offsetInCU: 0x3B858, offset: 0x3B858, size: 0x8, addend: 0x0, symName: __ZNKSt3__117__compressed_pairIPFmP8SSS_NodeIfEmENS_9allocatorIS5_EEE6secondB7v160006Ev, symObjAddr: 0x9C88, symBinAddr: 0x10000B430, symSize: 0x24 }
  - { offsetInCU: 0x3B87E, offset: 0x3B87E, size: 0x8, addend: 0x0, symName: __ZNKSt3__122__compressed_pair_elemINS_9allocatorIPFmP8SSS_NodeIfEmEEELi1ELb1EE5__getB7v160006Ev, symObjAddr: 0x9CAC, symBinAddr: 0x10000B454, symSize: 0x14 }
  - { offsetInCU: 0x3B8AF, offset: 0x3B8AF, size: 0x8, addend: 0x0, symName: __ZNSt3__116allocator_traitsINS_9allocatorINS_10__function6__funcIPFmP8SSS_NodeIfEmENS1_IS8_EES7_EEEEE8max_sizeB7v160006ISB_vvEEmRKSB_, symObjAddr: 0x9CC0, symBinAddr: 0x10000B468, symSize: 0x28 }
  - { offsetInCU: 0x3B8DB, offset: 0x3B8DB, size: 0x8, addend: 0x0, symName: __ZNSt3__122__allocator_destructorINS_9allocatorINS_10__function6__funcIPFmP8SSS_NodeIfEmENS1_IS8_EES7_EEEEEC2B7v160006ERSB_m, symObjAddr: 0x9CE8, symBinAddr: 0x10000B490, symSize: 0x2C }
  - { offsetInCU: 0x3B921, offset: 0x3B921, size: 0x8, addend: 0x0, symName: __ZNSt3__110unique_ptrINS_10__function6__funcIPFmP8SSS_NodeIfEmENS_9allocatorIS7_EES6_EENS_22__allocator_destructorINS8_ISA_EEEEEC2B7v160006ILb1EvEEPSA_NS_16__dependent_typeINS_27__unique_ptr_deleter_sfinaeISD_EEXT_EE20__good_rval_ref_typeE, symObjAddr: 0x9D14, symBinAddr: 0x10000B4BC, symSize: 0x48 }
  - { offsetInCU: 0x3B972, offset: 0x3B972, size: 0x8, addend: 0x0, symName: __ZNSt3__117__compressed_pairIPNS_10__function6__funcIPFmP8SSS_NodeIfEmENS_9allocatorIS7_EES6_EENS_22__allocator_destructorINS8_ISA_EEEEEC1B7v160006IRSB_SE_EEOT_OT0_, symObjAddr: 0x9D5C, symBinAddr: 0x10000B504, symSize: 0x3C }
  - { offsetInCU: 0x3B9CA, offset: 0x3B9CA, size: 0x8, addend: 0x0, symName: __ZNSt3__117__compressed_pairIPNS_10__function6__funcIPFmP8SSS_NodeIfEmENS_9allocatorIS7_EES6_EENS_22__allocator_destructorINS8_ISA_EEEEEC2B7v160006IRSB_SE_EEOT_OT0_, symObjAddr: 0x9D98, symBinAddr: 0x10000B540, symSize: 0x48 }
  - { offsetInCU: 0x3BA22, offset: 0x3BA22, size: 0x8, addend: 0x0, symName: __ZNSt3__122__compressed_pair_elemIPNS_10__function6__funcIPFmP8SSS_NodeIfEmENS_9allocatorIS7_EES6_EELi0ELb0EEC2B7v160006IRSB_vEEOT_, symObjAddr: 0x9DE0, symBinAddr: 0x10000B588, symSize: 0x24 }
  - { offsetInCU: 0x3BA64, offset: 0x3BA64, size: 0x8, addend: 0x0, symName: __ZNSt3__122__compressed_pair_elemINS_22__allocator_destructorINS_9allocatorINS_10__function6__funcIPFmP8SSS_NodeIfEmENS2_IS9_EES8_EEEEEELi1ELb0EEC2B7v160006ISD_vEEOT_, symObjAddr: 0x9E04, symBinAddr: 0x10000B5AC, symSize: 0x24 }
  - { offsetInCU: 0x3BAA6, offset: 0x3BAA6, size: 0x8, addend: 0x0, symName: __ZNKSt3__117__compressed_pairIPNS_10__function6__funcIPFmP8SSS_NodeIfEmENS_9allocatorIS7_EES6_EENS_22__allocator_destructorINS8_ISA_EEEEE5firstB7v160006Ev, symObjAddr: 0x9E28, symBinAddr: 0x10000B5D0, symSize: 0x24 }
  - { offsetInCU: 0x3BACC, offset: 0x3BACC, size: 0x8, addend: 0x0, symName: __ZNKSt3__122__compressed_pair_elemIPNS_10__function6__funcIPFmP8SSS_NodeIfEmENS_9allocatorIS7_EES6_EELi0ELb0EE5__getB7v160006Ev, symObjAddr: 0x9E4C, symBinAddr: 0x10000B5F4, symSize: 0x14 }
  - { offsetInCU: 0x3BAF2, offset: 0x3BAF2, size: 0x8, addend: 0x0, symName: __ZNKSt3__117__compressed_pairIPFmP8SSS_NodeIfEmENS_9allocatorIS5_EEE5firstB7v160006Ev, symObjAddr: 0x9E60, symBinAddr: 0x10000B608, symSize: 0x24 }
  - { offsetInCU: 0x3BB18, offset: 0x3BB18, size: 0x8, addend: 0x0, symName: __ZNKSt3__122__compressed_pair_elemIPFmP8SSS_NodeIfEmELi0ELb0EE5__getB7v160006Ev, symObjAddr: 0x9E84, symBinAddr: 0x10000B62C, symSize: 0x14 }
  - { offsetInCU: 0x3BB3E, offset: 0x3BB3E, size: 0x8, addend: 0x0, symName: __ZNSt3__110__function6__funcIPFmP8SSS_NodeIfEmENS_9allocatorIS6_EES5_EC2B7v160006ERKS6_OS8_, symObjAddr: 0x9E98, symBinAddr: 0x10000B640, symSize: 0x88 }
  - { offsetInCU: 0x3BB86, offset: 0x3BB86, size: 0x8, addend: 0x0, symName: __ZNSt3__110__function12__alloc_funcIPFmP8SSS_NodeIfEmENS_9allocatorIS6_EES5_EC1B7v160006ERKS6_OS8_, symObjAddr: 0x9F20, symBinAddr: 0x10000B6C8, symSize: 0x3C }
  - { offsetInCU: 0x3BBCC, offset: 0x3BBCC, size: 0x8, addend: 0x0, symName: __ZNSt3__110__function12__alloc_funcIPFmP8SSS_NodeIfEmENS_9allocatorIS6_EES5_EC2B7v160006ERKS6_OS8_, symObjAddr: 0x9F5C, symBinAddr: 0x10000B704, symSize: 0x5C }
  - { offsetInCU: 0x3BC12, offset: 0x3BC12, size: 0x8, addend: 0x0, symName: __ZNSt3__117__compressed_pairIPFmP8SSS_NodeIfEmENS_9allocatorIS5_EEEC1B7v160006IJRKS5_EJOS7_EEENS_21piecewise_construct_tENS_5tupleIJDpT_EEENSE_IJDpT0_EEE, symObjAddr: 0x9FE4, symBinAddr: 0x10000B78C, symSize: 0x3C }
  - { offsetInCU: 0x3BC7C, offset: 0x3BC7C, size: 0x8, addend: 0x0, symName: __ZNSt3__15tupleIJRKPFmP8SSS_NodeIfEmEEEC1B7v160006INS_4_AndELi0EEES7_, symObjAddr: 0xA020, symBinAddr: 0x10000B7C8, symSize: 0x34 }
  - { offsetInCU: 0x3BCC4, offset: 0x3BCC4, size: 0x8, addend: 0x0, symName: __ZNSt3__15tupleIJRKPFmP8SSS_NodeIfEmEEEC2B7v160006INS_4_AndELi0EEES7_, symObjAddr: 0xA054, symBinAddr: 0x10000B7FC, symSize: 0x34 }
  - { offsetInCU: 0x3BD0C, offset: 0x3BD0C, size: 0x8, addend: 0x0, symName: __ZNSt3__112__tuple_implINS_15__tuple_indicesIJLm0EEEEJRKPFmP8SSS_NodeIfEmEEEC1B7v160006IJLm0EEJS9_EJEJEJS9_EEENS1_IJXspT_EEEENS_13__tuple_typesIJDpT0_EEENS1_IJXspT1_EEEENSD_IJDpT2_EEEDpOT3_, symObjAddr: 0xA088, symBinAddr: 0x10000B830, symSize: 0x34 }
  - { offsetInCU: 0x3BDA1, offset: 0x3BDA1, size: 0x8, addend: 0x0, symName: __ZNSt3__112__tuple_implINS_15__tuple_indicesIJLm0EEEEJRKPFmP8SSS_NodeIfEmEEEC2B7v160006IJLm0EEJS9_EJEJEJS9_EEENS1_IJXspT_EEEENS_13__tuple_typesIJDpT0_EEENS1_IJXspT1_EEEENSD_IJDpT2_EEEDpOT3_, symObjAddr: 0xA0BC, symBinAddr: 0x10000B864, symSize: 0x34 }
  - { offsetInCU: 0x3BE36, offset: 0x3BE36, size: 0x8, addend: 0x0, symName: __ZNSt3__112__tuple_leafILm0ERKPFmP8SSS_NodeIfEmELb0EEC2B7v160006IS7_vEEOT_, symObjAddr: 0xA0F0, symBinAddr: 0x10000B898, symSize: 0x20 }
  - { offsetInCU: 0x3BE79, offset: 0x3BE79, size: 0x8, addend: 0x0, symName: __ZNSt3__117__compressed_pairIPFmP8SSS_NodeIfEmENS_9allocatorIS5_EEEC2B7v160006IJRKS5_EJOS7_EEENS_21piecewise_construct_tENS_5tupleIJDpT_EEENSE_IJDpT0_EEE, symObjAddr: 0xA110, symBinAddr: 0x10000B8B8, symSize: 0x54 }
  - { offsetInCU: 0x3BEE3, offset: 0x3BEE3, size: 0x8, addend: 0x0, symName: __ZNSt3__122__compressed_pair_elemIPFmP8SSS_NodeIfEmELi0ELb0EEC2B7v160006IJRKS5_EJLm0EEEENS_21piecewise_construct_tENS_5tupleIJDpT_EEENS_15__tuple_indicesIJXspT0_EEEE, symObjAddr: 0xA164, symBinAddr: 0x10000B90C, symSize: 0x44 }
  - { offsetInCU: 0x3BF46, offset: 0x3BF46, size: 0x8, addend: 0x0, symName: __ZNSt3__112__tuple_leafILm0ERKPFmP8SSS_NodeIfEmELb0EE3getB7v160006Ev, symObjAddr: 0xA1CC, symBinAddr: 0x10000B974, symSize: 0x18 }
  - { offsetInCU: 0x3BF6C, offset: 0x3BF6C, size: 0x8, addend: 0x0, symName: __ZNSt3__117__compressed_pairIPNS_10__function6__funcIPFmP8SSS_NodeIfEmENS_9allocatorIS7_EES6_EENS_22__allocator_destructorINS8_ISA_EEEEE5firstB7v160006Ev, symObjAddr: 0xA1E4, symBinAddr: 0x10000B98C, symSize: 0x24 }
  - { offsetInCU: 0x3BF92, offset: 0x3BF92, size: 0x8, addend: 0x0, symName: __ZNSt3__122__compressed_pair_elemIPNS_10__function6__funcIPFmP8SSS_NodeIfEmENS_9allocatorIS7_EES6_EELi0ELb0EE5__getB7v160006Ev, symObjAddr: 0xA208, symBinAddr: 0x10000B9B0, symSize: 0x14 }
  - { offsetInCU: 0x3BFB8, offset: 0x3BFB8, size: 0x8, addend: 0x0, symName: __ZNSt3__110unique_ptrINS_10__function6__funcIPFmP8SSS_NodeIfEmENS_9allocatorIS7_EES6_EENS_22__allocator_destructorINS8_ISA_EEEEED2B7v160006Ev, symObjAddr: 0xA21C, symBinAddr: 0x10000B9C4, symSize: 0x30 }
  - { offsetInCU: 0x3BFE2, offset: 0x3BFE2, size: 0x8, addend: 0x0, symName: __ZNSt3__110unique_ptrINS_10__function6__funcIPFmP8SSS_NodeIfEmENS_9allocatorIS7_EES6_EENS_22__allocator_destructorINS8_ISA_EEEEE5resetB7v160006EPSA_, symObjAddr: 0xA24C, symBinAddr: 0x10000B9F4, symSize: 0x78 }
  - { offsetInCU: 0x3C026, offset: 0x3C026, size: 0x8, addend: 0x0, symName: __ZNSt3__117__compressed_pairIPNS_10__function6__funcIPFmP8SSS_NodeIfEmENS_9allocatorIS7_EES6_EENS_22__allocator_destructorINS8_ISA_EEEEE6secondB7v160006Ev, symObjAddr: 0xA2C4, symBinAddr: 0x10000BA6C, symSize: 0x28 }
  - { offsetInCU: 0x3C04C, offset: 0x3C04C, size: 0x8, addend: 0x0, symName: __ZNSt3__122__allocator_destructorINS_9allocatorINS_10__function6__funcIPFmP8SSS_NodeIfEmENS1_IS8_EES7_EEEEEclB7v160006EPSA_, symObjAddr: 0xA2EC, symBinAddr: 0x10000BA94, symSize: 0x34 }
  - { offsetInCU: 0x3C080, offset: 0x3C080, size: 0x8, addend: 0x0, symName: __ZNSt3__122__compressed_pair_elemINS_22__allocator_destructorINS_9allocatorINS_10__function6__funcIPFmP8SSS_NodeIfEmENS2_IS9_EES8_EEEEEELi1ELb0EE5__getB7v160006Ev, symObjAddr: 0xA320, symBinAddr: 0x10000BAC8, symSize: 0x14 }
  - { offsetInCU: 0x3C0A6, offset: 0x3C0A6, size: 0x8, addend: 0x0, symName: __ZNSt3__116allocator_traitsINS_9allocatorINS_10__function6__funcIPFmP8SSS_NodeIfEmENS1_IS8_EES7_EEEEE10deallocateB7v160006ERSB_PSA_m, symObjAddr: 0xA334, symBinAddr: 0x10000BADC, symSize: 0x34 }
  - { offsetInCU: 0x3C0E8, offset: 0x3C0E8, size: 0x8, addend: 0x0, symName: __ZNSt3__19allocatorINS_10__function6__funcIPFmP8SSS_NodeIfEmENS0_IS7_EES6_EEE10deallocateB7v160006EPS9_m, symObjAddr: 0xA368, symBinAddr: 0x10000BB10, symSize: 0x40 }
  - { offsetInCU: 0x3C12A, offset: 0x3C12A, size: 0x8, addend: 0x0, symName: __ZNSt3__110__function6__funcIPFmP8SSS_NodeIfEmENS_9allocatorIS6_EES5_EC1B7v160006ERKS6_RKS8_, symObjAddr: 0xA3A8, symBinAddr: 0x10000BB50, symSize: 0x3C }
  - { offsetInCU: 0x3C172, offset: 0x3C172, size: 0x8, addend: 0x0, symName: __ZNSt3__110__function6__funcIPFmP8SSS_NodeIfEmENS_9allocatorIS6_EES5_EC2B7v160006ERKS6_RKS8_, symObjAddr: 0xA3E4, symBinAddr: 0x10000BB8C, symSize: 0x88 }
  - { offsetInCU: 0x3C1BA, offset: 0x3C1BA, size: 0x8, addend: 0x0, symName: __ZNSt3__110__function12__alloc_funcIPFmP8SSS_NodeIfEmENS_9allocatorIS6_EES5_EC1B7v160006ERKS6_RKS8_, symObjAddr: 0xA46C, symBinAddr: 0x10000BC14, symSize: 0x3C }
  - { offsetInCU: 0x3C200, offset: 0x3C200, size: 0x8, addend: 0x0, symName: __ZNSt3__110__function12__alloc_funcIPFmP8SSS_NodeIfEmENS_9allocatorIS6_EES5_EC2B7v160006ERKS6_RKS8_, symObjAddr: 0xA4A8, symBinAddr: 0x10000BC50, symSize: 0x5C }
  - { offsetInCU: 0x3C246, offset: 0x3C246, size: 0x8, addend: 0x0, symName: __ZNSt3__117__compressed_pairIPFmP8SSS_NodeIfEmENS_9allocatorIS5_EEEC1B7v160006IJRKS5_EJRKS7_EEENS_21piecewise_construct_tENS_5tupleIJDpT_EEENSF_IJDpT0_EEE, symObjAddr: 0xA530, symBinAddr: 0x10000BCD8, symSize: 0x3C }
  - { offsetInCU: 0x3C2B0, offset: 0x3C2B0, size: 0x8, addend: 0x0, symName: __ZNSt3__15tupleIJRKNS_9allocatorIPFmP8SSS_NodeIfEmEEEEEC1B7v160006INS_4_AndELi0EEES9_, symObjAddr: 0xA56C, symBinAddr: 0x10000BD14, symSize: 0x34 }
  - { offsetInCU: 0x3C2F8, offset: 0x3C2F8, size: 0x8, addend: 0x0, symName: __ZNSt3__15tupleIJRKNS_9allocatorIPFmP8SSS_NodeIfEmEEEEEC2B7v160006INS_4_AndELi0EEES9_, symObjAddr: 0xA5A0, symBinAddr: 0x10000BD48, symSize: 0x34 }
  - { offsetInCU: 0x3C340, offset: 0x3C340, size: 0x8, addend: 0x0, symName: __ZNSt3__112__tuple_implINS_15__tuple_indicesIJLm0EEEEJRKNS_9allocatorIPFmP8SSS_NodeIfEmEEEEEC1B7v160006IJLm0EEJSB_EJEJEJSB_EEENS1_IJXspT_EEEENS_13__tuple_typesIJDpT0_EEENS1_IJXspT1_EEEENSF_IJDpT2_EEEDpOT3_, symObjAddr: 0xA5D4, symBinAddr: 0x10000BD7C, symSize: 0x34 }
  - { offsetInCU: 0x3C3D5, offset: 0x3C3D5, size: 0x8, addend: 0x0, symName: __ZNSt3__112__tuple_implINS_15__tuple_indicesIJLm0EEEEJRKNS_9allocatorIPFmP8SSS_NodeIfEmEEEEEC2B7v160006IJLm0EEJSB_EJEJEJSB_EEENS1_IJXspT_EEEENS_13__tuple_typesIJDpT0_EEENS1_IJXspT1_EEEENSF_IJDpT2_EEEDpOT3_, symObjAddr: 0xA608, symBinAddr: 0x10000BDB0, symSize: 0x34 }
  - { offsetInCU: 0x3C46A, offset: 0x3C46A, size: 0x8, addend: 0x0, symName: __ZNSt3__112__tuple_leafILm0ERKNS_9allocatorIPFmP8SSS_NodeIfEmEEELb0EEC2B7v160006IS9_vEEOT_, symObjAddr: 0xA63C, symBinAddr: 0x10000BDE4, symSize: 0x20 }
  - { offsetInCU: 0x3C4AD, offset: 0x3C4AD, size: 0x8, addend: 0x0, symName: __ZNSt3__117__compressed_pairIPFmP8SSS_NodeIfEmENS_9allocatorIS5_EEEC2B7v160006IJRKS5_EJRKS7_EEENS_21piecewise_construct_tENS_5tupleIJDpT_EEENSF_IJDpT0_EEE, symObjAddr: 0xA65C, symBinAddr: 0x10000BE04, symSize: 0x54 }
  - { offsetInCU: 0x3C517, offset: 0x3C517, size: 0x8, addend: 0x0, symName: __ZNSt3__122__compressed_pair_elemINS_9allocatorIPFmP8SSS_NodeIfEmEEELi1ELb1EEC2B7v160006IJRKS7_EJLm0EEEENS_21piecewise_construct_tENS_5tupleIJDpT_EEENS_15__tuple_indicesIJXspT0_EEEE, symObjAddr: 0xA6B0, symBinAddr: 0x10000BE58, symSize: 0x38 }
  - { offsetInCU: 0x3C57A, offset: 0x3C57A, size: 0x8, addend: 0x0, symName: __ZNSt3__112__tuple_leafILm0ERKNS_9allocatorIPFmP8SSS_NodeIfEmEEELb0EE3getB7v160006Ev, symObjAddr: 0xA70C, symBinAddr: 0x10000BEB4, symSize: 0x18 }
  - { offsetInCU: 0x3C5A0, offset: 0x3C5A0, size: 0x8, addend: 0x0, symName: __ZNSt3__110__function12__alloc_funcIPFmP8SSS_NodeIfEmENS_9allocatorIS6_EES5_E7destroyB7v160006Ev, symObjAddr: 0xA724, symBinAddr: 0x10000BECC, symSize: 0x10 }
  - { offsetInCU: 0x3C5C6, offset: 0x3C5C6, size: 0x8, addend: 0x0, symName: __ZNSt3__110__function12__alloc_funcIPFmP8SSS_NodeIfEmENS_9allocatorIS6_EES5_EclB7v160006EOS4_Om, symObjAddr: 0xA734, symBinAddr: 0x10000BEDC, symSize: 0x38 }
  - { offsetInCU: 0x3C608, offset: 0x3C608, size: 0x8, addend: 0x0, symName: __ZNSt3__128__invoke_void_return_wrapperImLb0EE6__callIJRPFmP8SSS_NodeIfEmES5_mEEEmDpOT_, symObjAddr: 0xA76C, symBinAddr: 0x10000BF14, symSize: 0x34 }
  - { offsetInCU: 0x3C65F, offset: 0x3C65F, size: 0x8, addend: 0x0, symName: __ZNSt3__117__compressed_pairIPFmP8SSS_NodeIfEmENS_9allocatorIS5_EEE5firstB7v160006Ev, symObjAddr: 0xA7A0, symBinAddr: 0x10000BF48, symSize: 0x24 }
  - { offsetInCU: 0x3C685, offset: 0x3C685, size: 0x8, addend: 0x0, symName: __ZNSt3__122__compressed_pair_elemIPFmP8SSS_NodeIfEmELi0ELb0EE5__getB7v160006Ev, symObjAddr: 0xA804, symBinAddr: 0x10000BFAC, symSize: 0x14 }
  - { offsetInCU: 0x3C6AB, offset: 0x3C6AB, size: 0x8, addend: 0x0, symName: __ZNSt3__18functionIFmP8SSS_NodeIfEmEED2Ev, symObjAddr: 0xA818, symBinAddr: 0x10000BFC0, symSize: 0x2C }
  - { offsetInCU: 0x3C6D7, offset: 0x3C6D7, size: 0x8, addend: 0x0, symName: __ZNSt3__110__function12__value_funcIFmP8SSS_NodeIfEmEED1B7v160006Ev, symObjAddr: 0xA844, symBinAddr: 0x10000BFEC, symSize: 0x2C }
  - { offsetInCU: 0x3C701, offset: 0x3C701, size: 0x8, addend: 0x0, symName: __ZNSt3__110__function12__value_funcIFmP8SSS_NodeIfEmEED2B7v160006Ev, symObjAddr: 0xA870, symBinAddr: 0x10000C018, symSize: 0x90 }
  - { offsetInCU: 0x3C72B, offset: 0x3C72B, size: 0x8, addend: 0x0, symName: __ZN9SSS_MixerIfE8new_nodeE8NodeTypeNSt3__18functionIFmP8SSS_NodeIfEmEEEiPvNS2_12basic_stringIcNS2_11char_traitsIcEENS2_9allocatorIcEEEESF_, symObjAddr: 0xA900, symBinAddr: 0x10000C0A8, symSize: 0x3F0 }
  - { offsetInCU: 0x3C7BE, offset: 0x3C7BE, size: 0x8, addend: 0x0, symName: __ZN8SSS_NodeIfEC1E8NodeTypeNSt3__18functionIFmPS0_mEEEimNS2_12basic_stringIcNS2_11char_traitsIcEENS2_9allocatorIcEEEESC_, symObjAddr: 0xAD4C, symBinAddr: 0x10000C4F4, symSize: 0x5C }
  - { offsetInCU: 0x3C83F, offset: 0x3C83F, size: 0x8, addend: 0x0, symName: __ZN8SSS_NodeIfEC1E8NodeTypeNSt3__18functionIFmPS0_mEEEimNS2_12basic_stringIcNS2_11char_traitsIcEENS2_9allocatorIcEEEE, symObjAddr: 0xADA8, symBinAddr: 0x10000C550, symSize: 0x54 }
  - { offsetInCU: 0x3C8B1, offset: 0x3C8B1, size: 0x8, addend: 0x0, symName: __ZN14SSS_ThreadPool12push_node_tpIRNSt3__18functionIFmP8SSS_NodeIfEmEEEJRS5_RmEEEvOT_DpOT0_, symObjAddr: 0xADFC, symBinAddr: 0x10000C5A4, symSize: 0x118 }
  - { offsetInCU: 0x3C930, offset: 0x3C930, size: 0x8, addend: 0x0, symName: __ZNSt3__16vectorIP8SSS_NodeIfENS_9allocatorIS3_EEE9push_backB7v160006ERKS3_, symObjAddr: 0xAF14, symBinAddr: 0x10000C6BC, symSize: 0x6C }
  - { offsetInCU: 0x3C967, offset: 0x3C967, size: 0x8, addend: 0x0, symName: __ZNKSt3__112basic_stringIcNS_11char_traitsIcEENS_9allocatorIcEEEcvNS_17basic_string_viewIcS2_EEB7v160006Ev, symObjAddr: 0xB030, symBinAddr: 0x10000C7D8, symSize: 0x50 }
  - { offsetInCU: 0x3C98D, offset: 0x3C98D, size: 0x8, addend: 0x0, symName: __ZNSt3__117basic_string_viewIcNS_11char_traitsIcEEEC1B7v160006EPKc, symObjAddr: 0xB080, symBinAddr: 0x10000C828, symSize: 0x34 }
  - { offsetInCU: 0x3C9C6, offset: 0x3C9C6, size: 0x8, addend: 0x0, symName: __ZNKSt3__117basic_string_viewIcNS_11char_traitsIcEEE4sizeB7v160006Ev, symObjAddr: 0xB0B4, symBinAddr: 0x10000C85C, symSize: 0x18 }
  - { offsetInCU: 0x3C9EC, offset: 0x3C9EC, size: 0x8, addend: 0x0, symName: __ZNKSt3__117basic_string_viewIcNS_11char_traitsIcEEE7compareES3_, symObjAddr: 0xB0CC, symBinAddr: 0x10000C874, symSize: 0x13C }
  - { offsetInCU: 0x3CA3F, offset: 0x3CA3F, size: 0x8, addend: 0x0, symName: __ZNSt3__111char_traitsIcE7compareEPKcS3_m, symObjAddr: 0xB234, symBinAddr: 0x10000C9DC, symSize: 0x6C }
  - { offsetInCU: 0x3CA7E, offset: 0x3CA7E, size: 0x8, addend: 0x0, symName: __ZNKSt3__117basic_string_viewIcNS_11char_traitsIcEEE4dataB7v160006Ev, symObjAddr: 0xB2A0, symBinAddr: 0x10000CA48, symSize: 0x18 }
  - { offsetInCU: 0x3CAAE, offset: 0x3CAAE, size: 0x8, addend: 0x0, symName: __ZNKSt3__16__lessImmEclB7v160006ERKmS3_, symObjAddr: 0xB30C, symBinAddr: 0x10000CAB4, symSize: 0x34 }
  - { offsetInCU: 0x3CAF0, offset: 0x3CAF0, size: 0x8, addend: 0x0, symName: __ZNKSt3__112basic_stringIcNS_11char_traitsIcEENS_9allocatorIcEEE4dataB7v160006Ev, symObjAddr: 0xB374, symBinAddr: 0x10000CB1C, symSize: 0x28 }
  - { offsetInCU: 0x3CB16, offset: 0x3CB16, size: 0x8, addend: 0x0, symName: __ZNKSt3__112basic_stringIcNS_11char_traitsIcEENS_9allocatorIcEEE4sizeB7v160006Ev, symObjAddr: 0xB39C, symBinAddr: 0x10000CB44, symSize: 0x54 }
  - { offsetInCU: 0x3CB3C, offset: 0x3CB3C, size: 0x8, addend: 0x0, symName: __ZNSt3__117basic_string_viewIcNS_11char_traitsIcEEEC1B7v160006EPKcm, symObjAddr: 0xB3F0, symBinAddr: 0x10000CB98, symSize: 0x3C }
  - { offsetInCU: 0x3CB84, offset: 0x3CB84, size: 0x8, addend: 0x0, symName: __ZNKSt3__112basic_stringIcNS_11char_traitsIcEENS_9allocatorIcEEE13__get_pointerB7v160006Ev, symObjAddr: 0xB440, symBinAddr: 0x10000CBE8, symSize: 0x54 }
  - { offsetInCU: 0x3CBAA, offset: 0x3CBAA, size: 0x8, addend: 0x0, symName: __ZNKSt3__112basic_stringIcNS_11char_traitsIcEENS_9allocatorIcEEE18__get_long_pointerB7v160006Ev, symObjAddr: 0xB494, symBinAddr: 0x10000CC3C, symSize: 0x28 }
  - { offsetInCU: 0x3CBD0, offset: 0x3CBD0, size: 0x8, addend: 0x0, symName: __ZNKSt3__112basic_stringIcNS_11char_traitsIcEENS_9allocatorIcEEE19__get_short_pointerB7v160006Ev, symObjAddr: 0xB4BC, symBinAddr: 0x10000CC64, symSize: 0x28 }
  - { offsetInCU: 0x3CBF6, offset: 0x3CBF6, size: 0x8, addend: 0x0, symName: __ZNSt3__114pointer_traitsIPKcE10pointer_toB7v160006ERS1_, symObjAddr: 0xB4E4, symBinAddr: 0x10000CC8C, symSize: 0x14 }
  - { offsetInCU: 0x3CC19, offset: 0x3CC19, size: 0x8, addend: 0x0, symName: __ZNKSt3__112basic_stringIcNS_11char_traitsIcEENS_9allocatorIcEEE15__get_long_sizeB7v160006Ev, symObjAddr: 0xB4F8, symBinAddr: 0x10000CCA0, symSize: 0x28 }
  - { offsetInCU: 0x3CC3F, offset: 0x3CC3F, size: 0x8, addend: 0x0, symName: __ZNKSt3__112basic_stringIcNS_11char_traitsIcEENS_9allocatorIcEEE16__get_short_sizeB7v160006Ev, symObjAddr: 0xB520, symBinAddr: 0x10000CCC8, symSize: 0x34 }
  - { offsetInCU: 0x3CC65, offset: 0x3CC65, size: 0x8, addend: 0x0, symName: __ZNSt3__117basic_string_viewIcNS_11char_traitsIcEEEC2B7v160006EPKcm, symObjAddr: 0xB554, symBinAddr: 0x10000CCFC, symSize: 0x50 }
  - { offsetInCU: 0x3CCAD, offset: 0x3CCAD, size: 0x8, addend: 0x0, symName: __ZNSt3__117basic_string_viewIcNS_11char_traitsIcEEEC2B7v160006EPKc, symObjAddr: 0xB5A4, symBinAddr: 0x10000CD4C, symSize: 0x44 }
  - { offsetInCU: 0x3CCE6, offset: 0x3CCE6, size: 0x8, addend: 0x0, symName: __ZN8SSS_NodeIfEC2E8NodeTypeNSt3__18functionIFmPS0_mEEEimNS2_12basic_stringIcNS2_11char_traitsIcEENS2_9allocatorIcEEEESC_, symObjAddr: 0xB60C, symBinAddr: 0x10000CDB4, symSize: 0x320 }
  - { offsetInCU: 0x3CD69, offset: 0x3CD69, size: 0x8, addend: 0x0, symName: __ZNSt3__18functionIFmP8SSS_NodeIfEmEEC1B7v160006Ev, symObjAddr: 0xB92C, symBinAddr: 0x10000D0D4, symSize: 0x2C }
  - { offsetInCU: 0x3CD93, offset: 0x3CD93, size: 0x8, addend: 0x0, symName: __ZNSt3__18functionIFv8SSS_NodeIfEEEC1B7v160006Ev, symObjAddr: 0xB958, symBinAddr: 0x10000D100, symSize: 0x2C }
  - { offsetInCU: 0x3CDBD, offset: 0x3CDBD, size: 0x8, addend: 0x0, symName: __ZNSt3__18functionIFmP8SSS_NodeIfEmEEaSERKS5_, symObjAddr: 0xB984, symBinAddr: 0x10000D12C, symSize: 0x84 }
  - { offsetInCU: 0x3CDF4, offset: 0x3CDF4, size: 0x8, addend: 0x0, symName: __ZN8SSS_FifoIfEC1Em, symObjAddr: 0xBA08, symBinAddr: 0x10000D1B0, symSize: 0x34 }
  - { offsetInCU: 0x3CE2C, offset: 0x3CE2C, size: 0x8, addend: 0x0, symName: __ZN8SSS_FileC1ENSt3__112basic_stringIcNS0_11char_traitsIcEENS0_9allocatorIcEEEEb, symObjAddr: 0xBA3C, symBinAddr: 0x10000D1E4, symSize: 0x48 }
  - { offsetInCU: 0x3CE73, offset: 0x3CE73, size: 0x8, addend: 0x0, symName: __ZNSt3__18functionIFv8SSS_NodeIfEEED1Ev, symObjAddr: 0xBA84, symBinAddr: 0x10000D22C, symSize: 0x2C }
  - { offsetInCU: 0x3CE9F, offset: 0x3CE9F, size: 0x8, addend: 0x0, symName: __ZNSt3__18functionIFmP8SSS_NodeIfEmEEC2B7v160006Ev, symObjAddr: 0xBAB0, symBinAddr: 0x10000D258, symSize: 0x2C }
  - { offsetInCU: 0x3CEC9, offset: 0x3CEC9, size: 0x8, addend: 0x0, symName: __ZNSt3__110__function12__value_funcIFmP8SSS_NodeIfEmEEC1B7v160006Ev, symObjAddr: 0xBADC, symBinAddr: 0x10000D284, symSize: 0x2C }
  - { offsetInCU: 0x3CEF3, offset: 0x3CEF3, size: 0x8, addend: 0x0, symName: __ZNSt3__110__function12__value_funcIFmP8SSS_NodeIfEmEEC2B7v160006Ev, symObjAddr: 0xBB08, symBinAddr: 0x10000D2B0, symSize: 0x18 }
  - { offsetInCU: 0x3CF1D, offset: 0x3CF1D, size: 0x8, addend: 0x0, symName: __ZNSt3__18functionIFv8SSS_NodeIfEEEC2B7v160006Ev, symObjAddr: 0xBB20, symBinAddr: 0x10000D2C8, symSize: 0x2C }
  - { offsetInCU: 0x3CF47, offset: 0x3CF47, size: 0x8, addend: 0x0, symName: __ZNSt3__110__function12__value_funcIFv8SSS_NodeIfEEEC1B7v160006Ev, symObjAddr: 0xBB4C, symBinAddr: 0x10000D2F4, symSize: 0x2C }
  - { offsetInCU: 0x3CF71, offset: 0x3CF71, size: 0x8, addend: 0x0, symName: __ZNSt3__110__function12__value_funcIFv8SSS_NodeIfEEEC2B7v160006Ev, symObjAddr: 0xBB78, symBinAddr: 0x10000D320, symSize: 0x18 }
  - { offsetInCU: 0x3CF9B, offset: 0x3CF9B, size: 0x8, addend: 0x0, symName: __ZNSt3__18functionIFmP8SSS_NodeIfEmEE4swapERS5_, symObjAddr: 0xBB90, symBinAddr: 0x10000D338, symSize: 0x2C }
  - { offsetInCU: 0x3CFD2, offset: 0x3CFD2, size: 0x8, addend: 0x0, symName: __ZNSt3__110__function12__value_funcIFmP8SSS_NodeIfEmEE4swapB7v160006ERS6_, symObjAddr: 0xBBBC, symBinAddr: 0x10000D364, symSize: 0x304 }
  - { offsetInCU: 0x3D02B, offset: 0x3D02B, size: 0x8, addend: 0x0, symName: __ZNSt3__110__function12__value_funcIFmP8SSS_NodeIfEmEE9__as_baseEPv, symObjAddr: 0xBEC0, symBinAddr: 0x10000D668, symSize: 0x14 }
  - { offsetInCU: 0x3D04F, offset: 0x3D04F, size: 0x8, addend: 0x0, symName: __ZN8SSS_FifoIfEC2Em, symObjAddr: 0xBF10, symBinAddr: 0x10000D6B8, symSize: 0xBC }
  - { offsetInCU: 0x3D087, offset: 0x3D087, size: 0x8, addend: 0x0, symName: __ZNSt3__16atomicImEC1B7v160006Ev, symObjAddr: 0xBFCC, symBinAddr: 0x10000D774, symSize: 0x2C }
  - { offsetInCU: 0x3D0B1, offset: 0x3D0B1, size: 0x8, addend: 0x0, symName: __ZNSt3__16atomicImEaSB7v160006Em, symObjAddr: 0xBFF8, symBinAddr: 0x10000D7A0, symSize: 0x34 }
  - { offsetInCU: 0x3D0E6, offset: 0x3D0E6, size: 0x8, addend: 0x0, symName: __ZNSt3__16atomicImEC2B7v160006Ev, symObjAddr: 0xC02C, symBinAddr: 0x10000D7D4, symSize: 0x2C }
  - { offsetInCU: 0x3D110, offset: 0x3D110, size: 0x8, addend: 0x0, symName: __ZNSt3__113__atomic_baseImLb1EEC2B7v160006Ev, symObjAddr: 0xC058, symBinAddr: 0x10000D800, symSize: 0x2C }
  - { offsetInCU: 0x3D13A, offset: 0x3D13A, size: 0x8, addend: 0x0, symName: __ZNSt3__113__atomic_baseImLb0EEC2B7v160006Ev, symObjAddr: 0xC084, symBinAddr: 0x10000D82C, symSize: 0x30 }
  - { offsetInCU: 0x3D164, offset: 0x3D164, size: 0x8, addend: 0x0, symName: __ZNSt3__117__cxx_atomic_implImNS_22__cxx_atomic_base_implImEEEC1B7v160006Em, symObjAddr: 0xC0B4, symBinAddr: 0x10000D85C, symSize: 0x34 }
  - { offsetInCU: 0x3D19D, offset: 0x3D19D, size: 0x8, addend: 0x0, symName: __ZNSt3__117__cxx_atomic_implImNS_22__cxx_atomic_base_implImEEEC2B7v160006Em, symObjAddr: 0xC0E8, symBinAddr: 0x10000D890, symSize: 0x34 }
  - { offsetInCU: 0x3D1D6, offset: 0x3D1D6, size: 0x8, addend: 0x0, symName: __ZNSt3__122__cxx_atomic_base_implImEC2Em, symObjAddr: 0xC11C, symBinAddr: 0x10000D8C4, symSize: 0x20 }
  - { offsetInCU: 0x3D20F, offset: 0x3D20F, size: 0x8, addend: 0x0, symName: __ZN8SSS_FileC2ENSt3__112basic_stringIcNS0_11char_traitsIcEENS0_9allocatorIcEEEEb, symObjAddr: 0xC13C, symBinAddr: 0x10000D8E4, symSize: 0x158 }
  - { offsetInCU: 0x3D256, offset: 0x3D256, size: 0x8, addend: 0x0, symName: __ZNSt3__16vectorIcNS_9allocatorIcEEEC1B7v160006Ev, symObjAddr: 0xC294, symBinAddr: 0x10000DA3C, symSize: 0x2C }
  - { offsetInCU: 0x3D280, offset: 0x3D280, size: 0x8, addend: 0x0, symName: __ZNSt3__114basic_ofstreamIcNS_11char_traitsIcEEEC1Ev, symObjAddr: 0xC2C0, symBinAddr: 0x10000DA68, symSize: 0xE8 }
  - { offsetInCU: 0x3D2AC, offset: 0x3D2AC, size: 0x8, addend: 0x0, symName: __ZN8SSS_File9read_fileENSt3__112basic_stringIcNS0_11char_traitsIcEENS0_9allocatorIcEEEE, symObjAddr: 0xC3A8, symBinAddr: 0x10000DB50, symSize: 0x130 }
  - { offsetInCU: 0x3D300, offset: 0x3D300, size: 0x8, addend: 0x0, symName: __ZN8SSS_File9open_fileENSt3__112basic_stringIcNS0_11char_traitsIcEENS0_9allocatorIcEEEE, symObjAddr: 0xC4D8, symBinAddr: 0x10000DC80, symSize: 0x13C }
  - { offsetInCU: 0x3D335, offset: 0x3D335, size: 0x8, addend: 0x0, symName: __ZNSt3__114basic_ofstreamIcNS_11char_traitsIcEEED1Ev, symObjAddr: 0xC614, symBinAddr: 0x10000DDBC, symSize: 0x40 }
  - { offsetInCU: 0x3D362, offset: 0x3D362, size: 0x8, addend: 0x0, symName: __ZNSt3__16vectorIcNS_9allocatorIcEEED1B7v160006Ev, symObjAddr: 0xC654, symBinAddr: 0x10000DDFC, symSize: 0x2C }
  - { offsetInCU: 0x3D38C, offset: 0x3D38C, size: 0x8, addend: 0x0, symName: __ZNSt3__16vectorIcNS_9allocatorIcEEEC2B7v160006Ev, symObjAddr: 0xC680, symBinAddr: 0x10000DE28, symSize: 0x58 }
  - { offsetInCU: 0x3D3B6, offset: 0x3D3B6, size: 0x8, addend: 0x0, symName: __ZNSt3__117__compressed_pairIPcNS_9allocatorIcEEEC1B7v160006IDnNS_18__default_init_tagEEEOT_OT0_, symObjAddr: 0xC6D8, symBinAddr: 0x10000DE80, symSize: 0x3C }
  - { offsetInCU: 0x3D40E, offset: 0x3D40E, size: 0x8, addend: 0x0, symName: __ZNSt3__117__compressed_pairIPcNS_9allocatorIcEEEC2B7v160006IDnNS_18__default_init_tagEEEOT_OT0_, symObjAddr: 0xC724, symBinAddr: 0x10000DECC, symSize: 0x40 }
  - { offsetInCU: 0x3D466, offset: 0x3D466, size: 0x8, addend: 0x0, symName: __ZNSt3__122__compressed_pair_elemIPcLi0ELb0EEC2B7v160006IDnvEEOT_, symObjAddr: 0xC764, symBinAddr: 0x10000DF0C, symSize: 0x1C }
  - { offsetInCU: 0x3D4A8, offset: 0x3D4A8, size: 0x8, addend: 0x0, symName: __ZNSt3__19basic_iosIcNS_11char_traitsIcEEEC2B7v160006Ev, symObjAddr: 0xC780, symBinAddr: 0x10000DF28, symSize: 0x44 }
  - { offsetInCU: 0x3D4D2, offset: 0x3D4D2, size: 0x8, addend: 0x0, symName: __ZNSt3__113basic_ostreamIcNS_11char_traitsIcEEEC2B7v160006EPNS_15basic_streambufIcS2_EE, symObjAddr: 0xC7C4, symBinAddr: 0x10000DF6C, symSize: 0x60 }
  - { offsetInCU: 0x3D517, offset: 0x3D517, size: 0x8, addend: 0x0, symName: __ZNSt3__18ios_baseC2B7v160006Ev, symObjAddr: 0xC824, symBinAddr: 0x10000DFCC, symSize: 0x24 }
  - { offsetInCU: 0x3D541, offset: 0x3D541, size: 0x8, addend: 0x0, symName: __ZNSt3__19basic_iosIcNS_11char_traitsIcEEE4initB7v160006EPNS_15basic_streambufIcS2_EE, symObjAddr: 0xC848, symBinAddr: 0x10000DFF0, symSize: 0x44 }
  - { offsetInCU: 0x3D593, offset: 0x3D593, size: 0x8, addend: 0x0, symName: __ZNSt3__114basic_ifstreamIcNS_11char_traitsIcEEEC1ERKNS_12basic_stringIcS2_NS_9allocatorIcEEEEj, symObjAddr: 0xC88C, symBinAddr: 0x10000E034, symSize: 0x16C }
  - { offsetInCU: 0x3D5DD, offset: 0x3D5DD, size: 0x8, addend: 0x0, symName: __ZNSt3__119istreambuf_iteratorIcNS_11char_traitsIcEEEC1B7v160006ERNS_13basic_istreamIcS2_EE, symObjAddr: 0xC9F8, symBinAddr: 0x10000E1A0, symSize: 0x34 }
  - { offsetInCU: 0x3D615, offset: 0x3D615, size: 0x8, addend: 0x0, symName: __ZNSt3__119istreambuf_iteratorIcNS_11char_traitsIcEEEC1B7v160006Ev, symObjAddr: 0xCA2C, symBinAddr: 0x10000E1D4, symSize: 0x2C }
  - { offsetInCU: 0x3D63F, offset: 0x3D63F, size: 0x8, addend: 0x0, symName: __ZNSt3__16vectorIcNS_9allocatorIcEEEC1INS_19istreambuf_iteratorIcNS_11char_traitsIcEEEELi0EEET_S9_, symObjAddr: 0xCA58, symBinAddr: 0x10000E200, symSize: 0x3C }
  - { offsetInCU: 0x3D698, offset: 0x3D698, size: 0x8, addend: 0x0, symName: __ZNSt3__16vectorIcNS_9allocatorIcEEEaSB7v160006ERKS3_, symObjAddr: 0xCA94, symBinAddr: 0x10000E23C, symSize: 0x68 }
  - { offsetInCU: 0x3D6CF, offset: 0x3D6CF, size: 0x8, addend: 0x0, symName: __ZNKSt3__16vectorIcNS_9allocatorIcEEE4sizeB7v160006Ev, symObjAddr: 0xCAFC, symBinAddr: 0x10000E2A4, symSize: 0x20 }
  - { offsetInCU: 0x3D6F5, offset: 0x3D6F5, size: 0x8, addend: 0x0, symName: __ZNSt3__114basic_ifstreamIcNS_11char_traitsIcEEED1Ev, symObjAddr: 0xCB1C, symBinAddr: 0x10000E2C4, symSize: 0x40 }
  - { offsetInCU: 0x3D722, offset: 0x3D722, size: 0x8, addend: 0x0, symName: __ZNSt3__113basic_istreamIcNS_11char_traitsIcEEEC2B7v160006EPNS_15basic_streambufIcS2_EE, symObjAddr: 0xCB5C, symBinAddr: 0x10000E304, symSize: 0x64 }
  - { offsetInCU: 0x3D767, offset: 0x3D767, size: 0x8, addend: 0x0, symName: __ZNSt3__113basic_filebufIcNS_11char_traitsIcEEE4openERKNS_12basic_stringIcS2_NS_9allocatorIcEEEEj, symObjAddr: 0xCBC0, symBinAddr: 0x10000E368, symSize: 0x44 }
  - { offsetInCU: 0x3D7AB, offset: 0x3D7AB, size: 0x8, addend: 0x0, symName: __ZNKSt3__112basic_stringIcNS_11char_traitsIcEENS_9allocatorIcEEE5c_strB7v160006Ev, symObjAddr: 0xCC04, symBinAddr: 0x10000E3AC, symSize: 0x24 }
  - { offsetInCU: 0x3D7D1, offset: 0x3D7D1, size: 0x8, addend: 0x0, symName: __ZNSt3__119istreambuf_iteratorIcNS_11char_traitsIcEEEC2B7v160006ERNS_13basic_istreamIcS2_EE, symObjAddr: 0xCC28, symBinAddr: 0x10000E3D0, symSize: 0x54 }
  - { offsetInCU: 0x3D809, offset: 0x3D809, size: 0x8, addend: 0x0, symName: __ZNSt3__119istreambuf_iteratorIcNS_11char_traitsIcEEEC2B7v160006Ev, symObjAddr: 0xCC7C, symBinAddr: 0x10000E424, symSize: 0x18 }
  - { offsetInCU: 0x3D833, offset: 0x3D833, size: 0x8, addend: 0x0, symName: __ZNSt3__16vectorIcNS_9allocatorIcEEEC2INS_19istreambuf_iteratorIcNS_11char_traitsIcEEEELi0EEET_S9_, symObjAddr: 0xCC94, symBinAddr: 0x10000E43C, symSize: 0x108 }
  - { offsetInCU: 0x3D8A1, offset: 0x3D8A1, size: 0x8, addend: 0x0, symName: __ZNSt3__16vectorIcNS_9allocatorIcEEE16__destroy_vectorC1ERS3_, symObjAddr: 0xCDDC, symBinAddr: 0x10000E584, symSize: 0x34 }
  - { offsetInCU: 0x3D8E0, offset: 0x3D8E0, size: 0x8, addend: 0x0, symName: __ZNSt3__16vectorIcNS_9allocatorIcEEE12emplace_backIJcEEERcDpOT_, symObjAddr: 0xCE40, symBinAddr: 0x10000E5E8, symSize: 0x74 }
  - { offsetInCU: 0x3D922, offset: 0x3D922, size: 0x8, addend: 0x0, symName: __ZNKSt3__119istreambuf_iteratorIcNS_11char_traitsIcEEEdeB7v160006Ev, symObjAddr: 0xCEB4, symBinAddr: 0x10000E65C, symSize: 0x2C }
  - { offsetInCU: 0x3D948, offset: 0x3D948, size: 0x8, addend: 0x0, symName: __ZNSt3__119istreambuf_iteratorIcNS_11char_traitsIcEEEppB7v160006Ev, symObjAddr: 0xCEE0, symBinAddr: 0x10000E688, symSize: 0x30 }
  - { offsetInCU: 0x3D96E, offset: 0x3D96E, size: 0x8, addend: 0x0, symName: __ZNSt3__128__exception_guard_exceptionsINS_6vectorIcNS_9allocatorIcEEE16__destroy_vectorEE10__completeB7v160006Ev, symObjAddr: 0xCF10, symBinAddr: 0x10000E6B8, symSize: 0x1C }
  - { offsetInCU: 0x3D994, offset: 0x3D994, size: 0x8, addend: 0x0, symName: __ZNSt3__128__exception_guard_exceptionsINS_6vectorIcNS_9allocatorIcEEE16__destroy_vectorEED1B7v160006Ev, symObjAddr: 0xCF2C, symBinAddr: 0x10000E6D4, symSize: 0x2C }
  - { offsetInCU: 0x3D9BE, offset: 0x3D9BE, size: 0x8, addend: 0x0, symName: __ZNSt3__128__exception_guard_exceptionsINS_6vectorIcNS_9allocatorIcEEE16__destroy_vectorEEC1B7v160006ES5_, symObjAddr: 0xCF58, symBinAddr: 0x10000E700, symSize: 0x34 }
  - { offsetInCU: 0x3D9F6, offset: 0x3D9F6, size: 0x8, addend: 0x0, symName: __ZNSt3__128__exception_guard_exceptionsINS_6vectorIcNS_9allocatorIcEEE16__destroy_vectorEEC2B7v160006ES5_, symObjAddr: 0xCF8C, symBinAddr: 0x10000E734, symSize: 0x24 }
  - { offsetInCU: 0x3DA2E, offset: 0x3DA2E, size: 0x8, addend: 0x0, symName: __ZNSt3__16vectorIcNS_9allocatorIcEEE16__destroy_vectorC2ERS3_, symObjAddr: 0xCFB0, symBinAddr: 0x10000E758, symSize: 0x20 }
  - { offsetInCU: 0x3DA67, offset: 0x3DA67, size: 0x8, addend: 0x0, symName: __ZNKSt3__119istreambuf_iteratorIcNS_11char_traitsIcEEE5equalB7v160006ERKS3_, symObjAddr: 0xCFD0, symBinAddr: 0x10000E778, symSize: 0x4C }
  - { offsetInCU: 0x3DA9B, offset: 0x3DA9B, size: 0x8, addend: 0x0, symName: __ZNKSt3__119istreambuf_iteratorIcNS_11char_traitsIcEEE14__test_for_eofB7v160006Ev, symObjAddr: 0xD01C, symBinAddr: 0x10000E7C4, symSize: 0x80 }
  - { offsetInCU: 0x3DAC1, offset: 0x3DAC1, size: 0x8, addend: 0x0, symName: __ZNSt3__115basic_streambufIcNS_11char_traitsIcEEE5sgetcB7v160006Ev, symObjAddr: 0xD09C, symBinAddr: 0x10000E844, symSize: 0x70 }
  - { offsetInCU: 0x3DAE7, offset: 0x3DAE7, size: 0x8, addend: 0x0, symName: __ZNSt3__111char_traitsIcE11to_int_typeEc, symObjAddr: 0xD10C, symBinAddr: 0x10000E8B4, symSize: 0x14 }
  - { offsetInCU: 0x3DB0A, offset: 0x3DB0A, size: 0x8, addend: 0x0, symName: __ZNSt3__16vectorIcNS_9allocatorIcEEE9__end_capB7v160006Ev, symObjAddr: 0xD120, symBinAddr: 0x10000E8C8, symSize: 0x28 }
  - { offsetInCU: 0x3DB30, offset: 0x3DB30, size: 0x8, addend: 0x0, symName: __ZNSt3__16vectorIcNS_9allocatorIcEEE22__construct_one_at_endB7v160006IJcEEEvDpOT_, symObjAddr: 0xD148, symBinAddr: 0x10000E8F0, symSize: 0x90 }
  - { offsetInCU: 0x3DB7F, offset: 0x3DB7F, size: 0x8, addend: 0x0, symName: __ZNSt3__16vectorIcNS_9allocatorIcEEE24__emplace_back_slow_pathIJcEEEvDpOT_, symObjAddr: 0xD1D8, symBinAddr: 0x10000E980, symSize: 0xD8 }
  - { offsetInCU: 0x3DBDF, offset: 0x3DBDF, size: 0x8, addend: 0x0, symName: __ZNSt3__16vectorIcNS_9allocatorIcEEE4backB7v160006Ev, symObjAddr: 0xD2B0, symBinAddr: 0x10000EA58, symSize: 0x1C }
  - { offsetInCU: 0x3DC05, offset: 0x3DC05, size: 0x8, addend: 0x0, symName: __ZNSt3__117__compressed_pairIPcNS_9allocatorIcEEE5firstB7v160006Ev, symObjAddr: 0xD2CC, symBinAddr: 0x10000EA74, symSize: 0x24 }
  - { offsetInCU: 0x3DC2B, offset: 0x3DC2B, size: 0x8, addend: 0x0, symName: __ZNSt3__122__compressed_pair_elemIPcLi0ELb0EE5__getB7v160006Ev, symObjAddr: 0xD2F0, symBinAddr: 0x10000EA98, symSize: 0x14 }
  - { offsetInCU: 0x3DC6C, offset: 0x3DC6C, size: 0x8, addend: 0x0, symName: __ZNSt3__16vectorIcNS_9allocatorIcEEE21_ConstructTransactionC1B7v160006ERS3_m, symObjAddr: 0xD304, symBinAddr: 0x10000EAAC, symSize: 0x3C }
  - { offsetInCU: 0x3DCB4, offset: 0x3DCB4, size: 0x8, addend: 0x0, symName: __ZNSt3__116allocator_traitsINS_9allocatorIcEEE9constructB7v160006IcJcEvvEEvRS2_PT_DpOT0_, symObjAddr: 0xD340, symBinAddr: 0x10000EAE8, symSize: 0x30 }
  - { offsetInCU: 0x3DD09, offset: 0x3DD09, size: 0x8, addend: 0x0, symName: __ZNSt3__16vectorIcNS_9allocatorIcEEE7__allocB7v160006Ev, symObjAddr: 0xD370, symBinAddr: 0x10000EB18, symSize: 0x28 }
  - { offsetInCU: 0x3DD2F, offset: 0x3DD2F, size: 0x8, addend: 0x0, symName: __ZNSt3__16vectorIcNS_9allocatorIcEEE21_ConstructTransactionD1B7v160006Ev, symObjAddr: 0xD398, symBinAddr: 0x10000EB40, symSize: 0x2C }
  - { offsetInCU: 0x3DD59, offset: 0x3DD59, size: 0x8, addend: 0x0, symName: __ZNSt3__16vectorIcNS_9allocatorIcEEE21_ConstructTransactionC2B7v160006ERS3_m, symObjAddr: 0xD3C4, symBinAddr: 0x10000EB6C, symSize: 0x44 }
  - { offsetInCU: 0x3DDA1, offset: 0x3DDA1, size: 0x8, addend: 0x0, symName: __ZNSt3__117__compressed_pairIPcNS_9allocatorIcEEE6secondB7v160006Ev, symObjAddr: 0xD434, symBinAddr: 0x10000EBDC, symSize: 0x24 }
  - { offsetInCU: 0x3DDC7, offset: 0x3DDC7, size: 0x8, addend: 0x0, symName: __ZNSt3__122__compressed_pair_elemINS_9allocatorIcEELi1ELb1EE5__getB7v160006Ev, symObjAddr: 0xD458, symBinAddr: 0x10000EC00, symSize: 0x14 }
  - { offsetInCU: 0x3DDED, offset: 0x3DDED, size: 0x8, addend: 0x0, symName: __ZNSt3__16vectorIcNS_9allocatorIcEEE21_ConstructTransactionD2B7v160006Ev, symObjAddr: 0xD46C, symBinAddr: 0x10000EC14, symSize: 0x20 }
  - { offsetInCU: 0x3DE17, offset: 0x3DE17, size: 0x8, addend: 0x0, symName: __ZNKSt3__16vectorIcNS_9allocatorIcEEE11__recommendB7v160006Em, symObjAddr: 0xD48C, symBinAddr: 0x10000EC34, symSize: 0xB4 }
  - { offsetInCU: 0x3DE6C, offset: 0x3DE6C, size: 0x8, addend: 0x0, symName: __ZNSt3__114__split_bufferIcRNS_9allocatorIcEEEC1EmmS3_, symObjAddr: 0xD540, symBinAddr: 0x10000ECE8, symSize: 0x44 }
  - { offsetInCU: 0x3DEC2, offset: 0x3DEC2, size: 0x8, addend: 0x0, symName: __ZNSt3__114__split_bufferIcRNS_9allocatorIcEEED1Ev, symObjAddr: 0xD69C, symBinAddr: 0x10000EE44, symSize: 0x2C }
  - { offsetInCU: 0x3DEEE, offset: 0x3DEEE, size: 0x8, addend: 0x0, symName: __ZNKSt3__16vectorIcNS_9allocatorIcEEE8max_sizeEv, symObjAddr: 0xD6C8, symBinAddr: 0x10000EE70, symSize: 0x60 }
  - { offsetInCU: 0x3DF16, offset: 0x3DF16, size: 0x8, addend: 0x0, symName: __ZNKSt3__16vectorIcNS_9allocatorIcEEE20__throw_length_errorB7v160006Ev, symObjAddr: 0xD728, symBinAddr: 0x10000EED0, symSize: 0x1C }
  - { offsetInCU: 0x3DF3C, offset: 0x3DF3C, size: 0x8, addend: 0x0, symName: __ZNKSt3__16vectorIcNS_9allocatorIcEEE8capacityB7v160006Ev, symObjAddr: 0xD744, symBinAddr: 0x10000EEEC, symSize: 0x38 }
  - { offsetInCU: 0x3DF6D, offset: 0x3DF6D, size: 0x8, addend: 0x0, symName: __ZNSt3__116allocator_traitsINS_9allocatorIcEEE8max_sizeB7v160006IS2_vvEEmRKS2_, symObjAddr: 0xD7A8, symBinAddr: 0x10000EF50, symSize: 0x28 }
  - { offsetInCU: 0x3DF99, offset: 0x3DF99, size: 0x8, addend: 0x0, symName: __ZNKSt3__16vectorIcNS_9allocatorIcEEE7__allocB7v160006Ev, symObjAddr: 0xD7D0, symBinAddr: 0x10000EF78, symSize: 0x28 }
  - { offsetInCU: 0x3DFBF, offset: 0x3DFBF, size: 0x8, addend: 0x0, symName: __ZNSt3__114numeric_limitsIlE3maxB7v160006Ev, symObjAddr: 0xD7F8, symBinAddr: 0x10000EFA0, symSize: 0x14 }
  - { offsetInCU: 0x3DFD3, offset: 0x3DFD3, size: 0x8, addend: 0x0, symName: __ZNKSt3__117__compressed_pairIPcNS_9allocatorIcEEE6secondB7v160006Ev, symObjAddr: 0xD80C, symBinAddr: 0x10000EFB4, symSize: 0x24 }
  - { offsetInCU: 0x3DFF9, offset: 0x3DFF9, size: 0x8, addend: 0x0, symName: __ZNKSt3__122__compressed_pair_elemINS_9allocatorIcEELi1ELb1EE5__getB7v160006Ev, symObjAddr: 0xD830, symBinAddr: 0x10000EFD8, symSize: 0x14 }
  - { offsetInCU: 0x3E01F, offset: 0x3E01F, size: 0x8, addend: 0x0, symName: __ZNSt3__123__libcpp_numeric_limitsIlLb1EE3maxB7v160006Ev, symObjAddr: 0xD844, symBinAddr: 0x10000EFEC, symSize: 0x8 }
  - { offsetInCU: 0x3E033, offset: 0x3E033, size: 0x8, addend: 0x0, symName: __ZNSt12length_errorC1B7v160006EPKc, symObjAddr: 0xD8B0, symBinAddr: 0x10000F058, symSize: 0x34 }
  - { offsetInCU: 0x3E06B, offset: 0x3E06B, size: 0x8, addend: 0x0, symName: __ZNSt12length_errorC2B7v160006EPKc, symObjAddr: 0xD8E4, symBinAddr: 0x10000F08C, symSize: 0x4C }
  - { offsetInCU: 0x3E0A3, offset: 0x3E0A3, size: 0x8, addend: 0x0, symName: __ZNKSt3__16vectorIcNS_9allocatorIcEEE9__end_capB7v160006Ev, symObjAddr: 0xD930, symBinAddr: 0x10000F0D8, symSize: 0x28 }
  - { offsetInCU: 0x3E0C9, offset: 0x3E0C9, size: 0x8, addend: 0x0, symName: __ZNKSt3__117__compressed_pairIPcNS_9allocatorIcEEE5firstB7v160006Ev, symObjAddr: 0xD958, symBinAddr: 0x10000F100, symSize: 0x24 }
  - { offsetInCU: 0x3E0EF, offset: 0x3E0EF, size: 0x8, addend: 0x0, symName: __ZNKSt3__122__compressed_pair_elemIPcLi0ELb0EE5__getB7v160006Ev, symObjAddr: 0xD97C, symBinAddr: 0x10000F124, symSize: 0x14 }
  - { offsetInCU: 0x3E115, offset: 0x3E115, size: 0x8, addend: 0x0, symName: __ZNSt3__114__split_bufferIcRNS_9allocatorIcEEEC2EmmS3_, symObjAddr: 0xD9E4, symBinAddr: 0x10000F18C, symSize: 0xD4 }
  - { offsetInCU: 0x3E189, offset: 0x3E189, size: 0x8, addend: 0x0, symName: __ZNSt3__117__compressed_pairIPcRNS_9allocatorIcEEEC1B7v160006IDnS4_EEOT_OT0_, symObjAddr: 0xDAB8, symBinAddr: 0x10000F260, symSize: 0x3C }
  - { offsetInCU: 0x3E1E1, offset: 0x3E1E1, size: 0x8, addend: 0x0, symName: __ZNSt3__114__split_bufferIcRNS_9allocatorIcEEE7__allocB7v160006Ev, symObjAddr: 0xDB34, symBinAddr: 0x10000F2DC, symSize: 0x28 }
  - { offsetInCU: 0x3E207, offset: 0x3E207, size: 0x8, addend: 0x0, symName: __ZNSt3__114__split_bufferIcRNS_9allocatorIcEEE9__end_capB7v160006Ev, symObjAddr: 0xDB5C, symBinAddr: 0x10000F304, symSize: 0x28 }
  - { offsetInCU: 0x3E22D, offset: 0x3E22D, size: 0x8, addend: 0x0, symName: __ZNSt3__117__compressed_pairIPcRNS_9allocatorIcEEEC2B7v160006IDnS4_EEOT_OT0_, symObjAddr: 0xDB84, symBinAddr: 0x10000F32C, symSize: 0x48 }
  - { offsetInCU: 0x3E285, offset: 0x3E285, size: 0x8, addend: 0x0, symName: __ZNSt3__122__compressed_pair_elemIRNS_9allocatorIcEELi1ELb0EEC2B7v160006IS3_vEEOT_, symObjAddr: 0xDBCC, symBinAddr: 0x10000F374, symSize: 0x20 }
  - { offsetInCU: 0x3E2C7, offset: 0x3E2C7, size: 0x8, addend: 0x0, symName: __ZNSt3__19allocatorIcE8allocateB7v160006Em, symObjAddr: 0xDBEC, symBinAddr: 0x10000F394, symSize: 0x58 }
  - { offsetInCU: 0x3E2FB, offset: 0x3E2FB, size: 0x8, addend: 0x0, symName: __ZNSt3__117__compressed_pairIPcRNS_9allocatorIcEEE6secondB7v160006Ev, symObjAddr: 0xDC44, symBinAddr: 0x10000F3EC, symSize: 0x28 }
  - { offsetInCU: 0x3E321, offset: 0x3E321, size: 0x8, addend: 0x0, symName: __ZNSt3__122__compressed_pair_elemIRNS_9allocatorIcEELi1ELb0EE5__getB7v160006Ev, symObjAddr: 0xDC6C, symBinAddr: 0x10000F414, symSize: 0x18 }
  - { offsetInCU: 0x3E347, offset: 0x3E347, size: 0x8, addend: 0x0, symName: __ZNSt3__117__compressed_pairIPcRNS_9allocatorIcEEE5firstB7v160006Ev, symObjAddr: 0xDC84, symBinAddr: 0x10000F42C, symSize: 0x24 }
  - { offsetInCU: 0x3E36D, offset: 0x3E36D, size: 0x8, addend: 0x0, symName: __ZNKSt3__16vectorIcNS_9allocatorIcEEE17__annotate_deleteB7v160006Ev, symObjAddr: 0xDCA8, symBinAddr: 0x10000F450, symSize: 0xB8 }
  - { offsetInCU: 0x3E393, offset: 0x3E393, size: 0x8, addend: 0x0, symName: __ZNSt3__116reverse_iteratorIPcEC1B7v160006ES1_, symObjAddr: 0xDDD8, symBinAddr: 0x10000F580, symSize: 0x34 }
  - { offsetInCU: 0x3E3CB, offset: 0x3E3CB, size: 0x8, addend: 0x0, symName: __ZNKSt3__116reverse_iteratorIPcE4baseB7v160006Ev, symObjAddr: 0xDE0C, symBinAddr: 0x10000F5B4, symSize: 0x18 }
  - { offsetInCU: 0x3E3F1, offset: 0x3E3F1, size: 0x8, addend: 0x0, symName: __ZNKSt3__16vectorIcNS_9allocatorIcEEE14__annotate_newB7v160006Em, symObjAddr: 0xDE60, symBinAddr: 0x10000F608, symSize: 0xAC }
  - { offsetInCU: 0x3E426, offset: 0x3E426, size: 0x8, addend: 0x0, symName: __ZNKSt3__16vectorIcNS_9allocatorIcEEE31__annotate_contiguous_containerB7v160006EPKvS5_S5_S5_, symObjAddr: 0xDF1C, symBinAddr: 0x10000F6C4, symSize: 0x20 }
  - { offsetInCU: 0x3E47C, offset: 0x3E47C, size: 0x8, addend: 0x0, symName: __ZNKSt3__16vectorIcNS_9allocatorIcEEE4dataB7v160006Ev, symObjAddr: 0xDF3C, symBinAddr: 0x10000F6E4, symSize: 0x28 }
  - { offsetInCU: 0x3E4C8, offset: 0x3E4C8, size: 0x8, addend: 0x0, symName: __ZNKSt3__111__move_loopINS_17_ClassicAlgPolicyEEclB7v160006INS_16reverse_iteratorIPcEES6_S6_EENS_4pairIT_T1_EES8_T0_S9_, symObjAddr: 0xE21C, symBinAddr: 0x10000F9C4, symSize: 0xA0 }
  - { offsetInCU: 0x3E533, offset: 0x3E533, size: 0x8, addend: 0x0, symName: __ZNSt3__119__unwrap_range_implINS_16reverse_iteratorIPcEES3_E8__unwrapB7v160006ES3_S3_, symObjAddr: 0xE408, symBinAddr: 0x10000FBB0, symSize: 0x84 }
  - { offsetInCU: 0x3E56A, offset: 0x3E56A, size: 0x8, addend: 0x0, symName: __ZNSt3__14pairINS_16reverse_iteratorIPcEES3_EC1B7v160006IS3_S3_LPv0EEEOT_OT0_, symObjAddr: 0xE48C, symBinAddr: 0x10000FC34, symSize: 0x3C }
  - { offsetInCU: 0x3E5C8, offset: 0x3E5C8, size: 0x8, addend: 0x0, symName: __ZNSt3__14pairINS_16reverse_iteratorIPcEES3_EC2B7v160006IS3_S3_LPv0EEEOT_OT0_, symObjAddr: 0xE4C8, symBinAddr: 0x10000FC70, symSize: 0x34 }
  - { offsetInCU: 0x3E626, offset: 0x3E626, size: 0x8, addend: 0x0, symName: __ZNSt3__18_IterOpsINS_17_ClassicAlgPolicyEE11__iter_moveB7v160006IRNS_16reverse_iteratorIPcEEEENS_9enable_ifIXsr12is_referenceIDTdeclsr3stdE7declvalIRT_EEEEE5valueEDTclsr3stdE4movedeclsr3stdE7declvalISA_EEEEE4typeEOS9_, symObjAddr: 0xE544, symBinAddr: 0x10000FCEC, symSize: 0x28 }
  - { offsetInCU: 0x3E652, offset: 0x3E652, size: 0x8, addend: 0x0, symName: __ZNKSt3__116reverse_iteratorIPcEdeB7v160006Ev, symObjAddr: 0xE56C, symBinAddr: 0x10000FD14, symSize: 0x28 }
  - { offsetInCU: 0x3E686, offset: 0x3E686, size: 0x8, addend: 0x0, symName: __ZNSt3__116reverse_iteratorIPcEppB7v160006Ev, symObjAddr: 0xE594, symBinAddr: 0x10000FD3C, symSize: 0x20 }
  - { offsetInCU: 0x3E6AC, offset: 0x3E6AC, size: 0x8, addend: 0x0, symName: __ZNSt3__18_IterOpsINS_17_ClassicAlgPolicyEE25__validate_iter_referenceB7v160006IRNS_16reverse_iteratorIPcEEEEvv, symObjAddr: 0xE5B4, symBinAddr: 0x10000FD5C, symSize: 0x4 }
  - { offsetInCU: 0x3E6CA, offset: 0x3E6CA, size: 0x8, addend: 0x0, symName: __ZNSt3__118__unwrap_iter_implINS_16reverse_iteratorIPcEELb0EE8__unwrapB7v160006ES3_, symObjAddr: 0xE5B8, symBinAddr: 0x10000FD60, symSize: 0x24 }
  - { offsetInCU: 0x3E6ED, offset: 0x3E6ED, size: 0x8, addend: 0x0, symName: __ZNSt3__119__unwrap_range_implINS_16reverse_iteratorIPcEES3_E8__rewrapB7v160006ES3_S3_, symObjAddr: 0xE5DC, symBinAddr: 0x10000FD84, symSize: 0x5C }
  - { offsetInCU: 0x3E71E, offset: 0x3E71E, size: 0x8, addend: 0x0, symName: __ZNSt3__118__unwrap_iter_implINS_16reverse_iteratorIPcEELb0EE8__rewrapB7v160006ES3_S3_, symObjAddr: 0xE638, symBinAddr: 0x10000FDE0, symSize: 0x2C }
  - { offsetInCU: 0x3E74B, offset: 0x3E74B, size: 0x8, addend: 0x0, symName: __ZNSt3__116reverse_iteratorIPcEC2B7v160006ES1_, symObjAddr: 0xE664, symBinAddr: 0x10000FE0C, symSize: 0x28 }
  - { offsetInCU: 0x3E783, offset: 0x3E783, size: 0x8, addend: 0x0, symName: __ZNSt3__114__split_bufferIcRNS_9allocatorIcEEED2Ev, symObjAddr: 0xE68C, symBinAddr: 0x10000FE34, symSize: 0x8C }
  - { offsetInCU: 0x3E7AF, offset: 0x3E7AF, size: 0x8, addend: 0x0, symName: __ZNSt3__114__split_bufferIcRNS_9allocatorIcEEE5clearB7v160006Ev, symObjAddr: 0xE718, symBinAddr: 0x10000FEC0, symSize: 0x28 }
  - { offsetInCU: 0x3E7D5, offset: 0x3E7D5, size: 0x8, addend: 0x0, symName: __ZNSt3__116allocator_traitsINS_9allocatorIcEEE10deallocateB7v160006ERS2_Pcm, symObjAddr: 0xE740, symBinAddr: 0x10000FEE8, symSize: 0x34 }
  - { offsetInCU: 0x3E817, offset: 0x3E817, size: 0x8, addend: 0x0, symName: __ZNKSt3__114__split_bufferIcRNS_9allocatorIcEEE8capacityB7v160006Ev, symObjAddr: 0xE774, symBinAddr: 0x10000FF1C, symSize: 0x38 }
  - { offsetInCU: 0x3E83D, offset: 0x3E83D, size: 0x8, addend: 0x0, symName: __ZNSt3__114__split_bufferIcRNS_9allocatorIcEEE17__destruct_at_endB7v160006EPc, symObjAddr: 0xE7AC, symBinAddr: 0x10000FF54, symSize: 0x2C }
  - { offsetInCU: 0x3E871, offset: 0x3E871, size: 0x8, addend: 0x0, symName: __ZNSt3__114__split_bufferIcRNS_9allocatorIcEEE17__destruct_at_endB7v160006EPcNS_17integral_constantIbLb0EEE, symObjAddr: 0xE7D8, symBinAddr: 0x10000FF80, symSize: 0x80 }
  - { offsetInCU: 0x3E8B1, offset: 0x3E8B1, size: 0x8, addend: 0x0, symName: __ZNSt3__116allocator_traitsINS_9allocatorIcEEE7destroyB7v160006IcvvEEvRS2_PT_, symObjAddr: 0xE858, symBinAddr: 0x100010000, symSize: 0x28 }
  - { offsetInCU: 0x3E8EC, offset: 0x3E8EC, size: 0x8, addend: 0x0, symName: __ZNSt3__19allocatorIcE10deallocateB7v160006EPcm, symObjAddr: 0xE8B4, symBinAddr: 0x10001005C, symSize: 0x40 }
  - { offsetInCU: 0x3E92E, offset: 0x3E92E, size: 0x8, addend: 0x0, symName: __ZNKSt3__114__split_bufferIcRNS_9allocatorIcEEE9__end_capB7v160006Ev, symObjAddr: 0xE8F4, symBinAddr: 0x10001009C, symSize: 0x28 }
  - { offsetInCU: 0x3E954, offset: 0x3E954, size: 0x8, addend: 0x0, symName: __ZNKSt3__117__compressed_pairIPcRNS_9allocatorIcEEE5firstB7v160006Ev, symObjAddr: 0xE91C, symBinAddr: 0x1000100C4, symSize: 0x24 }
  - { offsetInCU: 0x3E97A, offset: 0x3E97A, size: 0x8, addend: 0x0, symName: __ZNSt3__115basic_streambufIcNS_11char_traitsIcEEE6sbumpcB7v160006Ev, symObjAddr: 0xE940, symBinAddr: 0x1000100E8, symSize: 0x78 }
  - { offsetInCU: 0x3E9A0, offset: 0x3E9A0, size: 0x8, addend: 0x0, symName: __ZNSt3__128__exception_guard_exceptionsINS_6vectorIcNS_9allocatorIcEEE16__destroy_vectorEED2B7v160006Ev, symObjAddr: 0xE9B8, symBinAddr: 0x100010160, symSize: 0x50 }
  - { offsetInCU: 0x3E9CA, offset: 0x3E9CA, size: 0x8, addend: 0x0, symName: __ZNSt3__16vectorIcNS_9allocatorIcEEE16__destroy_vectorclB7v160006Ev, symObjAddr: 0xEA08, symBinAddr: 0x1000101B0, symSize: 0x9C }
  - { offsetInCU: 0x3E9F0, offset: 0x3E9F0, size: 0x8, addend: 0x0, symName: __ZNSt3__16vectorIcNS_9allocatorIcEEE7__clearB7v160006Ev, symObjAddr: 0xEAB4, symBinAddr: 0x10001025C, symSize: 0x28 }
  - { offsetInCU: 0x3EA16, offset: 0x3EA16, size: 0x8, addend: 0x0, symName: __ZNSt3__16vectorIcNS_9allocatorIcEEE22__base_destruct_at_endB7v160006EPc, symObjAddr: 0xEADC, symBinAddr: 0x100010284, symSize: 0x8C }
  - { offsetInCU: 0x3EA5A, offset: 0x3EA5A, size: 0x8, addend: 0x0, symName: __ZNSt3__16vectorIcNS_9allocatorIcEEE19__copy_assign_allocB7v160006ERKS3_, symObjAddr: 0xEB68, symBinAddr: 0x100010310, symSize: 0x2C }
  - { offsetInCU: 0x3EA8F, offset: 0x3EA8F, size: 0x8, addend: 0x0, symName: __ZNSt3__16vectorIcNS_9allocatorIcEEE6assignIPcLi0EEEvT_S6_, symObjAddr: 0xEB94, symBinAddr: 0x10001033C, symSize: 0x17C }
  - { offsetInCU: 0x3EB2F, offset: 0x3EB2F, size: 0x8, addend: 0x0, symName: __ZNSt3__16vectorIcNS_9allocatorIcEEE19__copy_assign_allocB7v160006ERKS3_NS_17integral_constantIbLb0EEE, symObjAddr: 0xED10, symBinAddr: 0x1000104B8, symSize: 0x14 }
  - { offsetInCU: 0x3EB6D, offset: 0x3EB6D, size: 0x8, addend: 0x0, symName: __ZNSt3__16vectorIcNS_9allocatorIcEEE18__construct_at_endIPcLi0EEEvT_S6_m, symObjAddr: 0xEDE0, symBinAddr: 0x100010588, symSize: 0x8C }
  - { offsetInCU: 0x3EBE0, offset: 0x3EBE0, size: 0x8, addend: 0x0, symName: __ZNSt3__16vectorIcNS_9allocatorIcEEE17__destruct_at_endB7v160006EPc, symObjAddr: 0xEE6C, symBinAddr: 0x100010614, symSize: 0x60 }
  - { offsetInCU: 0x3EC24, offset: 0x3EC24, size: 0x8, addend: 0x0, symName: __ZNSt3__16vectorIcNS_9allocatorIcEEE13__vdeallocateEv, symObjAddr: 0xEECC, symBinAddr: 0x100010674, symSize: 0x8C }
  - { offsetInCU: 0x3EC4C, offset: 0x3EC4C, size: 0x8, addend: 0x0, symName: __ZNSt3__16vectorIcNS_9allocatorIcEEE11__vallocateB7v160006Em, symObjAddr: 0xEF58, symBinAddr: 0x100010700, symSize: 0xAC }
  - { offsetInCU: 0x3ECB6, offset: 0x3ECB6, size: 0x8, addend: 0x0, symName: __ZNKSt3__114__copy_trivialclB7v160006IccLi0EEENS_4pairIPT_PT0_EES4_S4_S6_, symObjAddr: 0xF1D8, symBinAddr: 0x100010980, symSize: 0x48 }
  - { offsetInCU: 0x3ED1E, offset: 0x3ED1E, size: 0x8, addend: 0x0, symName: __ZNSt3__119__unwrap_range_implIPcS1_E8__unwrapB7v160006ES1_S1_, symObjAddr: 0xF2E4, symBinAddr: 0x100010A8C, symSize: 0x58 }
  - { offsetInCU: 0x3ED55, offset: 0x3ED55, size: 0x8, addend: 0x0, symName: __ZNSt3__14pairIPcS1_EC1B7v160006IS1_S1_LPv0EEEOT_OT0_, symObjAddr: 0xF33C, symBinAddr: 0x100010AE4, symSize: 0x3C }
  - { offsetInCU: 0x3EDB3, offset: 0x3EDB3, size: 0x8, addend: 0x0, symName: __ZNSt3__14pairIPcS1_EC2B7v160006IS1_S1_LPv0EEEOT_OT0_, symObjAddr: 0xF378, symBinAddr: 0x100010B20, symSize: 0x34 }
  - { offsetInCU: 0x3EE11, offset: 0x3EE11, size: 0x8, addend: 0x0, symName: __ZNSt3__14pairIPcS1_EC1B7v160006IRS1_S1_LPv0EEEOT_OT0_, symObjAddr: 0xF460, symBinAddr: 0x100010C08, symSize: 0x3C }
  - { offsetInCU: 0x3EE6F, offset: 0x3EE6F, size: 0x8, addend: 0x0, symName: __ZNSt3__14pairIPcS1_EC2B7v160006IRS1_S1_LPv0EEEOT_OT0_, symObjAddr: 0xF49C, symBinAddr: 0x100010C44, symSize: 0x34 }
  - { offsetInCU: 0x3EECD, offset: 0x3EECD, size: 0x8, addend: 0x0, symName: __ZNSt3__118__unwrap_iter_implIPcLb1EE8__unwrapB7v160006ES1_, symObjAddr: 0xF4D0, symBinAddr: 0x100010C78, symSize: 0x24 }
  - { offsetInCU: 0x3EEF0, offset: 0x3EEF0, size: 0x8, addend: 0x0, symName: __ZNSt3__119__unwrap_range_implIPcS1_E8__rewrapB7v160006ES1_S1_, symObjAddr: 0xF4F4, symBinAddr: 0x100010C9C, symSize: 0x2C }
  - { offsetInCU: 0x3EF21, offset: 0x3EF21, size: 0x8, addend: 0x0, symName: __ZNSt3__118__unwrap_iter_implIPcLb1EE8__rewrapB7v160006ES1_S1_, symObjAddr: 0xF520, symBinAddr: 0x100010CC8, symSize: 0x48 }
  - { offsetInCU: 0x3EF52, offset: 0x3EF52, size: 0x8, addend: 0x0, symName: __ZNSt3__129_AllocatorDestroyRangeReverseINS_9allocatorIcEEPcEC1B7v160006ERS2_RS3_S6_, symObjAddr: 0xF6A8, symBinAddr: 0x100010E50, symSize: 0x44 }
  - { offsetInCU: 0x3EFA9, offset: 0x3EFA9, size: 0x8, addend: 0x0, symName: __ZNSt3__116allocator_traitsINS_9allocatorIcEEE9constructB7v160006IcJRcEvvEEvRS2_PT_DpOT0_, symObjAddr: 0xF6EC, symBinAddr: 0x100010E94, symSize: 0x30 }
  - { offsetInCU: 0x3EFFE, offset: 0x3EFFE, size: 0x8, addend: 0x0, symName: __ZNSt3__128__exception_guard_exceptionsINS_29_AllocatorDestroyRangeReverseINS_9allocatorIcEEPcEEE10__completeB7v160006Ev, symObjAddr: 0xF71C, symBinAddr: 0x100010EC4, symSize: 0x1C }
  - { offsetInCU: 0x3F024, offset: 0x3F024, size: 0x8, addend: 0x0, symName: __ZNSt3__128__exception_guard_exceptionsINS_29_AllocatorDestroyRangeReverseINS_9allocatorIcEEPcEEED1B7v160006Ev, symObjAddr: 0xF738, symBinAddr: 0x100010EE0, symSize: 0x2C }
  - { offsetInCU: 0x3F04E, offset: 0x3F04E, size: 0x8, addend: 0x0, symName: __ZNSt3__128__exception_guard_exceptionsINS_29_AllocatorDestroyRangeReverseINS_9allocatorIcEEPcEEEC1B7v160006ES5_, symObjAddr: 0xF764, symBinAddr: 0x100010F0C, symSize: 0x34 }
  - { offsetInCU: 0x3F087, offset: 0x3F087, size: 0x8, addend: 0x0, symName: __ZNSt3__128__exception_guard_exceptionsINS_29_AllocatorDestroyRangeReverseINS_9allocatorIcEEPcEEEC2B7v160006ES5_, symObjAddr: 0xF798, symBinAddr: 0x100010F40, symSize: 0x30 }
  - { offsetInCU: 0x3F0C0, offset: 0x3F0C0, size: 0x8, addend: 0x0, symName: __ZNSt3__129_AllocatorDestroyRangeReverseINS_9allocatorIcEEPcEC2B7v160006ERS2_RS3_S6_, symObjAddr: 0xF7C8, symBinAddr: 0x100010F70, symSize: 0x38 }
  - { offsetInCU: 0x3F117, offset: 0x3F117, size: 0x8, addend: 0x0, symName: __ZNSt3__128__exception_guard_exceptionsINS_29_AllocatorDestroyRangeReverseINS_9allocatorIcEEPcEEED2B7v160006Ev, symObjAddr: 0xF82C, symBinAddr: 0x100010FD4, symSize: 0x50 }
  - { offsetInCU: 0x3F141, offset: 0x3F141, size: 0x8, addend: 0x0, symName: __ZNKSt3__129_AllocatorDestroyRangeReverseINS_9allocatorIcEEPcEclB7v160006Ev, symObjAddr: 0xF87C, symBinAddr: 0x100011024, symSize: 0x68 }
  - { offsetInCU: 0x3F16D, offset: 0x3F16D, size: 0x8, addend: 0x0, symName: __ZNSt3__119__to_address_helperINS_16reverse_iteratorIPcEEvE6__callB7v160006ERKS3_, symObjAddr: 0xF978, symBinAddr: 0x100011120, symSize: 0x38 }
  - { offsetInCU: 0x3F190, offset: 0x3F190, size: 0x8, addend: 0x0, symName: __ZNKSt3__116reverse_iteratorIPcEptB7v160006Ev, symObjAddr: 0xF9B0, symBinAddr: 0x100011158, symSize: 0x2C }
  - { offsetInCU: 0x3F1B6, offset: 0x3F1B6, size: 0x8, addend: 0x0, symName: __ZNSt3__16vectorIcNS_9allocatorIcEEE27__invalidate_iterators_pastB7v160006EPc, symObjAddr: 0xFA90, symBinAddr: 0x100011238, symSize: 0x14 }
  - { offsetInCU: 0x3F1ED, offset: 0x3F1ED, size: 0x8, addend: 0x0, symName: __ZNKSt3__16vectorIcNS_9allocatorIcEEE17__annotate_shrinkB7v160006Em, symObjAddr: 0xFAA4, symBinAddr: 0x10001124C, symSize: 0xB4 }
  - { offsetInCU: 0x3F222, offset: 0x3F222, size: 0x8, addend: 0x0, symName: __ZNSt3__16vectorIcNS_9allocatorIcEEE5clearB7v160006Ev, symObjAddr: 0xFB58, symBinAddr: 0x100011300, symSize: 0x4C }
  - { offsetInCU: 0x3F257, offset: 0x3F257, size: 0x8, addend: 0x0, symName: __ZNSt3__114basic_ifstreamIcNS_11char_traitsIcEEED2Ev, symObjAddr: 0xFBA4, symBinAddr: 0x10001134C, symSize: 0x64 }
  - { offsetInCU: 0x3F291, offset: 0x3F291, size: 0x8, addend: 0x0, symName: __ZTv0_n24_NSt3__114basic_ifstreamIcNS_11char_traitsIcEEED1Ev, symObjAddr: 0xFC08, symBinAddr: 0x1000113B0, symSize: 0x28 }
  - { offsetInCU: 0x3F2A8, offset: 0x3F2A8, size: 0x8, addend: 0x0, symName: __ZNSt3__114basic_ofstreamIcNS_11char_traitsIcEEEC1ERKNS_12basic_stringIcS2_NS_9allocatorIcEEEEj, symObjAddr: 0xFC30, symBinAddr: 0x1000113D8, symSize: 0x16C }
  - { offsetInCU: 0x3F2F2, offset: 0x3F2F2, size: 0x8, addend: 0x0, symName: __ZNSt3__114basic_ofstreamIcNS_11char_traitsIcEEEaSEOS3_, symObjAddr: 0xFD9C, symBinAddr: 0x100011544, symSize: 0x48 }
  - { offsetInCU: 0x3F329, offset: 0x3F329, size: 0x8, addend: 0x0, symName: __ZNKSt3__19basic_iosIcNS_11char_traitsIcEEEntB7v160006Ev, symObjAddr: 0xFDE4, symBinAddr: 0x10001158C, symSize: 0x28 }
  - { offsetInCU: 0x3F34F, offset: 0x3F34F, size: 0x8, addend: 0x0, symName: __ZNSt3__113basic_ostreamIcNS_11char_traitsIcEEEaSEOS3_, symObjAddr: 0xFE58, symBinAddr: 0x100011600, symSize: 0x34 }
  - { offsetInCU: 0x3F385, offset: 0x3F385, size: 0x8, addend: 0x0, symName: __ZNSt3__113basic_filebufIcNS_11char_traitsIcEEEaSEOS3_, symObjAddr: 0xFE8C, symBinAddr: 0x100011634, symSize: 0x3C }
  - { offsetInCU: 0x3F3BB, offset: 0x3F3BB, size: 0x8, addend: 0x0, symName: __ZNSt3__113basic_ostreamIcNS_11char_traitsIcEEE4swapB7v160006ERS3_, symObjAddr: 0xFEC8, symBinAddr: 0x100011670, symSize: 0x44 }
  - { offsetInCU: 0x3F3EF, offset: 0x3F3EF, size: 0x8, addend: 0x0, symName: __ZNSt3__19basic_iosIcNS_11char_traitsIcEEE4swapB7v160006ERS3_, symObjAddr: 0xFF0C, symBinAddr: 0x1000116B4, symSize: 0x58 }
  - { offsetInCU: 0x3F426, offset: 0x3F426, size: 0x8, addend: 0x0, symName: __ZNKSt3__19basic_iosIcNS_11char_traitsIcEEE4failB7v160006Ev, symObjAddr: 0xFFDC, symBinAddr: 0x100011784, symSize: 0x28 }
  - { offsetInCU: 0x3F44C, offset: 0x3F44C, size: 0x8, addend: 0x0, symName: __ZNKSt3__18ios_base4failB7v160006Ev, symObjAddr: 0x10004, symBinAddr: 0x1000117AC, symSize: 0x28 }
  - { offsetInCU: 0x3F474, offset: 0x3F474, size: 0x8, addend: 0x0, symName: __ZNSt3__114basic_ofstreamIcNS_11char_traitsIcEEED2Ev, symObjAddr: 0x1002C, symBinAddr: 0x1000117D4, symSize: 0x64 }
  - { offsetInCU: 0x3F4AE, offset: 0x3F4AE, size: 0x8, addend: 0x0, symName: __ZTv0_n24_NSt3__114basic_ofstreamIcNS_11char_traitsIcEEED1Ev, symObjAddr: 0x10090, symBinAddr: 0x100011838, symSize: 0x28 }
  - { offsetInCU: 0x3F4C5, offset: 0x3F4C5, size: 0x8, addend: 0x0, symName: __ZNSt3__16vectorIcNS_9allocatorIcEEED2B7v160006Ev, symObjAddr: 0x100B8, symBinAddr: 0x100011860, symSize: 0x44 }
  - { offsetInCU: 0x3F4EF, offset: 0x3F4EF, size: 0x8, addend: 0x0, symName: __ZNSt3__18functionIFv8SSS_NodeIfEEED2Ev, symObjAddr: 0x100FC, symBinAddr: 0x1000118A4, symSize: 0x2C }
  - { offsetInCU: 0x3F51B, offset: 0x3F51B, size: 0x8, addend: 0x0, symName: __ZNSt3__110__function12__value_funcIFv8SSS_NodeIfEEED1B7v160006Ev, symObjAddr: 0x10128, symBinAddr: 0x1000118D0, symSize: 0x2C }
  - { offsetInCU: 0x3F545, offset: 0x3F545, size: 0x8, addend: 0x0, symName: __ZNSt3__110__function12__value_funcIFv8SSS_NodeIfEEED2B7v160006Ev, symObjAddr: 0x10154, symBinAddr: 0x1000118FC, symSize: 0x90 }
  - { offsetInCU: 0x3F56F, offset: 0x3F56F, size: 0x8, addend: 0x0, symName: __ZN8SSS_NodeIfEC2E8NodeTypeNSt3__18functionIFmPS0_mEEEimNS2_12basic_stringIcNS2_11char_traitsIcEENS2_9allocatorIcEEEE, symObjAddr: 0x101E4, symBinAddr: 0x10001198C, symSize: 0x180 }
  - { offsetInCU: 0x3F5E1, offset: 0x3F5E1, size: 0x8, addend: 0x0, symName: __ZNSt3__111unique_lockINS_5mutexEEC1B7v160006ERS1_, symObjAddr: 0x10364, symBinAddr: 0x100011B0C, symSize: 0x34 }
  - { offsetInCU: 0x3F619, offset: 0x3F619, size: 0x8, addend: 0x0, symName: __ZNSt3__15dequeINS_8functionIFvvEEENS_9allocatorIS3_EEE9push_backEOS3_, symObjAddr: 0x10398, symBinAddr: 0x100011B40, symSize: 0xA0 }
  - { offsetInCU: 0x3F65F, offset: 0x3F65F, size: 0x8, addend: 0x0, symName: __ZNSt3__18functionIFvvEEC1INS_6__bindIRNS0_IFmP8SSS_NodeIfEmEEEJRS7_RmEEEvEET_, symObjAddr: 0x10480, symBinAddr: 0x100011C28, symSize: 0x34 }
  - { offsetInCU: 0x3F6AA, offset: 0x3F6AA, size: 0x8, addend: 0x0, symName: __ZNSt3__16__bindIRNS_8functionIFmP8SSS_NodeIfEmEEEJRS4_RmEED1Ev, symObjAddr: 0x104B4, symBinAddr: 0x100011C5C, symSize: 0x2C }
  - { offsetInCU: 0x3F6D7, offset: 0x3F6D7, size: 0x8, addend: 0x0, symName: __ZNSt3__111unique_lockINS_5mutexEED1B7v160006Ev, symObjAddr: 0x104E0, symBinAddr: 0x100011C88, symSize: 0x2C }
  - { offsetInCU: 0x3F701, offset: 0x3F701, size: 0x8, addend: 0x0, symName: __ZNSt3__111unique_lockINS_5mutexEEC2B7v160006ERS1_, symObjAddr: 0x1050C, symBinAddr: 0x100011CB4, symSize: 0x44 }
  - { offsetInCU: 0x3F739, offset: 0x3F739, size: 0x8, addend: 0x0, symName: __ZNKSt3__15dequeINS_8functionIFvvEEENS_9allocatorIS3_EEE12__back_spareB7v160006Ev, symObjAddr: 0x10550, symBinAddr: 0x100011CF8, symSize: 0x54 }
  - { offsetInCU: 0x3F75F, offset: 0x3F75F, size: 0x8, addend: 0x0, symName: __ZNSt3__15dequeINS_8functionIFvvEEENS_9allocatorIS3_EEE19__add_back_capacityEv, symObjAddr: 0x105A4, symBinAddr: 0x100011D4C, symSize: 0x314 }
  - { offsetInCU: 0x3F817, offset: 0x3F817, size: 0x8, addend: 0x0, symName: __ZNSt3__116allocator_traitsINS_9allocatorINS_8functionIFvvEEEEEE9constructB7v160006IS4_JS4_EvvEEvRS5_PT_DpOT0_, symObjAddr: 0x108B8, symBinAddr: 0x100012060, symSize: 0x30 }
  - { offsetInCU: 0x3F86C, offset: 0x3F86C, size: 0x8, addend: 0x0, symName: __ZNKSt3__15dequeINS_8functionIFvvEEENS_9allocatorIS3_EEE10__capacityB7v160006Ev, symObjAddr: 0x108E8, symBinAddr: 0x100012090, symSize: 0x60 }
  - { offsetInCU: 0x3F892, offset: 0x3F892, size: 0x8, addend: 0x0, symName: __ZNKSt3__15dequeINS_8functionIFvvEEENS_9allocatorIS3_EEE13__front_spareB7v160006Ev, symObjAddr: 0x10948, symBinAddr: 0x1000120F0, symSize: 0x18 }
  - { offsetInCU: 0x3F8B8, offset: 0x3F8B8, size: 0x8, addend: 0x0, symName: __ZNSt3__114__split_bufferIPNS_8functionIFvvEEENS_9allocatorIS4_EEE9push_backB7v160006ERKS4_, symObjAddr: 0x10960, symBinAddr: 0x100012108, symSize: 0x260 }
  - { offsetInCU: 0x3F931, offset: 0x3F931, size: 0x8, addend: 0x0, symName: __ZNKSt3__114__split_bufferIPNS_8functionIFvvEEENS_9allocatorIS4_EEE12__back_spareB7v160006Ev, symObjAddr: 0x10BC0, symBinAddr: 0x100012368, symSize: 0x40 }
  - { offsetInCU: 0x3F957, offset: 0x3F957, size: 0x8, addend: 0x0, symName: __ZNSt3__114__split_bufferIPNS_8functionIFvvEEENS_9allocatorIS4_EEE9push_backEOS4_, symObjAddr: 0x10C00, symBinAddr: 0x1000123A8, symSize: 0x260 }
  - { offsetInCU: 0x3F9D0, offset: 0x3F9D0, size: 0x8, addend: 0x0, symName: __ZNSt3__116allocator_traitsINS_9allocatorINS_8functionIFvvEEEEEE8allocateB7v160006ERS5_m, symObjAddr: 0x10E60, symBinAddr: 0x100012608, symSize: 0x2C }
  - { offsetInCU: 0x3FA03, offset: 0x3FA03, size: 0x8, addend: 0x0, symName: __ZNSt3__114__split_bufferIPNS_8functionIFvvEEENS_9allocatorIS4_EEE10push_frontEOS4_, symObjAddr: 0x10E8C, symBinAddr: 0x100012634, symSize: 0x25C }
  - { offsetInCU: 0x3FA7C, offset: 0x3FA7C, size: 0x8, addend: 0x0, symName: __ZNSt3__114__split_bufferIPNS_8functionIFvvEEERNS_9allocatorIS4_EEEC1EmmS7_, symObjAddr: 0x110E8, symBinAddr: 0x100012890, symSize: 0x44 }
  - { offsetInCU: 0x3FAD7, offset: 0x3FAD7, size: 0x8, addend: 0x0, symName: __ZNSt3__122__allocator_destructorINS_9allocatorINS_8functionIFvvEEEEEEC1B7v160006ERS5_m, symObjAddr: 0x1112C, symBinAddr: 0x1000128D4, symSize: 0x3C }
  - { offsetInCU: 0x3FBA8, offset: 0x3FBA8, size: 0x8, addend: 0x0, symName: __ZNSt3__110unique_ptrIPNS_8functionIFvvEEENS_22__allocator_destructorINS_9allocatorIS3_EEEEEC1B7v160006ILb1EvEES4_NS_16__dependent_typeINS_27__unique_ptr_deleter_sfinaeIS8_EEXT_EE20__good_rval_ref_typeE, symObjAddr: 0x11168, symBinAddr: 0x100012910, symSize: 0x3C }
  - { offsetInCU: 0x3FBF9, offset: 0x3FBF9, size: 0x8, addend: 0x0, symName: __ZNSt3__114__split_bufferIPNS_8functionIFvvEEERNS_9allocatorIS4_EEE9push_backEOS4_, symObjAddr: 0x111A4, symBinAddr: 0x10001294C, symSize: 0x260 }
  - { offsetInCU: 0x3FC72, offset: 0x3FC72, size: 0x8, addend: 0x0, symName: __ZNKSt3__110unique_ptrIPNS_8functionIFvvEEENS_22__allocator_destructorINS_9allocatorIS3_EEEEE3getB7v160006Ev, symObjAddr: 0x11404, symBinAddr: 0x100012BAC, symSize: 0x28 }
  - { offsetInCU: 0x3FC98, offset: 0x3FC98, size: 0x8, addend: 0x0, symName: __ZNSt3__110unique_ptrIPNS_8functionIFvvEEENS_22__allocator_destructorINS_9allocatorIS3_EEEEE7releaseB7v160006Ev, symObjAddr: 0x1142C, symBinAddr: 0x100012BD4, symSize: 0x44 }
  - { offsetInCU: 0x3FCCD, offset: 0x3FCCD, size: 0x8, addend: 0x0, symName: __ZNSt3__114__split_bufferIPNS_8functionIFvvEEERNS_9allocatorIS4_EEE10push_frontERKS4_, symObjAddr: 0x11470, symBinAddr: 0x100012C18, symSize: 0x25C }
  - { offsetInCU: 0x3FD46, offset: 0x3FD46, size: 0x8, addend: 0x0, symName: __ZNSt3__114__split_bufferIPNS_8functionIFvvEEENS_9allocatorIS4_EEE9__end_capB7v160006Ev, symObjAddr: 0x11708, symBinAddr: 0x100012EB0, symSize: 0x28 }
  - { offsetInCU: 0x3FD6C, offset: 0x3FD6C, size: 0x8, addend: 0x0, symName: __ZNSt3__114__split_bufferIPNS_8functionIFvvEEERNS_9allocatorIS4_EEE9__end_capB7v160006Ev, symObjAddr: 0x11730, symBinAddr: 0x100012ED8, symSize: 0x28 }
  - { offsetInCU: 0x3FD92, offset: 0x3FD92, size: 0x8, addend: 0x0, symName: __ZNSt3__110unique_ptrIPNS_8functionIFvvEEENS_22__allocator_destructorINS_9allocatorIS3_EEEEED1B7v160006Ev, symObjAddr: 0x11758, symBinAddr: 0x100012F00, symSize: 0x2C }
  - { offsetInCU: 0x3FDBC, offset: 0x3FDBC, size: 0x8, addend: 0x0, symName: __ZNSt3__114__split_bufferIPNS_8functionIFvvEEERNS_9allocatorIS4_EEED1Ev, symObjAddr: 0x11784, symBinAddr: 0x100012F2C, symSize: 0x2C }
  - { offsetInCU: 0x3FDE8, offset: 0x3FDE8, size: 0x8, addend: 0x0, symName: __ZNSt3__114__split_bufferIPNS_8functionIFvvEEERNS_9allocatorIS4_EEE18__construct_at_endINS_13move_iteratorIPS4_EEEENS_9enable_ifIXsr27__is_cpp17_forward_iteratorIT_EE5valueEvE4typeESE_SE_, symObjAddr: 0x117F0, symBinAddr: 0x100012F98, symSize: 0xFC }
  - { offsetInCU: 0x3FE44, offset: 0x3FE44, size: 0x8, addend: 0x0, symName: __ZNSt3__113move_iteratorIPPNS_8functionIFvvEEEEC1B7v160006ES5_, symObjAddr: 0x118EC, symBinAddr: 0x100013094, symSize: 0x34 }
  - { offsetInCU: 0x3FE7C, offset: 0x3FE7C, size: 0x8, addend: 0x0, symName: __ZNSt3__116allocator_traitsINS_9allocatorIPNS_8functionIFvvEEEEEE9constructB7v160006IS5_JRKS5_EvvEEvRS6_PT_DpOT0_, symObjAddr: 0x11920, symBinAddr: 0x1000130C8, symSize: 0x30 }
  - { offsetInCU: 0x3FEF7, offset: 0x3FEF7, size: 0x8, addend: 0x0, symName: __ZNKSt3__114__move_trivialclB7v160006IPNS_8functionIFvvEEES5_Li0EEENS_4pairIPT_PT0_EES8_S8_SA_, symObjAddr: 0x11AC8, symBinAddr: 0x100013270, symSize: 0x48 }
  - { offsetInCU: 0x3FF5F, offset: 0x3FF5F, size: 0x8, addend: 0x0, symName: __ZNSt3__119__unwrap_range_implIPPNS_8functionIFvvEEES5_E8__unwrapB7v160006ES5_S5_, symObjAddr: 0x11BD4, symBinAddr: 0x10001337C, symSize: 0x58 }
  - { offsetInCU: 0x3FF96, offset: 0x3FF96, size: 0x8, addend: 0x0, symName: __ZNSt3__14pairIPPNS_8functionIFvvEEES5_EC1B7v160006IS5_S5_LPv0EEEOT_OT0_, symObjAddr: 0x11C2C, symBinAddr: 0x1000133D4, symSize: 0x3C }
  - { offsetInCU: 0x3FFF4, offset: 0x3FFF4, size: 0x8, addend: 0x0, symName: __ZNSt3__14pairIPPNS_8functionIFvvEEES5_EC2B7v160006IS5_S5_LPv0EEEOT_OT0_, symObjAddr: 0x11C68, symBinAddr: 0x100013410, symSize: 0x34 }
  - { offsetInCU: 0x40052, offset: 0x40052, size: 0x8, addend: 0x0, symName: __ZNSt3__14pairIPPNS_8functionIFvvEEES5_EC1B7v160006IRS5_S5_LPv0EEEOT_OT0_, symObjAddr: 0x11D58, symBinAddr: 0x100013500, symSize: 0x3C }
  - { offsetInCU: 0x400B0, offset: 0x400B0, size: 0x8, addend: 0x0, symName: __ZNSt3__14pairIPPNS_8functionIFvvEEES5_EC2B7v160006IRS5_S5_LPv0EEEOT_OT0_, symObjAddr: 0x11D94, symBinAddr: 0x10001353C, symSize: 0x34 }
  - { offsetInCU: 0x4010E, offset: 0x4010E, size: 0x8, addend: 0x0, symName: __ZNSt3__118__unwrap_iter_implIPPNS_8functionIFvvEEELb1EE8__unwrapB7v160006ES5_, symObjAddr: 0x11DC8, symBinAddr: 0x100013570, symSize: 0x24 }
  - { offsetInCU: 0x40131, offset: 0x40131, size: 0x8, addend: 0x0, symName: __ZNSt3__119__unwrap_range_implIPPNS_8functionIFvvEEES5_E8__rewrapB7v160006ES5_S5_, symObjAddr: 0x11DEC, symBinAddr: 0x100013594, symSize: 0x2C }
  - { offsetInCU: 0x40162, offset: 0x40162, size: 0x8, addend: 0x0, symName: __ZNSt3__118__unwrap_iter_implIPPNS_8functionIFvvEEELb1EE8__rewrapB7v160006ES5_S5_, symObjAddr: 0x11E18, symBinAddr: 0x1000135C0, symSize: 0x50 }
  - { offsetInCU: 0x4019D, offset: 0x4019D, size: 0x8, addend: 0x0, symName: __ZNSt3__114__split_bufferIPNS_8functionIFvvEEERNS_9allocatorIS4_EEE21_ConstructTransactionC1B7v160006EPPS4_m, symObjAddr: 0x11EA4, symBinAddr: 0x10001364C, symSize: 0x3C }
  - { offsetInCU: 0x401E9, offset: 0x401E9, size: 0x8, addend: 0x0, symName: __ZNSt3__116allocator_traitsINS_9allocatorIPNS_8functionIFvvEEEEEE9constructB7v160006IS5_JS5_EvvEEvRS6_PT_DpOT0_, symObjAddr: 0x11EE0, symBinAddr: 0x100013688, symSize: 0x30 }
  - { offsetInCU: 0x4023E, offset: 0x4023E, size: 0x8, addend: 0x0, symName: __ZNSt3__114__split_bufferIPNS_8functionIFvvEEERNS_9allocatorIS4_EEE7__allocB7v160006Ev, symObjAddr: 0x11F10, symBinAddr: 0x1000136B8, symSize: 0x28 }
  - { offsetInCU: 0x40264, offset: 0x40264, size: 0x8, addend: 0x0, symName: __ZNKSt3__113move_iteratorIPPNS_8functionIFvvEEEEdeB7v160006Ev, symObjAddr: 0x11F38, symBinAddr: 0x1000136E0, symSize: 0x2C }
  - { offsetInCU: 0x4028A, offset: 0x4028A, size: 0x8, addend: 0x0, symName: __ZNSt3__113move_iteratorIPPNS_8functionIFvvEEEEppB7v160006Ev, symObjAddr: 0x11F64, symBinAddr: 0x10001370C, symSize: 0x20 }
  - { offsetInCU: 0x402B0, offset: 0x402B0, size: 0x8, addend: 0x0, symName: __ZNSt3__114__split_bufferIPNS_8functionIFvvEEERNS_9allocatorIS4_EEE21_ConstructTransactionD1B7v160006Ev, symObjAddr: 0x11F84, symBinAddr: 0x10001372C, symSize: 0x2C }
  - { offsetInCU: 0x402DA, offset: 0x402DA, size: 0x8, addend: 0x0, symName: __ZNKRSt3__113move_iteratorIPPNS_8functionIFvvEEEE4baseB7v160006Ev, symObjAddr: 0x1202C, symBinAddr: 0x1000137D4, symSize: 0x14 }
  - { offsetInCU: 0x40300, offset: 0x40300, size: 0x8, addend: 0x0, symName: __ZNSt3__114__split_bufferIPNS_8functionIFvvEEERNS_9allocatorIS4_EEE21_ConstructTransactionC2B7v160006EPPS4_m, symObjAddr: 0x12040, symBinAddr: 0x1000137E8, symSize: 0x44 }
  - { offsetInCU: 0x40346, offset: 0x40346, size: 0x8, addend: 0x0, symName: __ZNSt3__117__compressed_pairIPPNS_8functionIFvvEEERNS_9allocatorIS4_EEE6secondB7v160006Ev, symObjAddr: 0x120B0, symBinAddr: 0x100013858, symSize: 0x28 }
  - { offsetInCU: 0x4036C, offset: 0x4036C, size: 0x8, addend: 0x0, symName: __ZNSt3__122__compressed_pair_elemIRNS_9allocatorIPNS_8functionIFvvEEEEELi1ELb0EE5__getB7v160006Ev, symObjAddr: 0x120D8, symBinAddr: 0x100013880, symSize: 0x18 }
  - { offsetInCU: 0x40397, offset: 0x40397, size: 0x8, addend: 0x0, symName: __ZNKSt3__16ranges11__iter_move4__fnclB7v160006IRKPPNS_8functionIFvvEEEEEDTclsr3stdE4movedeclsr3stdE7forwardIT_Efp_EEEOSB_, symObjAddr: 0x120F0, symBinAddr: 0x100013898, symSize: 0x1C }
  - { offsetInCU: 0x403D4, offset: 0x403D4, size: 0x8, addend: 0x0, symName: __ZNSt3__114__split_bufferIPNS_8functionIFvvEEERNS_9allocatorIS4_EEE21_ConstructTransactionD2B7v160006Ev, symObjAddr: 0x1210C, symBinAddr: 0x1000138B4, symSize: 0x20 }
  - { offsetInCU: 0x403FE, offset: 0x403FE, size: 0x8, addend: 0x0, symName: __ZNSt3__113move_iteratorIPPNS_8functionIFvvEEEEC2B7v160006ES5_, symObjAddr: 0x1212C, symBinAddr: 0x1000138D4, symSize: 0x20 }
  - { offsetInCU: 0x40436, offset: 0x40436, size: 0x8, addend: 0x0, symName: __ZNSt3__19allocatorINS_8functionIFvvEEEE8allocateB7v160006Em, symObjAddr: 0x12178, symBinAddr: 0x100013920, symSize: 0x58 }
  - { offsetInCU: 0x40475, offset: 0x40475, size: 0x8, addend: 0x0, symName: __ZNSt3__116allocator_traitsINS_9allocatorINS_8functionIFvvEEEEEE8max_sizeB7v160006IS5_vvEEmRKS5_, symObjAddr: 0x121D0, symBinAddr: 0x100013978, symSize: 0x28 }
  - { offsetInCU: 0x404AB, offset: 0x404AB, size: 0x8, addend: 0x0, symName: __ZNKSt3__123__move_backward_trivialclB7v160006IPNS_8functionIFvvEEES5_Li0EEENS_4pairIPT_PT0_EES8_S8_SA_, symObjAddr: 0x12374, symBinAddr: 0x100013B1C, symSize: 0x48 }
  - { offsetInCU: 0x40513, offset: 0x40513, size: 0x8, addend: 0x0, symName: __ZNSt3__14pairIPPNS_8functionIFvvEEES5_EC1B7v160006IRS5_S8_LPv0EEEOT_OT0_, symObjAddr: 0x12488, symBinAddr: 0x100013C30, symSize: 0x3C }
  - { offsetInCU: 0x40571, offset: 0x40571, size: 0x8, addend: 0x0, symName: __ZNSt3__14pairIPPNS_8functionIFvvEEES5_EC2B7v160006IRS5_S8_LPv0EEEOT_OT0_, symObjAddr: 0x124C4, symBinAddr: 0x100013C6C, symSize: 0x34 }
  - { offsetInCU: 0x405CF, offset: 0x405CF, size: 0x8, addend: 0x0, symName: __ZNSt3__114__split_bufferIPNS_8functionIFvvEEERNS_9allocatorIS4_EEEC2EmmS7_, symObjAddr: 0x124F8, symBinAddr: 0x100013CA0, symSize: 0xD4 }
  - { offsetInCU: 0x40643, offset: 0x40643, size: 0x8, addend: 0x0, symName: __ZNSt3__117__compressed_pairIPPNS_8functionIFvvEEERNS_9allocatorIS4_EEEC1B7v160006IDnS8_EEOT_OT0_, symObjAddr: 0x125CC, symBinAddr: 0x100013D74, symSize: 0x3C }
  - { offsetInCU: 0x4069B, offset: 0x4069B, size: 0x8, addend: 0x0, symName: __ZNSt3__117__compressed_pairIPPNS_8functionIFvvEEERNS_9allocatorIS4_EEEC2B7v160006IDnS8_EEOT_OT0_, symObjAddr: 0x12648, symBinAddr: 0x100013DF0, symSize: 0x48 }
  - { offsetInCU: 0x406F3, offset: 0x406F3, size: 0x8, addend: 0x0, symName: __ZNSt3__122__compressed_pair_elemIRNS_9allocatorIPNS_8functionIFvvEEEEELi1ELb0EEC2B7v160006IS7_vEEOT_, symObjAddr: 0x12690, symBinAddr: 0x100013E38, symSize: 0x20 }
  - { offsetInCU: 0x40735, offset: 0x40735, size: 0x8, addend: 0x0, symName: __ZNSt3__19allocatorIPNS_8functionIFvvEEEE8allocateB7v160006Em, symObjAddr: 0x126B0, symBinAddr: 0x100013E58, symSize: 0x58 }
  - { offsetInCU: 0x40774, offset: 0x40774, size: 0x8, addend: 0x0, symName: __ZNSt3__116allocator_traitsINS_9allocatorIPNS_8functionIFvvEEEEEE8max_sizeB7v160006IS6_vvEEmRKS6_, symObjAddr: 0x12708, symBinAddr: 0x100013EB0, symSize: 0x28 }
  - { offsetInCU: 0x407A0, offset: 0x407A0, size: 0x8, addend: 0x0, symName: __ZNSt3__122__allocator_destructorINS_9allocatorINS_8functionIFvvEEEEEEC2B7v160006ERS5_m, symObjAddr: 0x12730, symBinAddr: 0x100013ED8, symSize: 0x2C }
  - { offsetInCU: 0x407E6, offset: 0x407E6, size: 0x8, addend: 0x0, symName: __ZNSt3__110unique_ptrIPNS_8functionIFvvEEENS_22__allocator_destructorINS_9allocatorIS3_EEEEEC2B7v160006ILb1EvEES4_NS_16__dependent_typeINS_27__unique_ptr_deleter_sfinaeIS8_EEXT_EE20__good_rval_ref_typeE, symObjAddr: 0x1275C, symBinAddr: 0x100013F04, symSize: 0x48 }
  - { offsetInCU: 0x40837, offset: 0x40837, size: 0x8, addend: 0x0, symName: __ZNSt3__117__compressed_pairIPNS_8functionIFvvEEENS_22__allocator_destructorINS_9allocatorIS3_EEEEEC1B7v160006IRS4_S8_EEOT_OT0_, symObjAddr: 0x127A4, symBinAddr: 0x100013F4C, symSize: 0x3C }
  - { offsetInCU: 0x4088F, offset: 0x4088F, size: 0x8, addend: 0x0, symName: __ZNSt3__117__compressed_pairIPNS_8functionIFvvEEENS_22__allocator_destructorINS_9allocatorIS3_EEEEEC2B7v160006IRS4_S8_EEOT_OT0_, symObjAddr: 0x127E0, symBinAddr: 0x100013F88, symSize: 0x48 }
  - { offsetInCU: 0x408E7, offset: 0x408E7, size: 0x8, addend: 0x0, symName: __ZNSt3__122__compressed_pair_elemIPNS_8functionIFvvEEELi0ELb0EEC2B7v160006IRS4_vEEOT_, symObjAddr: 0x12828, symBinAddr: 0x100013FD0, symSize: 0x24 }
  - { offsetInCU: 0x40929, offset: 0x40929, size: 0x8, addend: 0x0, symName: __ZNSt3__122__compressed_pair_elemINS_22__allocator_destructorINS_9allocatorINS_8functionIFvvEEEEEEELi1ELb0EEC2B7v160006IS7_vEEOT_, symObjAddr: 0x1284C, symBinAddr: 0x100013FF4, symSize: 0x24 }
  - { offsetInCU: 0x4096B, offset: 0x4096B, size: 0x8, addend: 0x0, symName: __ZNKSt3__117__compressed_pairIPNS_8functionIFvvEEENS_22__allocator_destructorINS_9allocatorIS3_EEEEE5firstB7v160006Ev, symObjAddr: 0x12870, symBinAddr: 0x100014018, symSize: 0x24 }
  - { offsetInCU: 0x40991, offset: 0x40991, size: 0x8, addend: 0x0, symName: __ZNKSt3__122__compressed_pair_elemIPNS_8functionIFvvEEELi0ELb0EE5__getB7v160006Ev, symObjAddr: 0x12894, symBinAddr: 0x10001403C, symSize: 0x14 }
  - { offsetInCU: 0x409B7, offset: 0x409B7, size: 0x8, addend: 0x0, symName: __ZNSt3__117__compressed_pairIPNS_8functionIFvvEEENS_22__allocator_destructorINS_9allocatorIS3_EEEEE5firstB7v160006Ev, symObjAddr: 0x128A8, symBinAddr: 0x100014050, symSize: 0x24 }
  - { offsetInCU: 0x409DD, offset: 0x409DD, size: 0x8, addend: 0x0, symName: __ZNSt3__122__compressed_pair_elemIPNS_8functionIFvvEEELi0ELb0EE5__getB7v160006Ev, symObjAddr: 0x128CC, symBinAddr: 0x100014074, symSize: 0x14 }
  - { offsetInCU: 0x40A03, offset: 0x40A03, size: 0x8, addend: 0x0, symName: __ZNSt3__117__compressed_pairIPPNS_8functionIFvvEEENS_9allocatorIS4_EEE5firstB7v160006Ev, symObjAddr: 0x128E0, symBinAddr: 0x100014088, symSize: 0x24 }
  - { offsetInCU: 0x40A29, offset: 0x40A29, size: 0x8, addend: 0x0, symName: __ZNSt3__122__compressed_pair_elemIPPNS_8functionIFvvEEELi0ELb0EE5__getB7v160006Ev, symObjAddr: 0x12904, symBinAddr: 0x1000140AC, symSize: 0x14 }
  - { offsetInCU: 0x40A4F, offset: 0x40A4F, size: 0x8, addend: 0x0, symName: __ZNSt3__117__compressed_pairIPPNS_8functionIFvvEEERNS_9allocatorIS4_EEE5firstB7v160006Ev, symObjAddr: 0x12918, symBinAddr: 0x1000140C0, symSize: 0x24 }
  - { offsetInCU: 0x40A75, offset: 0x40A75, size: 0x8, addend: 0x0, symName: __ZNSt3__110unique_ptrIPNS_8functionIFvvEEENS_22__allocator_destructorINS_9allocatorIS3_EEEEED2B7v160006Ev, symObjAddr: 0x1293C, symBinAddr: 0x1000140E4, symSize: 0x30 }
  - { offsetInCU: 0x40A9F, offset: 0x40A9F, size: 0x8, addend: 0x0, symName: __ZNSt3__110unique_ptrIPNS_8functionIFvvEEENS_22__allocator_destructorINS_9allocatorIS3_EEEEE5resetB7v160006ES4_, symObjAddr: 0x1296C, symBinAddr: 0x100014114, symSize: 0x78 }
  - { offsetInCU: 0x40AE3, offset: 0x40AE3, size: 0x8, addend: 0x0, symName: __ZNSt3__117__compressed_pairIPNS_8functionIFvvEEENS_22__allocator_destructorINS_9allocatorIS3_EEEEE6secondB7v160006Ev, symObjAddr: 0x129E4, symBinAddr: 0x10001418C, symSize: 0x28 }
  - { offsetInCU: 0x40B09, offset: 0x40B09, size: 0x8, addend: 0x0, symName: __ZNSt3__122__allocator_destructorINS_9allocatorINS_8functionIFvvEEEEEEclB7v160006EPS4_, symObjAddr: 0x12A0C, symBinAddr: 0x1000141B4, symSize: 0x34 }
  - { offsetInCU: 0x40B3D, offset: 0x40B3D, size: 0x8, addend: 0x0, symName: __ZNSt3__122__compressed_pair_elemINS_22__allocator_destructorINS_9allocatorINS_8functionIFvvEEEEEEELi1ELb0EE5__getB7v160006Ev, symObjAddr: 0x12A40, symBinAddr: 0x1000141E8, symSize: 0x14 }
  - { offsetInCU: 0x40B63, offset: 0x40B63, size: 0x8, addend: 0x0, symName: __ZNSt3__114__split_bufferIPNS_8functionIFvvEEERNS_9allocatorIS4_EEED2Ev, symObjAddr: 0x12A54, symBinAddr: 0x1000141FC, symSize: 0x8C }
  - { offsetInCU: 0x40B8F, offset: 0x40B8F, size: 0x8, addend: 0x0, symName: __ZNSt3__114__split_bufferIPNS_8functionIFvvEEERNS_9allocatorIS4_EEE5clearB7v160006Ev, symObjAddr: 0x12AE0, symBinAddr: 0x100014288, symSize: 0x28 }
  - { offsetInCU: 0x40BB5, offset: 0x40BB5, size: 0x8, addend: 0x0, symName: __ZNKSt3__114__split_bufferIPNS_8functionIFvvEEERNS_9allocatorIS4_EEE8capacityB7v160006Ev, symObjAddr: 0x12B08, symBinAddr: 0x1000142B0, symSize: 0x40 }
  - { offsetInCU: 0x40BDB, offset: 0x40BDB, size: 0x8, addend: 0x0, symName: __ZNSt3__114__split_bufferIPNS_8functionIFvvEEERNS_9allocatorIS4_EEE17__destruct_at_endB7v160006EPS4_, symObjAddr: 0x12B48, symBinAddr: 0x1000142F0, symSize: 0x2C }
  - { offsetInCU: 0x40C0F, offset: 0x40C0F, size: 0x8, addend: 0x0, symName: __ZNSt3__114__split_bufferIPNS_8functionIFvvEEERNS_9allocatorIS4_EEE17__destruct_at_endB7v160006EPS4_NS_17integral_constantIbLb0EEE, symObjAddr: 0x12B74, symBinAddr: 0x10001431C, symSize: 0x80 }
  - { offsetInCU: 0x40C4F, offset: 0x40C4F, size: 0x8, addend: 0x0, symName: __ZNKSt3__114__split_bufferIPNS_8functionIFvvEEERNS_9allocatorIS4_EEE9__end_capB7v160006Ev, symObjAddr: 0x12BF4, symBinAddr: 0x10001439C, symSize: 0x28 }
  - { offsetInCU: 0x40C75, offset: 0x40C75, size: 0x8, addend: 0x0, symName: __ZNKSt3__117__compressed_pairIPPNS_8functionIFvvEEERNS_9allocatorIS4_EEE5firstB7v160006Ev, symObjAddr: 0x12C1C, symBinAddr: 0x1000143C4, symSize: 0x24 }
  - { offsetInCU: 0x40C9B, offset: 0x40C9B, size: 0x8, addend: 0x0, symName: __ZNSt3__18functionIFvvEEC1EOS2_, symObjAddr: 0x12C7C, symBinAddr: 0x100014424, symSize: 0x34 }
  - { offsetInCU: 0x40CD6, offset: 0x40CD6, size: 0x8, addend: 0x0, symName: __ZNSt3__18functionIFvvEEC2EOS2_, symObjAddr: 0x12CB0, symBinAddr: 0x100014458, symSize: 0x34 }
  - { offsetInCU: 0x40D11, offset: 0x40D11, size: 0x8, addend: 0x0, symName: __ZNSt3__110__function12__value_funcIFvvEEC1B7v160006EOS3_, symObjAddr: 0x12CE4, symBinAddr: 0x10001448C, symSize: 0x34 }
  - { offsetInCU: 0x40D4A, offset: 0x40D4A, size: 0x8, addend: 0x0, symName: __ZNSt3__110__function12__value_funcIFvvEEC2B7v160006EOS3_, symObjAddr: 0x12D18, symBinAddr: 0x1000144C0, symSize: 0xD0 }
  - { offsetInCU: 0x40D83, offset: 0x40D83, size: 0x8, addend: 0x0, symName: __ZNSt3__110__function12__value_funcIFvvEE9__as_baseEPv, symObjAddr: 0x12DE8, symBinAddr: 0x100014590, symSize: 0x14 }
  - { offsetInCU: 0x40DA7, offset: 0x40DA7, size: 0x8, addend: 0x0, symName: __ZNSt3__16__bindIRNS_8functionIFmP8SSS_NodeIfEmEEEJRS4_RmEEC1B7v160006IS7_JS8_S9_EvEEOT_DpOT0_, symObjAddr: 0x12DFC, symBinAddr: 0x1000145A4, symSize: 0x44 }
  - { offsetInCU: 0x40E18, offset: 0x40E18, size: 0x8, addend: 0x0, symName: __ZNSt3__16__bindIRNS_8functionIFmP8SSS_NodeIfEmEEEJRS4_RmEEC2B7v160006IS7_JS8_S9_EvEEOT_DpOT0_, symObjAddr: 0x12E40, symBinAddr: 0x1000145E8, symSize: 0x54 }
  - { offsetInCU: 0x40E89, offset: 0x40E89, size: 0x8, addend: 0x0, symName: __ZNSt3__15tupleIJP8SSS_NodeIfEmEEC1B7v160006IJRS3_RmELi0EEEDpOT_, symObjAddr: 0x12E94, symBinAddr: 0x10001463C, symSize: 0x3C }
  - { offsetInCU: 0x40EE7, offset: 0x40EE7, size: 0x8, addend: 0x0, symName: __ZNSt3__15tupleIJP8SSS_NodeIfEmEEC2B7v160006IJRS3_RmELi0EEEDpOT_, symObjAddr: 0x12ED0, symBinAddr: 0x100014678, symSize: 0x3C }
  - { offsetInCU: 0x40F45, offset: 0x40F45, size: 0x8, addend: 0x0, symName: __ZNSt3__112__tuple_implINS_15__tuple_indicesIJLm0ELm1EEEEJP8SSS_NodeIfEmEEC1B7v160006IJLm0ELm1EEJS5_mEJEJEJRS5_RmEEENS1_IJXspT_EEEENS_13__tuple_typesIJDpT0_EEENS1_IJXspT1_EEEENSB_IJDpT2_EEEDpOT3_, symObjAddr: 0x12F0C, symBinAddr: 0x1000146B4, symSize: 0x3C }
  - { offsetInCU: 0x40FF9, offset: 0x40FF9, size: 0x8, addend: 0x0, symName: __ZNSt3__112__tuple_implINS_15__tuple_indicesIJLm0ELm1EEEEJP8SSS_NodeIfEmEEC2B7v160006IJLm0ELm1EEJS5_mEJEJEJRS5_RmEEENS1_IJXspT_EEEENS_13__tuple_typesIJDpT0_EEENS1_IJXspT1_EEEENSB_IJDpT2_EEEDpOT3_, symObjAddr: 0x12F48, symBinAddr: 0x1000146F0, symSize: 0x48 }
  - { offsetInCU: 0x410AD, offset: 0x410AD, size: 0x8, addend: 0x0, symName: __ZNSt3__112__tuple_leafILm0EP8SSS_NodeIfELb0EEC2B7v160006IRS3_vEEOT_, symObjAddr: 0x12F90, symBinAddr: 0x100014738, symSize: 0x24 }
  - { offsetInCU: 0x410F0, offset: 0x410F0, size: 0x8, addend: 0x0, symName: __ZNSt3__112__tuple_leafILm1EmLb0EEC2B7v160006IRmvEEOT_, symObjAddr: 0x12FB4, symBinAddr: 0x10001475C, symSize: 0x24 }
  - { offsetInCU: 0x41133, offset: 0x41133, size: 0x8, addend: 0x0, symName: __ZNSt3__18functionIFvvEEC2INS_6__bindIRNS0_IFmP8SSS_NodeIfEmEEEJRS7_RmEEEvEET_, symObjAddr: 0x12FD8, symBinAddr: 0x100014780, symSize: 0x34 }
  - { offsetInCU: 0x41179, offset: 0x41179, size: 0x8, addend: 0x0, symName: __ZNSt3__110__function12__value_funcIFvvEEC1B7v160006INS_6__bindIRNS_8functionIFmP8SSS_NodeIfEmEEEJRS9_RmEEEvEEOT_, symObjAddr: 0x1300C, symBinAddr: 0x1000147B4, symSize: 0x50 }
  - { offsetInCU: 0x411BC, offset: 0x411BC, size: 0x8, addend: 0x0, symName: __ZNSt3__19allocatorINS_6__bindIRNS_8functionIFmP8SSS_NodeIfEmEEEJRS5_RmEEEEC1B7v160006Ev, symObjAddr: 0x1305C, symBinAddr: 0x100014804, symSize: 0x2C }
  - { offsetInCU: 0x411E6, offset: 0x411E6, size: 0x8, addend: 0x0, symName: __ZNSt3__110__function12__value_funcIFvvEEC1B7v160006INS_6__bindIRNS_8functionIFmP8SSS_NodeIfEmEEEJRS9_RmEEENS_9allocatorISF_EEEEOT_RKT0_, symObjAddr: 0x13088, symBinAddr: 0x100014830, symSize: 0x3C }
  - { offsetInCU: 0x41240, offset: 0x41240, size: 0x8, addend: 0x0, symName: __ZNSt3__19allocatorINS_6__bindIRNS_8functionIFmP8SSS_NodeIfEmEEEJRS5_RmEEEEC2B7v160006Ev, symObjAddr: 0x130C4, symBinAddr: 0x10001486C, symSize: 0x2C }
  - { offsetInCU: 0x4126A, offset: 0x4126A, size: 0x8, addend: 0x0, symName: __ZNSt3__116__non_trivial_ifILb1ENS_9allocatorINS_6__bindIRNS_8functionIFmP8SSS_NodeIfEmEEEJRS6_RmEEEEEEC2B7v160006Ev, symObjAddr: 0x130F0, symBinAddr: 0x100014898, symSize: 0x14 }
  - { offsetInCU: 0x41294, offset: 0x41294, size: 0x8, addend: 0x0, symName: __ZNSt3__110__function12__value_funcIFvvEEC2B7v160006INS_6__bindIRNS_8functionIFmP8SSS_NodeIfEmEEEJRS9_RmEEENS_9allocatorISF_EEEEOT_RKT0_, symObjAddr: 0x13104, symBinAddr: 0x1000148AC, symSize: 0xF4 }
  - { offsetInCU: 0x4132E, offset: 0x4132E, size: 0x8, addend: 0x0, symName: __ZNSt3__19allocatorINS_10__function6__funcINS_6__bindIRNS_8functionIFmP8SSS_NodeIfEmEEEJRS7_RmEEENS0_ISD_EEFvvEEEEC1B7v160006ISD_EERKNS0_IT_EE, symObjAddr: 0x13210, symBinAddr: 0x1000149B8, symSize: 0x34 }
  - { offsetInCU: 0x4136B, offset: 0x4136B, size: 0x8, addend: 0x0, symName: __ZNSt3__19allocatorINS_10__function6__funcINS_6__bindIRNS_8functionIFmP8SSS_NodeIfEmEEEJRS7_RmEEENS0_ISD_EEFvvEEEE8allocateB7v160006Em, symObjAddr: 0x13244, symBinAddr: 0x1000149EC, symSize: 0x58 }
  - { offsetInCU: 0x413B0, offset: 0x413B0, size: 0x8, addend: 0x0, symName: __ZNSt3__122__allocator_destructorINS_9allocatorINS_10__function6__funcINS_6__bindIRNS_8functionIFmP8SSS_NodeIfEmEEEJRS8_RmEEENS1_ISE_EEFvvEEEEEEC1B7v160006ERSI_m, symObjAddr: 0x1329C, symBinAddr: 0x100014A44, symSize: 0x3C }
  - { offsetInCU: 0x4148C, offset: 0x4148C, size: 0x8, addend: 0x0, symName: __ZNSt3__110unique_ptrINS_10__function6__baseIFvvEEENS_22__allocator_destructorINS_9allocatorINS1_6__funcINS_6__bindIRNS_8functionIFmP8SSS_NodeIfEmEEEJRSC_RmEEENS6_ISI_EES3_EEEEEEEC1B7v160006ILb1EvEEPSK_NS_16__dependent_typeINS_27__unique_ptr_deleter_sfinaeISM_EEXT_EE20__good_rval_ref_typeE, symObjAddr: 0x132D8, symBinAddr: 0x100014A80, symSize: 0x3C }
  - { offsetInCU: 0x414DD, offset: 0x414DD, size: 0x8, addend: 0x0, symName: __ZNKSt3__110unique_ptrINS_10__function6__baseIFvvEEENS_22__allocator_destructorINS_9allocatorINS1_6__funcINS_6__bindIRNS_8functionIFmP8SSS_NodeIfEmEEEJRSC_RmEEENS6_ISI_EES3_EEEEEEE3getB7v160006Ev, symObjAddr: 0x13314, symBinAddr: 0x100014ABC, symSize: 0x28 }
  - { offsetInCU: 0x41503, offset: 0x41503, size: 0x8, addend: 0x0, symName: __ZNSt3__110__function6__funcINS_6__bindIRNS_8functionIFmP8SSS_NodeIfEmEEEJRS6_RmEEENS_9allocatorISC_EEFvvEEC1B7v160006EOSC_OSE_, symObjAddr: 0x1333C, symBinAddr: 0x100014AE4, symSize: 0x3C }
  - { offsetInCU: 0x4154B, offset: 0x4154B, size: 0x8, addend: 0x0, symName: __ZNSt3__110unique_ptrINS_10__function6__baseIFvvEEENS_22__allocator_destructorINS_9allocatorINS1_6__funcINS_6__bindIRNS_8functionIFmP8SSS_NodeIfEmEEEJRSC_RmEEENS6_ISI_EES3_EEEEEEE7releaseB7v160006Ev, symObjAddr: 0x13378, symBinAddr: 0x100014B20, symSize: 0x44 }
  - { offsetInCU: 0x41580, offset: 0x41580, size: 0x8, addend: 0x0, symName: __ZNSt3__110unique_ptrINS_10__function6__baseIFvvEEENS_22__allocator_destructorINS_9allocatorINS1_6__funcINS_6__bindIRNS_8functionIFmP8SSS_NodeIfEmEEEJRSC_RmEEENS6_ISI_EES3_EEEEEEED1B7v160006Ev, symObjAddr: 0x133BC, symBinAddr: 0x100014B64, symSize: 0x2C }
  - { offsetInCU: 0x415AA, offset: 0x415AA, size: 0x8, addend: 0x0, symName: __ZNSt3__19allocatorINS_10__function6__funcINS_6__bindIRNS_8functionIFmP8SSS_NodeIfEmEEEJRS7_RmEEENS0_ISD_EEFvvEEEEC2B7v160006ISD_EERKNS0_IT_EE, symObjAddr: 0x133E8, symBinAddr: 0x100014B90, symSize: 0x30 }
  - { offsetInCU: 0x415E7, offset: 0x415E7, size: 0x8, addend: 0x0, symName: __ZNSt3__116__non_trivial_ifILb1ENS_9allocatorINS_10__function6__funcINS_6__bindIRNS_8functionIFmP8SSS_NodeIfEmEEEJRS8_RmEEENS1_ISE_EEFvvEEEEEEC2B7v160006Ev, symObjAddr: 0x13418, symBinAddr: 0x100014BC0, symSize: 0x14 }
  - { offsetInCU: 0x4161C, offset: 0x4161C, size: 0x8, addend: 0x0, symName: __ZNSt3__116allocator_traitsINS_9allocatorINS_10__function6__funcINS_6__bindIRNS_8functionIFmP8SSS_NodeIfEmEEEJRS8_RmEEENS1_ISE_EEFvvEEEEEE8max_sizeB7v160006ISI_vvEEmRKSI_, symObjAddr: 0x1342C, symBinAddr: 0x100014BD4, symSize: 0x28 }
  - { offsetInCU: 0x41648, offset: 0x41648, size: 0x8, addend: 0x0, symName: __ZNSt3__122__allocator_destructorINS_9allocatorINS_10__function6__funcINS_6__bindIRNS_8functionIFmP8SSS_NodeIfEmEEEJRS8_RmEEENS1_ISE_EEFvvEEEEEEC2B7v160006ERSI_m, symObjAddr: 0x13454, symBinAddr: 0x100014BFC, symSize: 0x2C }
  - { offsetInCU: 0x4168E, offset: 0x4168E, size: 0x8, addend: 0x0, symName: __ZNSt3__110unique_ptrINS_10__function6__baseIFvvEEENS_22__allocator_destructorINS_9allocatorINS1_6__funcINS_6__bindIRNS_8functionIFmP8SSS_NodeIfEmEEEJRSC_RmEEENS6_ISI_EES3_EEEEEEEC2B7v160006ILb1EvEEPSK_NS_16__dependent_typeINS_27__unique_ptr_deleter_sfinaeISM_EEXT_EE20__good_rval_ref_typeE, symObjAddr: 0x13480, symBinAddr: 0x100014C28, symSize: 0x48 }
  - { offsetInCU: 0x416DF, offset: 0x416DF, size: 0x8, addend: 0x0, symName: __ZNSt3__117__compressed_pairIPNS_10__function6__funcINS_6__bindIRNS_8functionIFmP8SSS_NodeIfEmEEEJRS7_RmEEENS_9allocatorISD_EEFvvEEENS_22__allocator_destructorINSE_ISH_EEEEEC1B7v160006IRSI_SL_EEOT_OT0_, symObjAddr: 0x134C8, symBinAddr: 0x100014C70, symSize: 0x3C }
  - { offsetInCU: 0x41737, offset: 0x41737, size: 0x8, addend: 0x0, symName: __ZNSt3__117__compressed_pairIPNS_10__function6__funcINS_6__bindIRNS_8functionIFmP8SSS_NodeIfEmEEEJRS7_RmEEENS_9allocatorISD_EEFvvEEENS_22__allocator_destructorINSE_ISH_EEEEEC2B7v160006IRSI_SL_EEOT_OT0_, symObjAddr: 0x13504, symBinAddr: 0x100014CAC, symSize: 0x48 }
  - { offsetInCU: 0x4178F, offset: 0x4178F, size: 0x8, addend: 0x0, symName: __ZNSt3__122__compressed_pair_elemIPNS_10__function6__funcINS_6__bindIRNS_8functionIFmP8SSS_NodeIfEmEEEJRS7_RmEEENS_9allocatorISD_EEFvvEEELi0ELb0EEC2B7v160006IRSI_vEEOT_, symObjAddr: 0x1354C, symBinAddr: 0x100014CF4, symSize: 0x24 }
  - { offsetInCU: 0x417D1, offset: 0x417D1, size: 0x8, addend: 0x0, symName: __ZNSt3__122__compressed_pair_elemINS_22__allocator_destructorINS_9allocatorINS_10__function6__funcINS_6__bindIRNS_8functionIFmP8SSS_NodeIfEmEEEJRS9_RmEEENS2_ISF_EEFvvEEEEEEELi1ELb0EEC2B7v160006ISK_vEEOT_, symObjAddr: 0x13570, symBinAddr: 0x100014D18, symSize: 0x24 }
  - { offsetInCU: 0x41813, offset: 0x41813, size: 0x8, addend: 0x0, symName: __ZNKSt3__117__compressed_pairIPNS_10__function6__funcINS_6__bindIRNS_8functionIFmP8SSS_NodeIfEmEEEJRS7_RmEEENS_9allocatorISD_EEFvvEEENS_22__allocator_destructorINSE_ISH_EEEEE5firstB7v160006Ev, symObjAddr: 0x13594, symBinAddr: 0x100014D3C, symSize: 0x24 }
  - { offsetInCU: 0x41839, offset: 0x41839, size: 0x8, addend: 0x0, symName: __ZNKSt3__122__compressed_pair_elemIPNS_10__function6__funcINS_6__bindIRNS_8functionIFmP8SSS_NodeIfEmEEEJRS7_RmEEENS_9allocatorISD_EEFvvEEELi0ELb0EE5__getB7v160006Ev, symObjAddr: 0x135B8, symBinAddr: 0x100014D60, symSize: 0x14 }
  - { offsetInCU: 0x4185F, offset: 0x4185F, size: 0x8, addend: 0x0, symName: __ZNSt3__110__function6__funcINS_6__bindIRNS_8functionIFmP8SSS_NodeIfEmEEEJRS6_RmEEENS_9allocatorISC_EEFvvEEC2B7v160006EOSC_OSE_, symObjAddr: 0x135CC, symBinAddr: 0x100014D74, symSize: 0x88 }
  - { offsetInCU: 0x418A7, offset: 0x418A7, size: 0x8, addend: 0x0, symName: __ZNSt3__110__function6__baseIFvvEEC2B7v160006Ev, symObjAddr: 0x13654, symBinAddr: 0x100014DFC, symSize: 0x24 }
  - { offsetInCU: 0x418D1, offset: 0x418D1, size: 0x8, addend: 0x0, symName: __ZNSt3__110__function12__alloc_funcINS_6__bindIRNS_8functionIFmP8SSS_NodeIfEmEEEJRS6_RmEEENS_9allocatorISC_EEFvvEEC1B7v160006EOSC_OSE_, symObjAddr: 0x13678, symBinAddr: 0x100014E20, symSize: 0x3C }
  - { offsetInCU: 0x41917, offset: 0x41917, size: 0x8, addend: 0x0, symName: __ZNSt3__110__function6__baseIFvvEED2Ev, symObjAddr: 0x136B4, symBinAddr: 0x100014E5C, symSize: 0x14 }
  - { offsetInCU: 0x41941, offset: 0x41941, size: 0x8, addend: 0x0, symName: __ZNSt3__110__function6__funcINS_6__bindIRNS_8functionIFmP8SSS_NodeIfEmEEEJRS6_RmEEENS_9allocatorISC_EEFvvEED1Ev, symObjAddr: 0x136C8, symBinAddr: 0x100014E70, symSize: 0x2C }
  - { offsetInCU: 0x4196E, offset: 0x4196E, size: 0x8, addend: 0x0, symName: __ZNSt3__110__function6__funcINS_6__bindIRNS_8functionIFmP8SSS_NodeIfEmEEEJRS6_RmEEENS_9allocatorISC_EEFvvEED0Ev, symObjAddr: 0x136F4, symBinAddr: 0x100014E9C, symSize: 0x30 }
  - { offsetInCU: 0x4199B, offset: 0x4199B, size: 0x8, addend: 0x0, symName: __ZNKSt3__110__function6__funcINS_6__bindIRNS_8functionIFmP8SSS_NodeIfEmEEEJRS6_RmEEENS_9allocatorISC_EEFvvEE7__cloneEv, symObjAddr: 0x13724, symBinAddr: 0x100014ECC, symSize: 0xFC }
  - { offsetInCU: 0x419ED, offset: 0x419ED, size: 0x8, addend: 0x0, symName: __ZNKSt3__110__function6__funcINS_6__bindIRNS_8functionIFmP8SSS_NodeIfEmEEEJRS6_RmEEENS_9allocatorISC_EEFvvEE7__cloneEPNS0_6__baseISF_EE, symObjAddr: 0x13820, symBinAddr: 0x100014FC8, symSize: 0x58 }
  - { offsetInCU: 0x41A24, offset: 0x41A24, size: 0x8, addend: 0x0, symName: __ZNSt3__110__function6__funcINS_6__bindIRNS_8functionIFmP8SSS_NodeIfEmEEEJRS6_RmEEENS_9allocatorISC_EEFvvEE7destroyEv, symObjAddr: 0x13878, symBinAddr: 0x100015020, symSize: 0x28 }
  - { offsetInCU: 0x41A4C, offset: 0x41A4C, size: 0x8, addend: 0x0, symName: __ZNSt3__110__function6__funcINS_6__bindIRNS_8functionIFmP8SSS_NodeIfEmEEEJRS6_RmEEENS_9allocatorISC_EEFvvEE18destroy_deallocateEv, symObjAddr: 0x138A0, symBinAddr: 0x100015048, symSize: 0x58 }
  - { offsetInCU: 0x41A8F, offset: 0x41A8F, size: 0x8, addend: 0x0, symName: __ZNSt3__110__function6__funcINS_6__bindIRNS_8functionIFmP8SSS_NodeIfEmEEEJRS6_RmEEENS_9allocatorISC_EEFvvEEclEv, symObjAddr: 0x138F8, symBinAddr: 0x1000150A0, symSize: 0x28 }
  - { offsetInCU: 0x41AB7, offset: 0x41AB7, size: 0x8, addend: 0x0, symName: __ZNKSt3__110__function6__funcINS_6__bindIRNS_8functionIFmP8SSS_NodeIfEmEEEJRS6_RmEEENS_9allocatorISC_EEFvvEE6targetERKSt9type_info, symObjAddr: 0x13920, symBinAddr: 0x1000150C8, symSize: 0x60 }
  - { offsetInCU: 0x41AEE, offset: 0x41AEE, size: 0x8, addend: 0x0, symName: __ZNKSt3__110__function6__funcINS_6__bindIRNS_8functionIFmP8SSS_NodeIfEmEEEJRS6_RmEEENS_9allocatorISC_EEFvvEE11target_typeEv, symObjAddr: 0x13980, symBinAddr: 0x100015128, symSize: 0x18 }
  - { offsetInCU: 0x41B16, offset: 0x41B16, size: 0x8, addend: 0x0, symName: __ZNSt3__110__function6__baseIFvvEED1Ev, symObjAddr: 0x13998, symBinAddr: 0x100015140, symSize: 0x14 }
  - { offsetInCU: 0x41B40, offset: 0x41B40, size: 0x8, addend: 0x0, symName: __ZNSt3__110__function6__baseIFvvEED0Ev, symObjAddr: 0x139AC, symBinAddr: 0x100015154, symSize: 0xC }
  - { offsetInCU: 0x41B6A, offset: 0x41B6A, size: 0x8, addend: 0x0, symName: __ZNSt3__110__function12__alloc_funcINS_6__bindIRNS_8functionIFmP8SSS_NodeIfEmEEEJRS6_RmEEENS_9allocatorISC_EEFvvEEC2B7v160006EOSC_OSE_, symObjAddr: 0x139B8, symBinAddr: 0x100015160, symSize: 0x5C }
  - { offsetInCU: 0x41BB0, offset: 0x41BB0, size: 0x8, addend: 0x0, symName: __ZNSt3__117__compressed_pairINS_6__bindIRNS_8functionIFmP8SSS_NodeIfEmEEEJRS5_RmEEENS_9allocatorISB_EEEC1B7v160006IJOSB_EJOSD_EEENS_21piecewise_construct_tENS_5tupleIJDpT_EEENSJ_IJDpT0_EEE, symObjAddr: 0x13A6C, symBinAddr: 0x100015214, symSize: 0x3C }
  - { offsetInCU: 0x41C1A, offset: 0x41C1A, size: 0x8, addend: 0x0, symName: __ZNSt3__15tupleIJONS_6__bindIRNS_8functionIFmP8SSS_NodeIfEmEEEJRS5_RmEEEEEC1B7v160006IJSB_ELi0EEEDpOT_, symObjAddr: 0x13AA8, symBinAddr: 0x100015250, symSize: 0x34 }
  - { offsetInCU: 0x41C64, offset: 0x41C64, size: 0x8, addend: 0x0, symName: __ZNSt3__15tupleIJONS_6__bindIRNS_8functionIFmP8SSS_NodeIfEmEEEJRS5_RmEEEEEC2B7v160006IJSB_ELi0EEEDpOT_, symObjAddr: 0x13ADC, symBinAddr: 0x100015284, symSize: 0x34 }
  - { offsetInCU: 0x41CAE, offset: 0x41CAE, size: 0x8, addend: 0x0, symName: __ZNSt3__112__tuple_implINS_15__tuple_indicesIJLm0EEEEJONS_6__bindIRNS_8functionIFmP8SSS_NodeIfEmEEEJRS7_RmEEEEEC1B7v160006IJLm0EEJSE_EJEJEJSD_EEENS1_IJXspT_EEEENS_13__tuple_typesIJDpT0_EEENS1_IJXspT1_EEEENSI_IJDpT2_EEEDpOT3_, symObjAddr: 0x13B10, symBinAddr: 0x1000152B8, symSize: 0x34 }
  - { offsetInCU: 0x41D43, offset: 0x41D43, size: 0x8, addend: 0x0, symName: __ZNSt3__112__tuple_implINS_15__tuple_indicesIJLm0EEEEJONS_6__bindIRNS_8functionIFmP8SSS_NodeIfEmEEEJRS7_RmEEEEEC2B7v160006IJLm0EEJSE_EJEJEJSD_EEENS1_IJXspT_EEEENS_13__tuple_typesIJDpT0_EEENS1_IJXspT1_EEEENSI_IJDpT2_EEEDpOT3_, symObjAddr: 0x13B44, symBinAddr: 0x1000152EC, symSize: 0x34 }
  - { offsetInCU: 0x41DD8, offset: 0x41DD8, size: 0x8, addend: 0x0, symName: __ZNSt3__112__tuple_leafILm0EONS_6__bindIRNS_8functionIFmP8SSS_NodeIfEmEEEJRS5_RmEEELb0EEC2B7v160006ISB_vEEOT_, symObjAddr: 0x13B78, symBinAddr: 0x100015320, symSize: 0x20 }
  - { offsetInCU: 0x41E1B, offset: 0x41E1B, size: 0x8, addend: 0x0, symName: __ZNSt3__15tupleIJONS_9allocatorINS_6__bindIRNS_8functionIFmP8SSS_NodeIfEmEEEJRS6_RmEEEEEEEC1B7v160006IJSD_ELi0EEEDpOT_, symObjAddr: 0x13B98, symBinAddr: 0x100015340, symSize: 0x34 }
  - { offsetInCU: 0x41E65, offset: 0x41E65, size: 0x8, addend: 0x0, symName: __ZNSt3__15tupleIJONS_9allocatorINS_6__bindIRNS_8functionIFmP8SSS_NodeIfEmEEEJRS6_RmEEEEEEEC2B7v160006IJSD_ELi0EEEDpOT_, symObjAddr: 0x13BCC, symBinAddr: 0x100015374, symSize: 0x34 }
  - { offsetInCU: 0x41EAF, offset: 0x41EAF, size: 0x8, addend: 0x0, symName: __ZNSt3__112__tuple_implINS_15__tuple_indicesIJLm0EEEEJONS_9allocatorINS_6__bindIRNS_8functionIFmP8SSS_NodeIfEmEEEJRS8_RmEEEEEEEC1B7v160006IJLm0EEJSG_EJEJEJSF_EEENS1_IJXspT_EEEENS_13__tuple_typesIJDpT0_EEENS1_IJXspT1_EEEENSK_IJDpT2_EEEDpOT3_, symObjAddr: 0x13C00, symBinAddr: 0x1000153A8, symSize: 0x34 }
  - { offsetInCU: 0x41F44, offset: 0x41F44, size: 0x8, addend: 0x0, symName: __ZNSt3__112__tuple_implINS_15__tuple_indicesIJLm0EEEEJONS_9allocatorINS_6__bindIRNS_8functionIFmP8SSS_NodeIfEmEEEJRS8_RmEEEEEEEC2B7v160006IJLm0EEJSG_EJEJEJSF_EEENS1_IJXspT_EEEENS_13__tuple_typesIJDpT0_EEENS1_IJXspT1_EEEENSK_IJDpT2_EEEDpOT3_, symObjAddr: 0x13C34, symBinAddr: 0x1000153DC, symSize: 0x34 }
  - { offsetInCU: 0x41FD9, offset: 0x41FD9, size: 0x8, addend: 0x0, symName: __ZNSt3__112__tuple_leafILm0EONS_9allocatorINS_6__bindIRNS_8functionIFmP8SSS_NodeIfEmEEEJRS6_RmEEEEELb0EEC2B7v160006ISD_vEEOT_, symObjAddr: 0x13C68, symBinAddr: 0x100015410, symSize: 0x20 }
  - { offsetInCU: 0x4201C, offset: 0x4201C, size: 0x8, addend: 0x0, symName: __ZNSt3__117__compressed_pairINS_6__bindIRNS_8functionIFmP8SSS_NodeIfEmEEEJRS5_RmEEENS_9allocatorISB_EEEC2B7v160006IJOSB_EJOSD_EEENS_21piecewise_construct_tENS_5tupleIJDpT_EEENSJ_IJDpT0_EEE, symObjAddr: 0x13C88, symBinAddr: 0x100015430, symSize: 0x7C }
  - { offsetInCU: 0x42086, offset: 0x42086, size: 0x8, addend: 0x0, symName: __ZNSt3__122__compressed_pair_elemINS_6__bindIRNS_8functionIFmP8SSS_NodeIfEmEEEJRS5_RmEEELi0ELb0EEC2B7v160006IJOSB_EJLm0EEEENS_21piecewise_construct_tENS_5tupleIJDpT_EEENS_15__tuple_indicesIJXspT0_EEEE, symObjAddr: 0x13D04, symBinAddr: 0x1000154AC, symSize: 0x44 }
  - { offsetInCU: 0x420E9, offset: 0x420E9, size: 0x8, addend: 0x0, symName: __ZNSt3__122__compressed_pair_elemINS_9allocatorINS_6__bindIRNS_8functionIFmP8SSS_NodeIfEmEEEJRS6_RmEEEEELi1ELb1EEC2B7v160006IJOSD_EJLm0EEEENS_21piecewise_construct_tENS_5tupleIJDpT_EEENS_15__tuple_indicesIJXspT0_EEEE, symObjAddr: 0x13D48, symBinAddr: 0x1000154F0, symSize: 0x38 }
  - { offsetInCU: 0x4214C, offset: 0x4214C, size: 0x8, addend: 0x0, symName: __ZNSt3__122__compressed_pair_elemINS_6__bindIRNS_8functionIFmP8SSS_NodeIfEmEEEJRS5_RmEEELi0ELb0EED2Ev, symObjAddr: 0x13D80, symBinAddr: 0x100015528, symSize: 0x2C }
  - { offsetInCU: 0x42178, offset: 0x42178, size: 0x8, addend: 0x0, symName: __ZNSt3__16__bindIRNS_8functionIFmP8SSS_NodeIfEmEEEJRS4_RmEEC1EOSA_, symObjAddr: 0x13DD0, symBinAddr: 0x100015578, symSize: 0x34 }
  - { offsetInCU: 0x421AE, offset: 0x421AE, size: 0x8, addend: 0x0, symName: __ZNSt3__112__tuple_leafILm0EONS_6__bindIRNS_8functionIFmP8SSS_NodeIfEmEEEJRS5_RmEEELb0EE3getB7v160006Ev, symObjAddr: 0x13E04, symBinAddr: 0x1000155AC, symSize: 0x18 }
  - { offsetInCU: 0x421D4, offset: 0x421D4, size: 0x8, addend: 0x0, symName: __ZNSt3__16__bindIRNS_8functionIFmP8SSS_NodeIfEmEEEJRS4_RmEEC2EOSA_, symObjAddr: 0x13E1C, symBinAddr: 0x1000155C4, symSize: 0x48 }
  - { offsetInCU: 0x4220A, offset: 0x4220A, size: 0x8, addend: 0x0, symName: __ZNSt3__18functionIFmP8SSS_NodeIfEmEEC1EOS5_, symObjAddr: 0x13E64, symBinAddr: 0x10001560C, symSize: 0x34 }
  - { offsetInCU: 0x42245, offset: 0x42245, size: 0x8, addend: 0x0, symName: __ZNSt3__18functionIFmP8SSS_NodeIfEmEEC2EOS5_, symObjAddr: 0x13E98, symBinAddr: 0x100015640, symSize: 0x34 }
  - { offsetInCU: 0x42280, offset: 0x42280, size: 0x8, addend: 0x0, symName: __ZNSt3__110__function12__value_funcIFmP8SSS_NodeIfEmEEC1B7v160006EOS6_, symObjAddr: 0x13ECC, symBinAddr: 0x100015674, symSize: 0x34 }
  - { offsetInCU: 0x422B9, offset: 0x422B9, size: 0x8, addend: 0x0, symName: __ZNSt3__110__function12__value_funcIFmP8SSS_NodeIfEmEEC2B7v160006EOS6_, symObjAddr: 0x13F00, symBinAddr: 0x1000156A8, symSize: 0xC4 }
  - { offsetInCU: 0x422F2, offset: 0x422F2, size: 0x8, addend: 0x0, symName: __ZNSt3__112__tuple_leafILm0EONS_9allocatorINS_6__bindIRNS_8functionIFmP8SSS_NodeIfEmEEEJRS6_RmEEEEELb0EE3getB7v160006Ev, symObjAddr: 0x13FE8, symBinAddr: 0x100015790, symSize: 0x18 }
  - { offsetInCU: 0x42318, offset: 0x42318, size: 0x8, addend: 0x0, symName: __ZNSt3__110__function6__funcINS_6__bindIRNS_8functionIFmP8SSS_NodeIfEmEEEJRS6_RmEEENS_9allocatorISC_EEFvvEED2Ev, symObjAddr: 0x14000, symBinAddr: 0x1000157A8, symSize: 0x48 }
  - { offsetInCU: 0x42345, offset: 0x42345, size: 0x8, addend: 0x0, symName: __ZNSt3__110__function12__alloc_funcINS_6__bindIRNS_8functionIFmP8SSS_NodeIfEmEEEJRS6_RmEEENS_9allocatorISC_EEFvvEED1Ev, symObjAddr: 0x14048, symBinAddr: 0x1000157F0, symSize: 0x2C }
  - { offsetInCU: 0x42371, offset: 0x42371, size: 0x8, addend: 0x0, symName: __ZNSt3__110__function12__alloc_funcINS_6__bindIRNS_8functionIFmP8SSS_NodeIfEmEEEJRS6_RmEEENS_9allocatorISC_EEFvvEED2Ev, symObjAddr: 0x14074, symBinAddr: 0x10001581C, symSize: 0x2C }
  - { offsetInCU: 0x4239D, offset: 0x4239D, size: 0x8, addend: 0x0, symName: __ZNSt3__117__compressed_pairINS_6__bindIRNS_8functionIFmP8SSS_NodeIfEmEEEJRS5_RmEEENS_9allocatorISB_EEED1Ev, symObjAddr: 0x140A0, symBinAddr: 0x100015848, symSize: 0x2C }
  - { offsetInCU: 0x423C9, offset: 0x423C9, size: 0x8, addend: 0x0, symName: __ZNSt3__117__compressed_pairINS_6__bindIRNS_8functionIFmP8SSS_NodeIfEmEEEJRS5_RmEEENS_9allocatorISB_EEED2Ev, symObjAddr: 0x140CC, symBinAddr: 0x100015874, symSize: 0x2C }
  - { offsetInCU: 0x423F5, offset: 0x423F5, size: 0x8, addend: 0x0, symName: __ZNKSt3__110__function12__alloc_funcINS_6__bindIRNS_8functionIFmP8SSS_NodeIfEmEEEJRS6_RmEEENS_9allocatorISC_EEFvvEE15__get_allocatorB7v160006Ev, symObjAddr: 0x140F8, symBinAddr: 0x1000158A0, symSize: 0x24 }
  - { offsetInCU: 0x4244D, offset: 0x4244D, size: 0x8, addend: 0x0, symName: __ZNSt3__110unique_ptrINS_10__function6__funcINS_6__bindIRNS_8functionIFmP8SSS_NodeIfEmEEEJRS7_RmEEENS_9allocatorISD_EEFvvEEENS_22__allocator_destructorINSE_ISH_EEEEEC1B7v160006ILb1EvEEPSH_NS_16__dependent_typeINS_27__unique_ptr_deleter_sfinaeISK_EEXT_EE20__good_rval_ref_typeE, symObjAddr: 0x1411C, symBinAddr: 0x1000158C4, symSize: 0x3C }
  - { offsetInCU: 0x4249E, offset: 0x4249E, size: 0x8, addend: 0x0, symName: __ZNKSt3__110unique_ptrINS_10__function6__funcINS_6__bindIRNS_8functionIFmP8SSS_NodeIfEmEEEJRS7_RmEEENS_9allocatorISD_EEFvvEEENS_22__allocator_destructorINSE_ISH_EEEEE3getB7v160006Ev, symObjAddr: 0x14158, symBinAddr: 0x100015900, symSize: 0x28 }
  - { offsetInCU: 0x424C4, offset: 0x424C4, size: 0x8, addend: 0x0, symName: __ZNKSt3__110__function12__alloc_funcINS_6__bindIRNS_8functionIFmP8SSS_NodeIfEmEEEJRS6_RmEEENS_9allocatorISC_EEFvvEE8__targetB7v160006Ev, symObjAddr: 0x14180, symBinAddr: 0x100015928, symSize: 0x24 }
  - { offsetInCU: 0x424F5, offset: 0x424F5, size: 0x8, addend: 0x0, symName: __ZNSt3__19allocatorINS_6__bindIRNS_8functionIFmP8SSS_NodeIfEmEEEJRS5_RmEEEEC1B7v160006INS_10__function6__funcISB_SC_FvvEEEEERKNS0_IT_EE, symObjAddr: 0x141A4, symBinAddr: 0x10001594C, symSize: 0x34 }
  - { offsetInCU: 0x42532, offset: 0x42532, size: 0x8, addend: 0x0, symName: __ZNSt3__110__function6__funcINS_6__bindIRNS_8functionIFmP8SSS_NodeIfEmEEEJRS6_RmEEENS_9allocatorISC_EEFvvEEC1B7v160006ERKSC_OSE_, symObjAddr: 0x141D8, symBinAddr: 0x100015980, symSize: 0x3C }
  - { offsetInCU: 0x4257A, offset: 0x4257A, size: 0x8, addend: 0x0, symName: __ZNSt3__110unique_ptrINS_10__function6__funcINS_6__bindIRNS_8functionIFmP8SSS_NodeIfEmEEEJRS7_RmEEENS_9allocatorISD_EEFvvEEENS_22__allocator_destructorINSE_ISH_EEEEE7releaseB7v160006Ev, symObjAddr: 0x14214, symBinAddr: 0x1000159BC, symSize: 0x44 }
  - { offsetInCU: 0x425AF, offset: 0x425AF, size: 0x8, addend: 0x0, symName: __ZNSt3__110unique_ptrINS_10__function6__funcINS_6__bindIRNS_8functionIFmP8SSS_NodeIfEmEEEJRS7_RmEEENS_9allocatorISD_EEFvvEEENS_22__allocator_destructorINSE_ISH_EEEEED1B7v160006Ev, symObjAddr: 0x14258, symBinAddr: 0x100015A00, symSize: 0x2C }
  - { offsetInCU: 0x425D9, offset: 0x425D9, size: 0x8, addend: 0x0, symName: __ZNKSt3__117__compressed_pairINS_6__bindIRNS_8functionIFmP8SSS_NodeIfEmEEEJRS5_RmEEENS_9allocatorISB_EEE6secondB7v160006Ev, symObjAddr: 0x14284, symBinAddr: 0x100015A2C, symSize: 0x24 }
  - { offsetInCU: 0x425FF, offset: 0x425FF, size: 0x8, addend: 0x0, symName: __ZNKSt3__122__compressed_pair_elemINS_9allocatorINS_6__bindIRNS_8functionIFmP8SSS_NodeIfEmEEEJRS6_RmEEEEELi1ELb1EE5__getB7v160006Ev, symObjAddr: 0x142A8, symBinAddr: 0x100015A50, symSize: 0x14 }
  - { offsetInCU: 0x42625, offset: 0x42625, size: 0x8, addend: 0x0, symName: __ZNSt3__110unique_ptrINS_10__function6__funcINS_6__bindIRNS_8functionIFmP8SSS_NodeIfEmEEEJRS7_RmEEENS_9allocatorISD_EEFvvEEENS_22__allocator_destructorINSE_ISH_EEEEEC2B7v160006ILb1EvEEPSH_NS_16__dependent_typeINS_27__unique_ptr_deleter_sfinaeISK_EEXT_EE20__good_rval_ref_typeE, symObjAddr: 0x142BC, symBinAddr: 0x100015A64, symSize: 0x48 }
  - { offsetInCU: 0x42676, offset: 0x42676, size: 0x8, addend: 0x0, symName: __ZNKSt3__117__compressed_pairINS_6__bindIRNS_8functionIFmP8SSS_NodeIfEmEEEJRS5_RmEEENS_9allocatorISB_EEE5firstB7v160006Ev, symObjAddr: 0x14304, symBinAddr: 0x100015AAC, symSize: 0x24 }
  - { offsetInCU: 0x4269C, offset: 0x4269C, size: 0x8, addend: 0x0, symName: __ZNKSt3__122__compressed_pair_elemINS_6__bindIRNS_8functionIFmP8SSS_NodeIfEmEEEJRS5_RmEEELi0ELb0EE5__getB7v160006Ev, symObjAddr: 0x14328, symBinAddr: 0x100015AD0, symSize: 0x14 }
  - { offsetInCU: 0x426C2, offset: 0x426C2, size: 0x8, addend: 0x0, symName: __ZNSt3__19allocatorINS_6__bindIRNS_8functionIFmP8SSS_NodeIfEmEEEJRS5_RmEEEEC2B7v160006INS_10__function6__funcISB_SC_FvvEEEEERKNS0_IT_EE, symObjAddr: 0x1433C, symBinAddr: 0x100015AE4, symSize: 0x30 }
  - { offsetInCU: 0x426FF, offset: 0x426FF, size: 0x8, addend: 0x0, symName: __ZNSt3__110__function6__funcINS_6__bindIRNS_8functionIFmP8SSS_NodeIfEmEEEJRS6_RmEEENS_9allocatorISC_EEFvvEEC2B7v160006ERKSC_OSE_, symObjAddr: 0x1436C, symBinAddr: 0x100015B14, symSize: 0x88 }
  - { offsetInCU: 0x42747, offset: 0x42747, size: 0x8, addend: 0x0, symName: __ZNSt3__110__function12__alloc_funcINS_6__bindIRNS_8functionIFmP8SSS_NodeIfEmEEEJRS6_RmEEENS_9allocatorISC_EEFvvEEC1B7v160006ERKSC_OSE_, symObjAddr: 0x143F4, symBinAddr: 0x100015B9C, symSize: 0x3C }
  - { offsetInCU: 0x4278D, offset: 0x4278D, size: 0x8, addend: 0x0, symName: __ZNSt3__110__function12__alloc_funcINS_6__bindIRNS_8functionIFmP8SSS_NodeIfEmEEEJRS6_RmEEENS_9allocatorISC_EEFvvEEC2B7v160006ERKSC_OSE_, symObjAddr: 0x14430, symBinAddr: 0x100015BD8, symSize: 0x5C }
  - { offsetInCU: 0x427D3, offset: 0x427D3, size: 0x8, addend: 0x0, symName: __ZNSt3__117__compressed_pairINS_6__bindIRNS_8functionIFmP8SSS_NodeIfEmEEEJRS5_RmEEENS_9allocatorISB_EEEC1B7v160006IJRKSB_EJOSD_EEENS_21piecewise_construct_tENS_5tupleIJDpT_EEENSK_IJDpT0_EEE, symObjAddr: 0x144B8, symBinAddr: 0x100015C60, symSize: 0x3C }
  - { offsetInCU: 0x4283D, offset: 0x4283D, size: 0x8, addend: 0x0, symName: __ZNSt3__15tupleIJRKNS_6__bindIRNS_8functionIFmP8SSS_NodeIfEmEEEJRS5_RmEEEEEC1B7v160006INS_4_AndELi0EEESD_, symObjAddr: 0x144F4, symBinAddr: 0x100015C9C, symSize: 0x34 }
  - { offsetInCU: 0x42885, offset: 0x42885, size: 0x8, addend: 0x0, symName: __ZNSt3__15tupleIJRKNS_6__bindIRNS_8functionIFmP8SSS_NodeIfEmEEEJRS5_RmEEEEEC2B7v160006INS_4_AndELi0EEESD_, symObjAddr: 0x14528, symBinAddr: 0x100015CD0, symSize: 0x34 }
  - { offsetInCU: 0x428CD, offset: 0x428CD, size: 0x8, addend: 0x0, symName: __ZNSt3__112__tuple_implINS_15__tuple_indicesIJLm0EEEEJRKNS_6__bindIRNS_8functionIFmP8SSS_NodeIfEmEEEJRS7_RmEEEEEC1B7v160006IJLm0EEJSF_EJEJEJSF_EEENS1_IJXspT_EEEENS_13__tuple_typesIJDpT0_EEENS1_IJXspT1_EEEENSJ_IJDpT2_EEEDpOT3_, symObjAddr: 0x1455C, symBinAddr: 0x100015D04, symSize: 0x34 }
  - { offsetInCU: 0x42962, offset: 0x42962, size: 0x8, addend: 0x0, symName: __ZNSt3__112__tuple_implINS_15__tuple_indicesIJLm0EEEEJRKNS_6__bindIRNS_8functionIFmP8SSS_NodeIfEmEEEJRS7_RmEEEEEC2B7v160006IJLm0EEJSF_EJEJEJSF_EEENS1_IJXspT_EEEENS_13__tuple_typesIJDpT0_EEENS1_IJXspT1_EEEENSJ_IJDpT2_EEEDpOT3_, symObjAddr: 0x14590, symBinAddr: 0x100015D38, symSize: 0x34 }
  - { offsetInCU: 0x429F7, offset: 0x429F7, size: 0x8, addend: 0x0, symName: __ZNSt3__112__tuple_leafILm0ERKNS_6__bindIRNS_8functionIFmP8SSS_NodeIfEmEEEJRS5_RmEEELb0EEC2B7v160006ISD_vEEOT_, symObjAddr: 0x145C4, symBinAddr: 0x100015D6C, symSize: 0x20 }
  - { offsetInCU: 0x42A3A, offset: 0x42A3A, size: 0x8, addend: 0x0, symName: __ZNSt3__117__compressed_pairINS_6__bindIRNS_8functionIFmP8SSS_NodeIfEmEEEJRS5_RmEEENS_9allocatorISB_EEEC2B7v160006IJRKSB_EJOSD_EEENS_21piecewise_construct_tENS_5tupleIJDpT_EEENSK_IJDpT0_EEE, symObjAddr: 0x145E4, symBinAddr: 0x100015D8C, symSize: 0x54 }
  - { offsetInCU: 0x42AA4, offset: 0x42AA4, size: 0x8, addend: 0x0, symName: __ZNSt3__122__compressed_pair_elemINS_6__bindIRNS_8functionIFmP8SSS_NodeIfEmEEEJRS5_RmEEELi0ELb0EEC2B7v160006IJRKSB_EJLm0EEEENS_21piecewise_construct_tENS_5tupleIJDpT_EEENS_15__tuple_indicesIJXspT0_EEEE, symObjAddr: 0x14638, symBinAddr: 0x100015DE0, symSize: 0x44 }
  - { offsetInCU: 0x42B07, offset: 0x42B07, size: 0x8, addend: 0x0, symName: __ZNSt3__16__bindIRNS_8functionIFmP8SSS_NodeIfEmEEEJRS4_RmEEC1ERKSA_, symObjAddr: 0x146A0, symBinAddr: 0x100015E48, symSize: 0x34 }
  - { offsetInCU: 0x42B3D, offset: 0x42B3D, size: 0x8, addend: 0x0, symName: __ZNSt3__112__tuple_leafILm0ERKNS_6__bindIRNS_8functionIFmP8SSS_NodeIfEmEEEJRS5_RmEEELb0EE3getB7v160006Ev, symObjAddr: 0x146D4, symBinAddr: 0x100015E7C, symSize: 0x18 }
  - { offsetInCU: 0x42B63, offset: 0x42B63, size: 0x8, addend: 0x0, symName: __ZNSt3__16__bindIRNS_8functionIFmP8SSS_NodeIfEmEEEJRS4_RmEEC2ERKSA_, symObjAddr: 0x146EC, symBinAddr: 0x100015E94, symSize: 0x48 }
  - { offsetInCU: 0x42B99, offset: 0x42B99, size: 0x8, addend: 0x0, symName: __ZNSt3__117__compressed_pairIPNS_10__function6__funcINS_6__bindIRNS_8functionIFmP8SSS_NodeIfEmEEEJRS7_RmEEENS_9allocatorISD_EEFvvEEENS_22__allocator_destructorINSE_ISH_EEEEE5firstB7v160006Ev, symObjAddr: 0x14734, symBinAddr: 0x100015EDC, symSize: 0x24 }
  - { offsetInCU: 0x42BBF, offset: 0x42BBF, size: 0x8, addend: 0x0, symName: __ZNSt3__122__compressed_pair_elemIPNS_10__function6__funcINS_6__bindIRNS_8functionIFmP8SSS_NodeIfEmEEEJRS7_RmEEENS_9allocatorISD_EEFvvEEELi0ELb0EE5__getB7v160006Ev, symObjAddr: 0x14758, symBinAddr: 0x100015F00, symSize: 0x14 }
  - { offsetInCU: 0x42BE5, offset: 0x42BE5, size: 0x8, addend: 0x0, symName: __ZNSt3__110unique_ptrINS_10__function6__funcINS_6__bindIRNS_8functionIFmP8SSS_NodeIfEmEEEJRS7_RmEEENS_9allocatorISD_EEFvvEEENS_22__allocator_destructorINSE_ISH_EEEEED2B7v160006Ev, symObjAddr: 0x1476C, symBinAddr: 0x100015F14, symSize: 0x30 }
  - { offsetInCU: 0x42C0F, offset: 0x42C0F, size: 0x8, addend: 0x0, symName: __ZNSt3__110unique_ptrINS_10__function6__funcINS_6__bindIRNS_8functionIFmP8SSS_NodeIfEmEEEJRS7_RmEEENS_9allocatorISD_EEFvvEEENS_22__allocator_destructorINSE_ISH_EEEEE5resetB7v160006EPSH_, symObjAddr: 0x1479C, symBinAddr: 0x100015F44, symSize: 0x78 }
  - { offsetInCU: 0x42C53, offset: 0x42C53, size: 0x8, addend: 0x0, symName: __ZNSt3__117__compressed_pairIPNS_10__function6__funcINS_6__bindIRNS_8functionIFmP8SSS_NodeIfEmEEEJRS7_RmEEENS_9allocatorISD_EEFvvEEENS_22__allocator_destructorINSE_ISH_EEEEE6secondB7v160006Ev, symObjAddr: 0x14814, symBinAddr: 0x100015FBC, symSize: 0x28 }
  - { offsetInCU: 0x42C79, offset: 0x42C79, size: 0x8, addend: 0x0, symName: __ZNSt3__122__allocator_destructorINS_9allocatorINS_10__function6__funcINS_6__bindIRNS_8functionIFmP8SSS_NodeIfEmEEEJRS8_RmEEENS1_ISE_EEFvvEEEEEEclB7v160006EPSH_, symObjAddr: 0x1483C, symBinAddr: 0x100015FE4, symSize: 0x34 }
  - { offsetInCU: 0x42CAD, offset: 0x42CAD, size: 0x8, addend: 0x0, symName: __ZNSt3__122__compressed_pair_elemINS_22__allocator_destructorINS_9allocatorINS_10__function6__funcINS_6__bindIRNS_8functionIFmP8SSS_NodeIfEmEEEJRS9_RmEEENS2_ISF_EEFvvEEEEEEELi1ELb0EE5__getB7v160006Ev, symObjAddr: 0x14870, symBinAddr: 0x100016018, symSize: 0x14 }
  - { offsetInCU: 0x42CD3, offset: 0x42CD3, size: 0x8, addend: 0x0, symName: __ZNSt3__116allocator_traitsINS_9allocatorINS_10__function6__funcINS_6__bindIRNS_8functionIFmP8SSS_NodeIfEmEEEJRS8_RmEEENS1_ISE_EEFvvEEEEEE10deallocateB7v160006ERSI_PSH_m, symObjAddr: 0x14884, symBinAddr: 0x10001602C, symSize: 0x34 }
  - { offsetInCU: 0x42D15, offset: 0x42D15, size: 0x8, addend: 0x0, symName: __ZNSt3__19allocatorINS_10__function6__funcINS_6__bindIRNS_8functionIFmP8SSS_NodeIfEmEEEJRS7_RmEEENS0_ISD_EEFvvEEEE10deallocateB7v160006EPSG_m, symObjAddr: 0x148B8, symBinAddr: 0x100016060, symSize: 0x40 }
  - { offsetInCU: 0x42D57, offset: 0x42D57, size: 0x8, addend: 0x0, symName: __ZNSt3__110__function6__funcINS_6__bindIRNS_8functionIFmP8SSS_NodeIfEmEEEJRS6_RmEEENS_9allocatorISC_EEFvvEEC1B7v160006ERKSC_RKSE_, symObjAddr: 0x148F8, symBinAddr: 0x1000160A0, symSize: 0x3C }
  - { offsetInCU: 0x42D9F, offset: 0x42D9F, size: 0x8, addend: 0x0, symName: __ZNSt3__110__function6__funcINS_6__bindIRNS_8functionIFmP8SSS_NodeIfEmEEEJRS6_RmEEENS_9allocatorISC_EEFvvEEC2B7v160006ERKSC_RKSE_, symObjAddr: 0x14934, symBinAddr: 0x1000160DC, symSize: 0x88 }
  - { offsetInCU: 0x42DE7, offset: 0x42DE7, size: 0x8, addend: 0x0, symName: __ZNSt3__110__function12__alloc_funcINS_6__bindIRNS_8functionIFmP8SSS_NodeIfEmEEEJRS6_RmEEENS_9allocatorISC_EEFvvEEC1B7v160006ERKSC_RKSE_, symObjAddr: 0x149BC, symBinAddr: 0x100016164, symSize: 0x3C }
  - { offsetInCU: 0x42E2D, offset: 0x42E2D, size: 0x8, addend: 0x0, symName: __ZNSt3__110__function12__alloc_funcINS_6__bindIRNS_8functionIFmP8SSS_NodeIfEmEEEJRS6_RmEEENS_9allocatorISC_EEFvvEEC2B7v160006ERKSC_RKSE_, symObjAddr: 0x149F8, symBinAddr: 0x1000161A0, symSize: 0x5C }
  - { offsetInCU: 0x42E73, offset: 0x42E73, size: 0x8, addend: 0x0, symName: __ZNSt3__117__compressed_pairINS_6__bindIRNS_8functionIFmP8SSS_NodeIfEmEEEJRS5_RmEEENS_9allocatorISB_EEEC1B7v160006IJRKSB_EJRKSD_EEENS_21piecewise_construct_tENS_5tupleIJDpT_EEENSL_IJDpT0_EEE, symObjAddr: 0x14A80, symBinAddr: 0x100016228, symSize: 0x3C }
  - { offsetInCU: 0x42EDD, offset: 0x42EDD, size: 0x8, addend: 0x0, symName: __ZNSt3__15tupleIJRKNS_9allocatorINS_6__bindIRNS_8functionIFmP8SSS_NodeIfEmEEEJRS6_RmEEEEEEEC1B7v160006INS_4_AndELi0EEESF_, symObjAddr: 0x14ABC, symBinAddr: 0x100016264, symSize: 0x34 }
  - { offsetInCU: 0x42F25, offset: 0x42F25, size: 0x8, addend: 0x0, symName: __ZNSt3__15tupleIJRKNS_9allocatorINS_6__bindIRNS_8functionIFmP8SSS_NodeIfEmEEEJRS6_RmEEEEEEEC2B7v160006INS_4_AndELi0EEESF_, symObjAddr: 0x14AF0, symBinAddr: 0x100016298, symSize: 0x34 }
  - { offsetInCU: 0x42F6D, offset: 0x42F6D, size: 0x8, addend: 0x0, symName: __ZNSt3__112__tuple_implINS_15__tuple_indicesIJLm0EEEEJRKNS_9allocatorINS_6__bindIRNS_8functionIFmP8SSS_NodeIfEmEEEJRS8_RmEEEEEEEC1B7v160006IJLm0EEJSH_EJEJEJSH_EEENS1_IJXspT_EEEENS_13__tuple_typesIJDpT0_EEENS1_IJXspT1_EEEENSL_IJDpT2_EEEDpOT3_, symObjAddr: 0x14B24, symBinAddr: 0x1000162CC, symSize: 0x34 }
  - { offsetInCU: 0x43002, offset: 0x43002, size: 0x8, addend: 0x0, symName: __ZNSt3__112__tuple_implINS_15__tuple_indicesIJLm0EEEEJRKNS_9allocatorINS_6__bindIRNS_8functionIFmP8SSS_NodeIfEmEEEJRS8_RmEEEEEEEC2B7v160006IJLm0EEJSH_EJEJEJSH_EEENS1_IJXspT_EEEENS_13__tuple_typesIJDpT0_EEENS1_IJXspT1_EEEENSL_IJDpT2_EEEDpOT3_, symObjAddr: 0x14B58, symBinAddr: 0x100016300, symSize: 0x34 }
  - { offsetInCU: 0x43097, offset: 0x43097, size: 0x8, addend: 0x0, symName: __ZNSt3__112__tuple_leafILm0ERKNS_9allocatorINS_6__bindIRNS_8functionIFmP8SSS_NodeIfEmEEEJRS6_RmEEEEELb0EEC2B7v160006ISF_vEEOT_, symObjAddr: 0x14B8C, symBinAddr: 0x100016334, symSize: 0x20 }
  - { offsetInCU: 0x430DA, offset: 0x430DA, size: 0x8, addend: 0x0, symName: __ZNSt3__117__compressed_pairINS_6__bindIRNS_8functionIFmP8SSS_NodeIfEmEEEJRS5_RmEEENS_9allocatorISB_EEEC2B7v160006IJRKSB_EJRKSD_EEENS_21piecewise_construct_tENS_5tupleIJDpT_EEENSL_IJDpT0_EEE, symObjAddr: 0x14BAC, symBinAddr: 0x100016354, symSize: 0x7C }
  - { offsetInCU: 0x43144, offset: 0x43144, size: 0x8, addend: 0x0, symName: __ZNSt3__122__compressed_pair_elemINS_9allocatorINS_6__bindIRNS_8functionIFmP8SSS_NodeIfEmEEEJRS6_RmEEEEELi1ELb1EEC2B7v160006IJRKSD_EJLm0EEEENS_21piecewise_construct_tENS_5tupleIJDpT_EEENS_15__tuple_indicesIJXspT0_EEEE, symObjAddr: 0x14C28, symBinAddr: 0x1000163D0, symSize: 0x38 }
  - { offsetInCU: 0x431A7, offset: 0x431A7, size: 0x8, addend: 0x0, symName: __ZNSt3__112__tuple_leafILm0ERKNS_9allocatorINS_6__bindIRNS_8functionIFmP8SSS_NodeIfEmEEEJRS6_RmEEEEELb0EE3getB7v160006Ev, symObjAddr: 0x14C84, symBinAddr: 0x10001642C, symSize: 0x18 }
  - { offsetInCU: 0x431CD, offset: 0x431CD, size: 0x8, addend: 0x0, symName: __ZNSt3__110__function12__alloc_funcINS_6__bindIRNS_8functionIFmP8SSS_NodeIfEmEEEJRS6_RmEEENS_9allocatorISC_EEFvvEE7destroyB7v160006Ev, symObjAddr: 0x14C9C, symBinAddr: 0x100016444, symSize: 0x24 }
  - { offsetInCU: 0x431F3, offset: 0x431F3, size: 0x8, addend: 0x0, symName: __ZNSt3__110__function12__alloc_funcINS_6__bindIRNS_8functionIFmP8SSS_NodeIfEmEEEJRS6_RmEEENS_9allocatorISC_EEFvvEEclB7v160006Ev, symObjAddr: 0x14CC0, symBinAddr: 0x100016468, symSize: 0x28 }
  - { offsetInCU: 0x43219, offset: 0x43219, size: 0x8, addend: 0x0, symName: __ZNSt3__128__invoke_void_return_wrapperIvLb1EE6__callIJRNS_6__bindIRNS_8functionIFmP8SSS_NodeIfEmEEEJRS7_RmEEEEEEvDpOT_, symObjAddr: 0x14CE8, symBinAddr: 0x100016490, symSize: 0x24 }
  - { offsetInCU: 0x43248, offset: 0x43248, size: 0x8, addend: 0x0, symName: __ZNSt3__117__compressed_pairINS_6__bindIRNS_8functionIFmP8SSS_NodeIfEmEEEJRS5_RmEEENS_9allocatorISB_EEE5firstB7v160006Ev, symObjAddr: 0x14D0C, symBinAddr: 0x1000164B4, symSize: 0x24 }
  - { offsetInCU: 0x43279, offset: 0x43279, size: 0x8, addend: 0x0, symName: __ZNSt3__16__bindIRNS_8functionIFmP8SSS_NodeIfEmEEEJRS4_RmEEclB7v160006IJEEENS_13__bind_returnIS6_NS_5tupleIJS4_mEEENSD_IJDpOT_EEEXsr22__is_valid_bind_returnIS6_SE_SI_EE5valueEE4typeESH_, symObjAddr: 0x14D54, symBinAddr: 0x1000164FC, symSize: 0x34 }
  - { offsetInCU: 0x432A4, offset: 0x432A4, size: 0x8, addend: 0x0, symName: __ZNKSt3__18functionIFmP8SSS_NodeIfEmEEclES3_m, symObjAddr: 0x14EA0, symBinAddr: 0x100016648, symSize: 0x3C }
  - { offsetInCU: 0x432EA, offset: 0x432EA, size: 0x8, addend: 0x0, symName: __ZNKSt3__110__function12__value_funcIFmP8SSS_NodeIfEmEEclB7v160006EOS4_Om, symObjAddr: 0x14EDC, symBinAddr: 0x100016684, symSize: 0x60 }
  - { offsetInCU: 0x43333, offset: 0x43333, size: 0x8, addend: 0x0, symName: __ZNSt3__117bad_function_callC1Ev, symObjAddr: 0x14F74, symBinAddr: 0x10001671C, symSize: 0x2C }
  - { offsetInCU: 0x4335F, offset: 0x4335F, size: 0x8, addend: 0x0, symName: __ZNSt3__117bad_function_callD1Ev, symObjAddr: 0x14FA0, symBinAddr: 0x100016748, symSize: 0x2C }
  - { offsetInCU: 0x43389, offset: 0x43389, size: 0x8, addend: 0x0, symName: __ZNSt3__117bad_function_callC2Ev, symObjAddr: 0x14FCC, symBinAddr: 0x100016774, symSize: 0x44 }
  - { offsetInCU: 0x433B5, offset: 0x433B5, size: 0x8, addend: 0x0, symName: __ZNSt9exceptionC2B7v160006Ev, symObjAddr: 0x15010, symBinAddr: 0x1000167B8, symSize: 0x24 }
  - { offsetInCU: 0x433DF, offset: 0x433DF, size: 0x8, addend: 0x0, symName: __ZNSt3__117bad_function_callD0Ev, symObjAddr: 0x15034, symBinAddr: 0x1000167DC, symSize: 0x30 }
  - { offsetInCU: 0x43409, offset: 0x43409, size: 0x8, addend: 0x0, symName: __ZNSt3__117bad_function_callD2Ev, symObjAddr: 0x15064, symBinAddr: 0x10001680C, symSize: 0x2C }
  - { offsetInCU: 0x43433, offset: 0x43433, size: 0x8, addend: 0x0, symName: __ZNSt3__112__tuple_leafILm0EP8SSS_NodeIfELb0EE3getB7v160006Ev, symObjAddr: 0x15090, symBinAddr: 0x100016838, symSize: 0x14 }
  - { offsetInCU: 0x43459, offset: 0x43459, size: 0x8, addend: 0x0, symName: __ZNSt3__112__tuple_leafILm1EmLb0EE3getB7v160006Ev, symObjAddr: 0x150A4, symBinAddr: 0x10001684C, symSize: 0x14 }
  - { offsetInCU: 0x4347F, offset: 0x4347F, size: 0x8, addend: 0x0, symName: __ZNSt3__122__compressed_pair_elemINS_6__bindIRNS_8functionIFmP8SSS_NodeIfEmEEEJRS5_RmEEELi0ELb0EE5__getB7v160006Ev, symObjAddr: 0x150B8, symBinAddr: 0x100016860, symSize: 0x14 }
  - { offsetInCU: 0x434A5, offset: 0x434A5, size: 0x8, addend: 0x0, symName: __ZNSt3__110unique_ptrINS_10__function6__baseIFvvEEENS_22__allocator_destructorINS_9allocatorINS1_6__funcINS_6__bindIRNS_8functionIFmP8SSS_NodeIfEmEEEJRSC_RmEEENS6_ISI_EES3_EEEEEEED2B7v160006Ev, symObjAddr: 0x150CC, symBinAddr: 0x100016874, symSize: 0x30 }
  - { offsetInCU: 0x434CF, offset: 0x434CF, size: 0x8, addend: 0x0, symName: __ZNSt3__110unique_ptrINS_10__function6__baseIFvvEEENS_22__allocator_destructorINS_9allocatorINS1_6__funcINS_6__bindIRNS_8functionIFmP8SSS_NodeIfEmEEEJRSC_RmEEENS6_ISI_EES3_EEEEEEE5resetB7v160006EPSK_, symObjAddr: 0x150FC, symBinAddr: 0x1000168A4, symSize: 0x78 }
  - { offsetInCU: 0x43513, offset: 0x43513, size: 0x8, addend: 0x0, symName: __ZNSt3__16__bindIRNS_8functionIFmP8SSS_NodeIfEmEEEJRS4_RmEED2Ev, symObjAddr: 0x15174, symBinAddr: 0x10001691C, symSize: 0x30 }
  - { offsetInCU: 0x43540, offset: 0x43540, size: 0x8, addend: 0x0, symName: __ZNSt3__111unique_lockINS_5mutexEED2B7v160006Ev, symObjAddr: 0x151A4, symBinAddr: 0x10001694C, symSize: 0x4C }
  - { offsetInCU: 0x4356A, offset: 0x4356A, size: 0x8, addend: 0x0, symName: __ZNSt3__16vectorIP8SSS_NodeIfENS_9allocatorIS3_EEE9__end_capB7v160006Ev, symObjAddr: 0x151F0, symBinAddr: 0x100016998, symSize: 0x28 }
  - { offsetInCU: 0x43590, offset: 0x43590, size: 0x8, addend: 0x0, symName: __ZNSt3__16vectorIP8SSS_NodeIfENS_9allocatorIS3_EEE22__construct_one_at_endB7v160006IJRKS3_EEEvDpOT_, symObjAddr: 0x15218, symBinAddr: 0x1000169C0, symSize: 0x90 }
  - { offsetInCU: 0x435DF, offset: 0x435DF, size: 0x8, addend: 0x0, symName: __ZNSt3__16vectorIP8SSS_NodeIfENS_9allocatorIS3_EEE21__push_back_slow_pathIRKS3_EEvOT_, symObjAddr: 0x152A8, symBinAddr: 0x100016A50, symSize: 0xD8 }
  - { offsetInCU: 0x4363D, offset: 0x4363D, size: 0x8, addend: 0x0, symName: __ZNSt3__117__compressed_pairIPP8SSS_NodeIfENS_9allocatorIS3_EEE5firstB7v160006Ev, symObjAddr: 0x15380, symBinAddr: 0x100016B28, symSize: 0x24 }
  - { offsetInCU: 0x43663, offset: 0x43663, size: 0x8, addend: 0x0, symName: __ZNSt3__122__compressed_pair_elemIPP8SSS_NodeIfELi0ELb0EE5__getB7v160006Ev, symObjAddr: 0x153A4, symBinAddr: 0x100016B4C, symSize: 0x14 }
  - { offsetInCU: 0x436A4, offset: 0x436A4, size: 0x8, addend: 0x0, symName: __ZNSt3__16vectorIP8SSS_NodeIfENS_9allocatorIS3_EEE21_ConstructTransactionC1B7v160006ERS6_m, symObjAddr: 0x153B8, symBinAddr: 0x100016B60, symSize: 0x3C }
  - { offsetInCU: 0x436EC, offset: 0x436EC, size: 0x8, addend: 0x0, symName: __ZNSt3__116allocator_traitsINS_9allocatorIP8SSS_NodeIfEEEE9constructB7v160006IS4_JRKS4_EvvEEvRS5_PT_DpOT0_, symObjAddr: 0x153F4, symBinAddr: 0x100016B9C, symSize: 0x30 }
  - { offsetInCU: 0x43741, offset: 0x43741, size: 0x8, addend: 0x0, symName: __ZNSt3__16vectorIP8SSS_NodeIfENS_9allocatorIS3_EEE21_ConstructTransactionD1B7v160006Ev, symObjAddr: 0x15424, symBinAddr: 0x100016BCC, symSize: 0x2C }
  - { offsetInCU: 0x4376B, offset: 0x4376B, size: 0x8, addend: 0x0, symName: __ZNSt3__16vectorIP8SSS_NodeIfENS_9allocatorIS3_EEE21_ConstructTransactionC2B7v160006ERS6_m, symObjAddr: 0x15450, symBinAddr: 0x100016BF8, symSize: 0x44 }
  - { offsetInCU: 0x437B3, offset: 0x437B3, size: 0x8, addend: 0x0, symName: __ZNSt3__16vectorIP8SSS_NodeIfENS_9allocatorIS3_EEE21_ConstructTransactionD2B7v160006Ev, symObjAddr: 0x154C0, symBinAddr: 0x100016C68, symSize: 0x20 }
  - { offsetInCU: 0x437DD, offset: 0x437DD, size: 0x8, addend: 0x0, symName: __ZNKSt3__16vectorIP8SSS_NodeIfENS_9allocatorIS3_EEE11__recommendB7v160006Em, symObjAddr: 0x154E0, symBinAddr: 0x100016C88, symSize: 0xB4 }
  - { offsetInCU: 0x43832, offset: 0x43832, size: 0x8, addend: 0x0, symName: __ZNSt3__114__split_bufferIP8SSS_NodeIfERNS_9allocatorIS3_EEEC1EmmS6_, symObjAddr: 0x15594, symBinAddr: 0x100016D3C, symSize: 0x44 }
  - { offsetInCU: 0x43888, offset: 0x43888, size: 0x8, addend: 0x0, symName: __ZNSt3__114__split_bufferIP8SSS_NodeIfERNS_9allocatorIS3_EEED1Ev, symObjAddr: 0x156F0, symBinAddr: 0x100016E98, symSize: 0x2C }
  - { offsetInCU: 0x438B4, offset: 0x438B4, size: 0x8, addend: 0x0, symName: __ZNKSt3__16vectorIP8SSS_NodeIfENS_9allocatorIS3_EEE8max_sizeEv, symObjAddr: 0x1571C, symBinAddr: 0x100016EC4, symSize: 0x60 }
  - { offsetInCU: 0x438DC, offset: 0x438DC, size: 0x8, addend: 0x0, symName: __ZNKSt3__16vectorIP8SSS_NodeIfENS_9allocatorIS3_EEE20__throw_length_errorB7v160006Ev, symObjAddr: 0x1577C, symBinAddr: 0x100016F24, symSize: 0x1C }
  - { offsetInCU: 0x4390D, offset: 0x4390D, size: 0x8, addend: 0x0, symName: __ZNSt3__116allocator_traitsINS_9allocatorIP8SSS_NodeIfEEEE8max_sizeB7v160006IS5_vvEEmRKS5_, symObjAddr: 0x15798, symBinAddr: 0x100016F40, symSize: 0x28 }
  - { offsetInCU: 0x43939, offset: 0x43939, size: 0x8, addend: 0x0, symName: __ZNKSt3__16vectorIP8SSS_NodeIfENS_9allocatorIS3_EEE7__allocB7v160006Ev, symObjAddr: 0x157C0, symBinAddr: 0x100016F68, symSize: 0x28 }
  - { offsetInCU: 0x4395F, offset: 0x4395F, size: 0x8, addend: 0x0, symName: __ZNKSt3__117__compressed_pairIPP8SSS_NodeIfENS_9allocatorIS3_EEE6secondB7v160006Ev, symObjAddr: 0x157E8, symBinAddr: 0x100016F90, symSize: 0x24 }
  - { offsetInCU: 0x43985, offset: 0x43985, size: 0x8, addend: 0x0, symName: __ZNKSt3__122__compressed_pair_elemINS_9allocatorIP8SSS_NodeIfEEELi1ELb1EE5__getB7v160006Ev, symObjAddr: 0x1580C, symBinAddr: 0x100016FB4, symSize: 0x14 }
  - { offsetInCU: 0x439AB, offset: 0x439AB, size: 0x8, addend: 0x0, symName: __ZNSt3__114__split_bufferIP8SSS_NodeIfERNS_9allocatorIS3_EEEC2EmmS6_, symObjAddr: 0x15820, symBinAddr: 0x100016FC8, symSize: 0xD4 }
  - { offsetInCU: 0x43A1F, offset: 0x43A1F, size: 0x8, addend: 0x0, symName: __ZNSt3__117__compressed_pairIPP8SSS_NodeIfERNS_9allocatorIS3_EEEC1B7v160006IDnS7_EEOT_OT0_, symObjAddr: 0x158F4, symBinAddr: 0x10001709C, symSize: 0x3C }
  - { offsetInCU: 0x43A77, offset: 0x43A77, size: 0x8, addend: 0x0, symName: __ZNSt3__114__split_bufferIP8SSS_NodeIfERNS_9allocatorIS3_EEE7__allocB7v160006Ev, symObjAddr: 0x15970, symBinAddr: 0x100017118, symSize: 0x28 }
  - { offsetInCU: 0x43A9D, offset: 0x43A9D, size: 0x8, addend: 0x0, symName: __ZNSt3__114__split_bufferIP8SSS_NodeIfERNS_9allocatorIS3_EEE9__end_capB7v160006Ev, symObjAddr: 0x15998, symBinAddr: 0x100017140, symSize: 0x28 }
  - { offsetInCU: 0x43AC3, offset: 0x43AC3, size: 0x8, addend: 0x0, symName: __ZNSt3__117__compressed_pairIPP8SSS_NodeIfERNS_9allocatorIS3_EEEC2B7v160006IDnS7_EEOT_OT0_, symObjAddr: 0x159C0, symBinAddr: 0x100017168, symSize: 0x48 }
  - { offsetInCU: 0x43B1B, offset: 0x43B1B, size: 0x8, addend: 0x0, symName: __ZNSt3__122__compressed_pair_elemIRNS_9allocatorIP8SSS_NodeIfEEELi1ELb0EEC2B7v160006IS6_vEEOT_, symObjAddr: 0x15A08, symBinAddr: 0x1000171B0, symSize: 0x20 }
  - { offsetInCU: 0x43B5D, offset: 0x43B5D, size: 0x8, addend: 0x0, symName: __ZNSt3__19allocatorIP8SSS_NodeIfEE8allocateB7v160006Em, symObjAddr: 0x15A28, symBinAddr: 0x1000171D0, symSize: 0x58 }
  - { offsetInCU: 0x43B91, offset: 0x43B91, size: 0x8, addend: 0x0, symName: __ZNSt3__117__compressed_pairIPP8SSS_NodeIfERNS_9allocatorIS3_EEE6secondB7v160006Ev, symObjAddr: 0x15A80, symBinAddr: 0x100017228, symSize: 0x28 }
  - { offsetInCU: 0x43BB7, offset: 0x43BB7, size: 0x8, addend: 0x0, symName: __ZNSt3__122__compressed_pair_elemIRNS_9allocatorIP8SSS_NodeIfEEELi1ELb0EE5__getB7v160006Ev, symObjAddr: 0x15AA8, symBinAddr: 0x100017250, symSize: 0x18 }
  - { offsetInCU: 0x43BDD, offset: 0x43BDD, size: 0x8, addend: 0x0, symName: __ZNSt3__117__compressed_pairIPP8SSS_NodeIfERNS_9allocatorIS3_EEE5firstB7v160006Ev, symObjAddr: 0x15AC0, symBinAddr: 0x100017268, symSize: 0x24 }
  - { offsetInCU: 0x43C03, offset: 0x43C03, size: 0x8, addend: 0x0, symName: __ZNSt3__116reverse_iteratorIPP8SSS_NodeIfEEC1B7v160006ES4_, symObjAddr: 0x15B5C, symBinAddr: 0x100017304, symSize: 0x34 }
  - { offsetInCU: 0x43C3B, offset: 0x43C3B, size: 0x8, addend: 0x0, symName: __ZNKSt3__116reverse_iteratorIPP8SSS_NodeIfEE4baseB7v160006Ev, symObjAddr: 0x15B90, symBinAddr: 0x100017338, symSize: 0x18 }
  - { offsetInCU: 0x43C61, offset: 0x43C61, size: 0x8, addend: 0x0, symName: __ZNKSt3__16vectorIP8SSS_NodeIfENS_9allocatorIS3_EEE14__annotate_newB7v160006Em, symObjAddr: 0x15BE4, symBinAddr: 0x10001738C, symSize: 0xAC }
  - { offsetInCU: 0x43CB2, offset: 0x43CB2, size: 0x8, addend: 0x0, symName: __ZNKSt3__111__move_loopINS_17_ClassicAlgPolicyEEclB7v160006INS_16reverse_iteratorIPP8SSS_NodeIfEEES9_S9_EENS_4pairIT_T1_EESB_T0_SC_, symObjAddr: 0x15F58, symBinAddr: 0x100017700, symSize: 0xA0 }
  - { offsetInCU: 0x43D1D, offset: 0x43D1D, size: 0x8, addend: 0x0, symName: __ZNSt3__119__unwrap_range_implINS_16reverse_iteratorIPP8SSS_NodeIfEEES6_E8__unwrapB7v160006ES6_S6_, symObjAddr: 0x16144, symBinAddr: 0x1000178EC, symSize: 0x84 }
  - { offsetInCU: 0x43D54, offset: 0x43D54, size: 0x8, addend: 0x0, symName: __ZNSt3__14pairINS_16reverse_iteratorIPP8SSS_NodeIfEEES6_EC1B7v160006IS6_S6_LPv0EEEOT_OT0_, symObjAddr: 0x161C8, symBinAddr: 0x100017970, symSize: 0x3C }
  - { offsetInCU: 0x43DB2, offset: 0x43DB2, size: 0x8, addend: 0x0, symName: __ZNSt3__14pairINS_16reverse_iteratorIPP8SSS_NodeIfEEES6_EC2B7v160006IS6_S6_LPv0EEEOT_OT0_, symObjAddr: 0x16204, symBinAddr: 0x1000179AC, symSize: 0x34 }
  - { offsetInCU: 0x43E10, offset: 0x43E10, size: 0x8, addend: 0x0, symName: __ZNSt3__18_IterOpsINS_17_ClassicAlgPolicyEE11__iter_moveB7v160006IRNS_16reverse_iteratorIPP8SSS_NodeIfEEEEENS_9enable_ifIXsr12is_referenceIDTdeclsr3stdE7declvalIRT_EEEEE5valueEDTclsr3stdE4movedeclsr3stdE7declvalISD_EEEEE4typeEOSC_, symObjAddr: 0x16280, symBinAddr: 0x100017A28, symSize: 0x28 }
  - { offsetInCU: 0x43E3C, offset: 0x43E3C, size: 0x8, addend: 0x0, symName: __ZNKSt3__116reverse_iteratorIPP8SSS_NodeIfEEdeB7v160006Ev, symObjAddr: 0x162A8, symBinAddr: 0x100017A50, symSize: 0x28 }
  - { offsetInCU: 0x43E70, offset: 0x43E70, size: 0x8, addend: 0x0, symName: __ZNSt3__116reverse_iteratorIPP8SSS_NodeIfEEppB7v160006Ev, symObjAddr: 0x162D0, symBinAddr: 0x100017A78, symSize: 0x20 }
  - { offsetInCU: 0x43E96, offset: 0x43E96, size: 0x8, addend: 0x0, symName: __ZNSt3__18_IterOpsINS_17_ClassicAlgPolicyEE25__validate_iter_referenceB7v160006IRNS_16reverse_iteratorIPP8SSS_NodeIfEEEEEvv, symObjAddr: 0x162F0, symBinAddr: 0x100017A98, symSize: 0x4 }
  - { offsetInCU: 0x43EB4, offset: 0x43EB4, size: 0x8, addend: 0x0, symName: __ZNSt3__118__unwrap_iter_implINS_16reverse_iteratorIPP8SSS_NodeIfEEELb0EE8__unwrapB7v160006ES6_, symObjAddr: 0x162F4, symBinAddr: 0x100017A9C, symSize: 0x24 }
  - { offsetInCU: 0x43ED7, offset: 0x43ED7, size: 0x8, addend: 0x0, symName: __ZNSt3__119__unwrap_range_implINS_16reverse_iteratorIPP8SSS_NodeIfEEES6_E8__rewrapB7v160006ES6_S6_, symObjAddr: 0x16318, symBinAddr: 0x100017AC0, symSize: 0x5C }
  - { offsetInCU: 0x43F08, offset: 0x43F08, size: 0x8, addend: 0x0, symName: __ZNSt3__118__unwrap_iter_implINS_16reverse_iteratorIPP8SSS_NodeIfEEELb0EE8__rewrapB7v160006ES6_S6_, symObjAddr: 0x16374, symBinAddr: 0x100017B1C, symSize: 0x2C }
  - { offsetInCU: 0x43F35, offset: 0x43F35, size: 0x8, addend: 0x0, symName: __ZNSt3__116reverse_iteratorIPP8SSS_NodeIfEEC2B7v160006ES4_, symObjAddr: 0x163A0, symBinAddr: 0x100017B48, symSize: 0x28 }
  - { offsetInCU: 0x43F6D, offset: 0x43F6D, size: 0x8, addend: 0x0, symName: __ZNSt3__114__split_bufferIP8SSS_NodeIfERNS_9allocatorIS3_EEED2Ev, symObjAddr: 0x163C8, symBinAddr: 0x100017B70, symSize: 0x8C }
  - { offsetInCU: 0x43F99, offset: 0x43F99, size: 0x8, addend: 0x0, symName: __ZNSt3__114__split_bufferIP8SSS_NodeIfERNS_9allocatorIS3_EEE5clearB7v160006Ev, symObjAddr: 0x16454, symBinAddr: 0x100017BFC, symSize: 0x28 }
  - { offsetInCU: 0x43FBF, offset: 0x43FBF, size: 0x8, addend: 0x0, symName: __ZNKSt3__114__split_bufferIP8SSS_NodeIfERNS_9allocatorIS3_EEE8capacityB7v160006Ev, symObjAddr: 0x1647C, symBinAddr: 0x100017C24, symSize: 0x40 }
  - { offsetInCU: 0x43FE5, offset: 0x43FE5, size: 0x8, addend: 0x0, symName: __ZNSt3__114__split_bufferIP8SSS_NodeIfERNS_9allocatorIS3_EEE17__destruct_at_endB7v160006EPS3_, symObjAddr: 0x164BC, symBinAddr: 0x100017C64, symSize: 0x2C }
  - { offsetInCU: 0x44019, offset: 0x44019, size: 0x8, addend: 0x0, symName: __ZNSt3__114__split_bufferIP8SSS_NodeIfERNS_9allocatorIS3_EEE17__destruct_at_endB7v160006EPS3_NS_17integral_constantIbLb0EEE, symObjAddr: 0x164E8, symBinAddr: 0x100017C90, symSize: 0x80 }
  - { offsetInCU: 0x44059, offset: 0x44059, size: 0x8, addend: 0x0, symName: __ZNKSt3__114__split_bufferIP8SSS_NodeIfERNS_9allocatorIS3_EEE9__end_capB7v160006Ev, symObjAddr: 0x16568, symBinAddr: 0x100017D10, symSize: 0x28 }
  - { offsetInCU: 0x4407F, offset: 0x4407F, size: 0x8, addend: 0x0, symName: __ZNKSt3__117__compressed_pairIPP8SSS_NodeIfERNS_9allocatorIS3_EEE5firstB7v160006Ev, symObjAddr: 0x16590, symBinAddr: 0x100017D38, symSize: 0x24 }
  - { offsetInCU: 0x440A5, offset: 0x440A5, size: 0x8, addend: 0x0, symName: __ZNSt3__18functionIFmP8SSS_NodeIfEmEEC2ERKS5_, symObjAddr: 0x165B4, symBinAddr: 0x100017D5C, symSize: 0x34 }
  - { offsetInCU: 0x440E0, offset: 0x440E0, size: 0x8, addend: 0x0, symName: __ZNSt3__110__function12__value_funcIFmP8SSS_NodeIfEmEEC1B7v160006ERKS6_, symObjAddr: 0x165E8, symBinAddr: 0x100017D90, symSize: 0x34 }
  - { offsetInCU: 0x44119, offset: 0x44119, size: 0x8, addend: 0x0, symName: __ZNSt3__110__function12__value_funcIFmP8SSS_NodeIfEmEEC2B7v160006ERKS6_, symObjAddr: 0x1661C, symBinAddr: 0x100017DC4, symSize: 0xC0 }
  - { offsetInCU: 0x44152, offset: 0x44152, size: 0x8, addend: 0x0, symName: __ZN16CoreAudioBackendIfE7ca_openENSt3__112basic_stringIcNS1_11char_traitsIcEENS1_9allocatorIcEEEE, symObjAddr: 0x166DC, symBinAddr: 0x100017E84, symSize: 0x450 }
  - { offsetInCU: 0x44281, offset: 0x44281, size: 0x8, addend: 0x0, symName: __ZNSt3__16vectorIjNS_9allocatorIjEEEC1Em, symObjAddr: 0x16B2C, symBinAddr: 0x1000182D4, symSize: 0x34 }
  - { offsetInCU: 0x442BC, offset: 0x442BC, size: 0x8, addend: 0x0, symName: __ZNSt3__16vectorIjNS_9allocatorIjEEEaSB7v160006EOS3_, symObjAddr: 0x16B60, symBinAddr: 0x100018308, symSize: 0x34 }
  - { offsetInCU: 0x442F3, offset: 0x442F3, size: 0x8, addend: 0x0, symName: __ZNSt3__16vectorIjNS_9allocatorIjEEED1B7v160006Ev, symObjAddr: 0x16B94, symBinAddr: 0x10001833C, symSize: 0x2C }
  - { offsetInCU: 0x4431D, offset: 0x4431D, size: 0x8, addend: 0x0, symName: __ZNSt3__16vectorIjNS_9allocatorIjEEE4dataB7v160006Ev, symObjAddr: 0x16BC0, symBinAddr: 0x100018368, symSize: 0x28 }
  - { offsetInCU: 0x44343, offset: 0x44343, size: 0x8, addend: 0x0, symName: __ZN16CoreAudioBackendIfE6IOProcEjPK14AudioTimeStampPK15AudioBufferListS3_PS4_S3_Pv, symObjAddr: 0x16BE8, symBinAddr: 0x100018390, symSize: 0xCC }
  - { offsetInCU: 0x443F2, offset: 0x443F2, size: 0x8, addend: 0x0, symName: __ZNSt3__16vectorIjNS_9allocatorIjEEEC2Em, symObjAddr: 0x16CB4, symBinAddr: 0x10001845C, symSize: 0xDC }
  - { offsetInCU: 0x44442, offset: 0x44442, size: 0x8, addend: 0x0, symName: __ZNSt3__16vectorIjNS_9allocatorIjEEE16__destroy_vectorC1ERS3_, symObjAddr: 0x16DD0, symBinAddr: 0x100018578, symSize: 0x34 }
  - { offsetInCU: 0x4447B, offset: 0x4447B, size: 0x8, addend: 0x0, symName: __ZNSt3__16vectorIjNS_9allocatorIjEEE11__vallocateB7v160006Em, symObjAddr: 0x16E04, symBinAddr: 0x1000185AC, symSize: 0xAC }
  - { offsetInCU: 0x444BF, offset: 0x444BF, size: 0x8, addend: 0x0, symName: __ZNSt3__16vectorIjNS_9allocatorIjEEE18__construct_at_endEm, symObjAddr: 0x16EB0, symBinAddr: 0x100018658, symSize: 0xC8 }
  - { offsetInCU: 0x44532, offset: 0x44532, size: 0x8, addend: 0x0, symName: __ZNSt3__128__exception_guard_exceptionsINS_6vectorIjNS_9allocatorIjEEE16__destroy_vectorEE10__completeB7v160006Ev, symObjAddr: 0x16F78, symBinAddr: 0x100018720, symSize: 0x1C }
  - { offsetInCU: 0x44558, offset: 0x44558, size: 0x8, addend: 0x0, symName: __ZNSt3__128__exception_guard_exceptionsINS_6vectorIjNS_9allocatorIjEEE16__destroy_vectorEED1B7v160006Ev, symObjAddr: 0x16F94, symBinAddr: 0x10001873C, symSize: 0x2C }
  - { offsetInCU: 0x44582, offset: 0x44582, size: 0x8, addend: 0x0, symName: __ZNSt3__128__exception_guard_exceptionsINS_6vectorIjNS_9allocatorIjEEE16__destroy_vectorEEC1B7v160006ES5_, symObjAddr: 0x16FC0, symBinAddr: 0x100018768, symSize: 0x34 }
  - { offsetInCU: 0x445BA, offset: 0x445BA, size: 0x8, addend: 0x0, symName: __ZNSt3__128__exception_guard_exceptionsINS_6vectorIjNS_9allocatorIjEEE16__destroy_vectorEEC2B7v160006ES5_, symObjAddr: 0x16FF4, symBinAddr: 0x10001879C, symSize: 0x24 }
  - { offsetInCU: 0x445F2, offset: 0x445F2, size: 0x8, addend: 0x0, symName: __ZNSt3__16vectorIjNS_9allocatorIjEEE16__destroy_vectorC2ERS3_, symObjAddr: 0x17018, symBinAddr: 0x1000187C0, symSize: 0x20 }
  - { offsetInCU: 0x4462B, offset: 0x4462B, size: 0x8, addend: 0x0, symName: __ZNKSt3__16vectorIjNS_9allocatorIjEEE8max_sizeEv, symObjAddr: 0x17038, symBinAddr: 0x1000187E0, symSize: 0x60 }
  - { offsetInCU: 0x44653, offset: 0x44653, size: 0x8, addend: 0x0, symName: __ZNKSt3__16vectorIjNS_9allocatorIjEEE20__throw_length_errorB7v160006Ev, symObjAddr: 0x17098, symBinAddr: 0x100018840, symSize: 0x1C }
  - { offsetInCU: 0x44679, offset: 0x44679, size: 0x8, addend: 0x0, symName: __ZNSt3__16vectorIjNS_9allocatorIjEEE7__allocB7v160006Ev, symObjAddr: 0x170F4, symBinAddr: 0x10001889C, symSize: 0x28 }
  - { offsetInCU: 0x4469F, offset: 0x4469F, size: 0x8, addend: 0x0, symName: __ZNSt3__16vectorIjNS_9allocatorIjEEE9__end_capB7v160006Ev, symObjAddr: 0x1711C, symBinAddr: 0x1000188C4, symSize: 0x28 }
  - { offsetInCU: 0x446C5, offset: 0x446C5, size: 0x8, addend: 0x0, symName: __ZNKSt3__16vectorIjNS_9allocatorIjEEE14__annotate_newB7v160006Em, symObjAddr: 0x17144, symBinAddr: 0x1000188EC, symSize: 0xAC }
  - { offsetInCU: 0x44705, offset: 0x44705, size: 0x8, addend: 0x0, symName: __ZNSt3__116allocator_traitsINS_9allocatorIjEEE8max_sizeB7v160006IS2_vvEEmRKS2_, symObjAddr: 0x171F0, symBinAddr: 0x100018998, symSize: 0x28 }
  - { offsetInCU: 0x44731, offset: 0x44731, size: 0x8, addend: 0x0, symName: __ZNKSt3__16vectorIjNS_9allocatorIjEEE7__allocB7v160006Ev, symObjAddr: 0x17218, symBinAddr: 0x1000189C0, symSize: 0x28 }
  - { offsetInCU: 0x44757, offset: 0x44757, size: 0x8, addend: 0x0, symName: __ZNKSt3__117__compressed_pairIPjNS_9allocatorIjEEE6secondB7v160006Ev, symObjAddr: 0x17240, symBinAddr: 0x1000189E8, symSize: 0x24 }
  - { offsetInCU: 0x4477D, offset: 0x4477D, size: 0x8, addend: 0x0, symName: __ZNKSt3__122__compressed_pair_elemINS_9allocatorIjEELi1ELb1EE5__getB7v160006Ev, symObjAddr: 0x17264, symBinAddr: 0x100018A0C, symSize: 0x14 }
  - { offsetInCU: 0x447A3, offset: 0x447A3, size: 0x8, addend: 0x0, symName: __ZNSt3__19allocatorIjE8allocateB7v160006Em, symObjAddr: 0x17278, symBinAddr: 0x100018A20, symSize: 0x58 }
  - { offsetInCU: 0x447D7, offset: 0x447D7, size: 0x8, addend: 0x0, symName: __ZNSt3__117__compressed_pairIPjNS_9allocatorIjEEE6secondB7v160006Ev, symObjAddr: 0x172D0, symBinAddr: 0x100018A78, symSize: 0x24 }
  - { offsetInCU: 0x447FD, offset: 0x447FD, size: 0x8, addend: 0x0, symName: __ZNSt3__122__compressed_pair_elemINS_9allocatorIjEELi1ELb1EE5__getB7v160006Ev, symObjAddr: 0x172F4, symBinAddr: 0x100018A9C, symSize: 0x14 }
  - { offsetInCU: 0x44823, offset: 0x44823, size: 0x8, addend: 0x0, symName: __ZNSt3__117__compressed_pairIPjNS_9allocatorIjEEE5firstB7v160006Ev, symObjAddr: 0x17308, symBinAddr: 0x100018AB0, symSize: 0x24 }
  - { offsetInCU: 0x44849, offset: 0x44849, size: 0x8, addend: 0x0, symName: __ZNSt3__122__compressed_pair_elemIPjLi0ELb0EE5__getB7v160006Ev, symObjAddr: 0x1732C, symBinAddr: 0x100018AD4, symSize: 0x14 }
  - { offsetInCU: 0x4486F, offset: 0x4486F, size: 0x8, addend: 0x0, symName: __ZNKSt3__16vectorIjNS_9allocatorIjEEE31__annotate_contiguous_containerB7v160006EPKvS5_S5_S5_, symObjAddr: 0x17340, symBinAddr: 0x100018AE8, symSize: 0x20 }
  - { offsetInCU: 0x448C5, offset: 0x448C5, size: 0x8, addend: 0x0, symName: __ZNKSt3__16vectorIjNS_9allocatorIjEEE4dataB7v160006Ev, symObjAddr: 0x17360, symBinAddr: 0x100018B08, symSize: 0x28 }
  - { offsetInCU: 0x448EB, offset: 0x448EB, size: 0x8, addend: 0x0, symName: __ZNKSt3__16vectorIjNS_9allocatorIjEEE8capacityB7v160006Ev, symObjAddr: 0x17388, symBinAddr: 0x100018B30, symSize: 0x40 }
  - { offsetInCU: 0x44911, offset: 0x44911, size: 0x8, addend: 0x0, symName: __ZNKSt3__16vectorIjNS_9allocatorIjEEE9__end_capB7v160006Ev, symObjAddr: 0x173DC, symBinAddr: 0x100018B84, symSize: 0x28 }
  - { offsetInCU: 0x44937, offset: 0x44937, size: 0x8, addend: 0x0, symName: __ZNKSt3__117__compressed_pairIPjNS_9allocatorIjEEE5firstB7v160006Ev, symObjAddr: 0x17404, symBinAddr: 0x100018BAC, symSize: 0x24 }
  - { offsetInCU: 0x4495D, offset: 0x4495D, size: 0x8, addend: 0x0, symName: __ZNKSt3__122__compressed_pair_elemIPjLi0ELb0EE5__getB7v160006Ev, symObjAddr: 0x17428, symBinAddr: 0x100018BD0, symSize: 0x14 }
  - { offsetInCU: 0x4499E, offset: 0x4499E, size: 0x8, addend: 0x0, symName: __ZNSt3__16vectorIjNS_9allocatorIjEEE21_ConstructTransactionC1B7v160006ERS3_m, symObjAddr: 0x1743C, symBinAddr: 0x100018BE4, symSize: 0x3C }
  - { offsetInCU: 0x449E6, offset: 0x449E6, size: 0x8, addend: 0x0, symName: __ZNSt3__116allocator_traitsINS_9allocatorIjEEE9constructB7v160006IjJEvvEEvRS2_PT_DpOT0_, symObjAddr: 0x17478, symBinAddr: 0x100018C20, symSize: 0x28 }
  - { offsetInCU: 0x44A26, offset: 0x44A26, size: 0x8, addend: 0x0, symName: __ZNSt3__16vectorIjNS_9allocatorIjEEE21_ConstructTransactionD1B7v160006Ev, symObjAddr: 0x174A0, symBinAddr: 0x100018C48, symSize: 0x2C }
  - { offsetInCU: 0x44A50, offset: 0x44A50, size: 0x8, addend: 0x0, symName: __ZNSt3__16vectorIjNS_9allocatorIjEEE21_ConstructTransactionC2B7v160006ERS3_m, symObjAddr: 0x174CC, symBinAddr: 0x100018C74, symSize: 0x44 }
  - { offsetInCU: 0x44A98, offset: 0x44A98, size: 0x8, addend: 0x0, symName: __ZNSt3__16vectorIjNS_9allocatorIjEEE21_ConstructTransactionD2B7v160006Ev, symObjAddr: 0x17530, symBinAddr: 0x100018CD8, symSize: 0x20 }
  - { offsetInCU: 0x44AC2, offset: 0x44AC2, size: 0x8, addend: 0x0, symName: __ZNSt3__128__exception_guard_exceptionsINS_6vectorIjNS_9allocatorIjEEE16__destroy_vectorEED2B7v160006Ev, symObjAddr: 0x17550, symBinAddr: 0x100018CF8, symSize: 0x50 }
  - { offsetInCU: 0x44AEC, offset: 0x44AEC, size: 0x8, addend: 0x0, symName: __ZNSt3__16vectorIjNS_9allocatorIjEEE16__destroy_vectorclB7v160006Ev, symObjAddr: 0x175A0, symBinAddr: 0x100018D48, symSize: 0x9C }
  - { offsetInCU: 0x44B12, offset: 0x44B12, size: 0x8, addend: 0x0, symName: __ZNKSt3__16vectorIjNS_9allocatorIjEEE17__annotate_deleteB7v160006Ev, symObjAddr: 0x1763C, symBinAddr: 0x100018DE4, symSize: 0xB8 }
  - { offsetInCU: 0x44B38, offset: 0x44B38, size: 0x8, addend: 0x0, symName: __ZNSt3__16vectorIjNS_9allocatorIjEEE7__clearB7v160006Ev, symObjAddr: 0x17704, symBinAddr: 0x100018EAC, symSize: 0x28 }
  - { offsetInCU: 0x44B5E, offset: 0x44B5E, size: 0x8, addend: 0x0, symName: __ZNSt3__116allocator_traitsINS_9allocatorIjEEE10deallocateB7v160006ERS2_Pjm, symObjAddr: 0x1772C, symBinAddr: 0x100018ED4, symSize: 0x34 }
  - { offsetInCU: 0x44BA0, offset: 0x44BA0, size: 0x8, addend: 0x0, symName: __ZNKSt3__16vectorIjNS_9allocatorIjEEE4sizeB7v160006Ev, symObjAddr: 0x17760, symBinAddr: 0x100018F08, symSize: 0x28 }
  - { offsetInCU: 0x44BC6, offset: 0x44BC6, size: 0x8, addend: 0x0, symName: __ZNSt3__16vectorIjNS_9allocatorIjEEE22__base_destruct_at_endB7v160006EPj, symObjAddr: 0x17788, symBinAddr: 0x100018F30, symSize: 0x8C }
  - { offsetInCU: 0x44C0A, offset: 0x44C0A, size: 0x8, addend: 0x0, symName: __ZNSt3__116allocator_traitsINS_9allocatorIjEEE7destroyB7v160006IjvvEEvRS2_PT_, symObjAddr: 0x17814, symBinAddr: 0x100018FBC, symSize: 0x28 }
  - { offsetInCU: 0x44C45, offset: 0x44C45, size: 0x8, addend: 0x0, symName: __ZNSt3__19allocatorIjE10deallocateB7v160006EPjm, symObjAddr: 0x17870, symBinAddr: 0x100019018, symSize: 0x40 }
  - { offsetInCU: 0x44C87, offset: 0x44C87, size: 0x8, addend: 0x0, symName: __ZNSt3__16vectorIjNS_9allocatorIjEEE13__move_assignERS3_NS_17integral_constantIbLb1EEE, symObjAddr: 0x178B0, symBinAddr: 0x100019058, symSize: 0xAC }
  - { offsetInCU: 0x44CCA, offset: 0x44CCA, size: 0x8, addend: 0x0, symName: __ZNSt3__16vectorIjNS_9allocatorIjEEE13__vdeallocateEv, symObjAddr: 0x1795C, symBinAddr: 0x100019104, symSize: 0x8C }
  - { offsetInCU: 0x44CF2, offset: 0x44CF2, size: 0x8, addend: 0x0, symName: __ZNSt3__16vectorIjNS_9allocatorIjEEE19__move_assign_allocB7v160006ERS3_, symObjAddr: 0x179E8, symBinAddr: 0x100019190, symSize: 0x2C }
  - { offsetInCU: 0x44D27, offset: 0x44D27, size: 0x8, addend: 0x0, symName: __ZNSt3__16vectorIjNS_9allocatorIjEEE5clearB7v160006Ev, symObjAddr: 0x17A28, symBinAddr: 0x1000191D0, symSize: 0x54 }
  - { offsetInCU: 0x44D5C, offset: 0x44D5C, size: 0x8, addend: 0x0, symName: __ZNKSt3__16vectorIjNS_9allocatorIjEEE17__annotate_shrinkB7v160006Em, symObjAddr: 0x17A7C, symBinAddr: 0x100019224, symSize: 0xB4 }
  - { offsetInCU: 0x44D91, offset: 0x44D91, size: 0x8, addend: 0x0, symName: __ZNSt3__16vectorIjNS_9allocatorIjEEE19__move_assign_allocB7v160006ERS3_NS_17integral_constantIbLb1EEE, symObjAddr: 0x17B40, symBinAddr: 0x1000192E8, symSize: 0x38 }
  - { offsetInCU: 0x44DD2, offset: 0x44DD2, size: 0x8, addend: 0x0, symName: __ZNSt3__16vectorIjNS_9allocatorIjEEED2B7v160006Ev, symObjAddr: 0x17B78, symBinAddr: 0x100019320, symSize: 0x44 }
  - { offsetInCU: 0x44DFC, offset: 0x44DFC, size: 0x8, addend: 0x0, symName: __ZN9SSS_MixerIfE19sample_output_nodesEv, symObjAddr: 0x17BBC, symBinAddr: 0x100019364, symSize: 0xF8 }
  - { offsetInCU: 0x44E75, offset: 0x44E75, size: 0x8, addend: 0x0, symName: __ZN16CoreAudioBackendIfE6renderEmP15AudioBufferListPK14AudioTimeStamp, symObjAddr: 0x17CB4, symBinAddr: 0x10001945C, symSize: 0x58 }
  - { offsetInCU: 0x44EE1, offset: 0x44EE1, size: 0x8, addend: 0x0, symName: __ZN14SSS_ThreadPool14get_run_statusEv, symObjAddr: 0x17D0C, symBinAddr: 0x1000194B4, symSize: 0x30 }
  - { offsetInCU: 0x44F07, offset: 0x44F07, size: 0x8, addend: 0x0, symName: __ZN14SSS_ThreadPool10signal_allEv, symObjAddr: 0x17DCC, symBinAddr: 0x100019574, symSize: 0x2C }
  - { offsetInCU: 0x44F2D, offset: 0x44F2D, size: 0x8, addend: 0x0, symName: __ZNSt3__16vectorIP8SSS_NodeIfENS_9allocatorIS3_EEE5beginB7v160006Ev, symObjAddr: 0x17DF8, symBinAddr: 0x1000195A0, symSize: 0x30 }
  - { offsetInCU: 0x44F55, offset: 0x44F55, size: 0x8, addend: 0x0, symName: __ZNSt3__16vectorIP8SSS_NodeIfENS_9allocatorIS3_EEE3endB7v160006Ev, symObjAddr: 0x17E28, symBinAddr: 0x1000195D0, symSize: 0x30 }
  - { offsetInCU: 0x44F7D, offset: 0x44F7D, size: 0x8, addend: 0x0, symName: __ZNKSt3__111__wrap_iterIPP8SSS_NodeIfEEdeB7v160006Ev, symObjAddr: 0x17E8C, symBinAddr: 0x100019634, symSize: 0x18 }
  - { offsetInCU: 0x44FA3, offset: 0x44FA3, size: 0x8, addend: 0x0, symName: __ZN8SSS_NodeIfE6run_fnEv, symObjAddr: 0x17ED0, symBinAddr: 0x100019678, symSize: 0x2C }
  - { offsetInCU: 0x44FC9, offset: 0x44FC9, size: 0x8, addend: 0x0, symName: __ZNSt3__111__wrap_iterIPP8SSS_NodeIfEEppB7v160006Ev, symObjAddr: 0x17EFC, symBinAddr: 0x1000196A4, symSize: 0x20 }
  - { offsetInCU: 0x44FEF, offset: 0x44FEF, size: 0x8, addend: 0x0, symName: __ZNKSt3__113__atomic_baseIbLb0EE4loadB7v160006ENS_12memory_orderE, symObjAddr: 0x17F1C, symBinAddr: 0x1000196C4, symSize: 0x30 }
  - { offsetInCU: 0x45024, offset: 0x45024, size: 0x8, addend: 0x0, symName: __ZNSt3__113__atomic_baseIbLb0EE5storeB7v160006EbNS_12memory_orderE, symObjAddr: 0x17FD0, symBinAddr: 0x100019778, symSize: 0x40 }
  - { offsetInCU: 0x4506E, offset: 0x4506E, size: 0x8, addend: 0x0, symName: __ZNSt3__15dequeINS_6threadENS_9allocatorIS1_EEE12emplace_backIJZN14SSS_ThreadPool13start_threadsEjEUlvE_EEERS1_DpOT_, symObjAddr: 0x18010, symBinAddr: 0x1000197B8, symSize: 0xC4 }
  - { offsetInCU: 0x450BF, offset: 0x450BF, size: 0x8, addend: 0x0, symName: __ZNKSt3__15dequeINS_6threadENS_9allocatorIS1_EEE12__back_spareB7v160006Ev, symObjAddr: 0x18164, symBinAddr: 0x10001990C, symSize: 0x54 }
  - { offsetInCU: 0x450E5, offset: 0x450E5, size: 0x8, addend: 0x0, symName: __ZNSt3__15dequeINS_6threadENS_9allocatorIS1_EEE19__add_back_capacityEv, symObjAddr: 0x181B8, symBinAddr: 0x100019960, symSize: 0x314 }
  - { offsetInCU: 0x4519D, offset: 0x4519D, size: 0x8, addend: 0x0, symName: __ZNSt3__116allocator_traitsINS_9allocatorINS_6threadEEEE9constructB7v160006IS2_JZN14SSS_ThreadPool13start_threadsEjEUlvE_EvvEEvRS3_PT_DpOT0_, symObjAddr: 0x184CC, symBinAddr: 0x100019C74, symSize: 0x30 }
  - { offsetInCU: 0x451F2, offset: 0x451F2, size: 0x8, addend: 0x0, symName: __ZNSt3__116__deque_iteratorINS_6threadEPS1_RS1_PS2_lLl512EEmmB7v160006Ev, symObjAddr: 0x184FC, symBinAddr: 0x100019CA4, symSize: 0x68 }
  - { offsetInCU: 0x45218, offset: 0x45218, size: 0x8, addend: 0x0, symName: __ZNKSt3__15dequeINS_6threadENS_9allocatorIS1_EEE10__capacityB7v160006Ev, symObjAddr: 0x18564, symBinAddr: 0x100019D0C, symSize: 0x60 }
  - { offsetInCU: 0x4523E, offset: 0x4523E, size: 0x8, addend: 0x0, symName: __ZNKSt3__15dequeINS_6threadENS_9allocatorIS1_EEE13__front_spareB7v160006Ev, symObjAddr: 0x185C4, symBinAddr: 0x100019D6C, symSize: 0x18 }
  - { offsetInCU: 0x45264, offset: 0x45264, size: 0x8, addend: 0x0, symName: __ZNSt3__114__split_bufferIPNS_6threadENS_9allocatorIS2_EEE9push_backB7v160006ERKS2_, symObjAddr: 0x185DC, symBinAddr: 0x100019D84, symSize: 0x260 }
  - { offsetInCU: 0x452DD, offset: 0x452DD, size: 0x8, addend: 0x0, symName: __ZNKSt3__114__split_bufferIPNS_6threadENS_9allocatorIS2_EEE12__back_spareB7v160006Ev, symObjAddr: 0x1883C, symBinAddr: 0x100019FE4, symSize: 0x40 }
  - { offsetInCU: 0x45303, offset: 0x45303, size: 0x8, addend: 0x0, symName: __ZNSt3__114__split_bufferIPNS_6threadENS_9allocatorIS2_EEE9push_backEOS2_, symObjAddr: 0x1887C, symBinAddr: 0x10001A024, symSize: 0x260 }
  - { offsetInCU: 0x4537C, offset: 0x4537C, size: 0x8, addend: 0x0, symName: __ZNSt3__116allocator_traitsINS_9allocatorINS_6threadEEEE8allocateB7v160006ERS3_m, symObjAddr: 0x18ADC, symBinAddr: 0x10001A284, symSize: 0x2C }
  - { offsetInCU: 0x453AF, offset: 0x453AF, size: 0x8, addend: 0x0, symName: __ZNSt3__114__split_bufferIPNS_6threadENS_9allocatorIS2_EEE10push_frontEOS2_, symObjAddr: 0x18B08, symBinAddr: 0x10001A2B0, symSize: 0x25C }
  - { offsetInCU: 0x45428, offset: 0x45428, size: 0x8, addend: 0x0, symName: __ZNSt3__114__split_bufferIPNS_6threadERNS_9allocatorIS2_EEEC1EmmS5_, symObjAddr: 0x18D64, symBinAddr: 0x10001A50C, symSize: 0x44 }
  - { offsetInCU: 0x45483, offset: 0x45483, size: 0x8, addend: 0x0, symName: __ZNSt3__122__allocator_destructorINS_9allocatorINS_6threadEEEEC1B7v160006ERS3_m, symObjAddr: 0x18DA8, symBinAddr: 0x10001A550, symSize: 0x3C }
  - { offsetInCU: 0x45554, offset: 0x45554, size: 0x8, addend: 0x0, symName: __ZNSt3__110unique_ptrIPNS_6threadENS_22__allocator_destructorINS_9allocatorIS1_EEEEEC1B7v160006ILb1EvEES2_NS_16__dependent_typeINS_27__unique_ptr_deleter_sfinaeIS6_EEXT_EE20__good_rval_ref_typeE, symObjAddr: 0x18DE4, symBinAddr: 0x10001A58C, symSize: 0x3C }
  - { offsetInCU: 0x455A5, offset: 0x455A5, size: 0x8, addend: 0x0, symName: __ZNSt3__114__split_bufferIPNS_6threadERNS_9allocatorIS2_EEE9push_backEOS2_, symObjAddr: 0x18E20, symBinAddr: 0x10001A5C8, symSize: 0x260 }
  - { offsetInCU: 0x4561E, offset: 0x4561E, size: 0x8, addend: 0x0, symName: __ZNKSt3__110unique_ptrIPNS_6threadENS_22__allocator_destructorINS_9allocatorIS1_EEEEE3getB7v160006Ev, symObjAddr: 0x19080, symBinAddr: 0x10001A828, symSize: 0x28 }
  - { offsetInCU: 0x45644, offset: 0x45644, size: 0x8, addend: 0x0, symName: __ZNSt3__110unique_ptrIPNS_6threadENS_22__allocator_destructorINS_9allocatorIS1_EEEEE7releaseB7v160006Ev, symObjAddr: 0x190A8, symBinAddr: 0x10001A850, symSize: 0x44 }
  - { offsetInCU: 0x45679, offset: 0x45679, size: 0x8, addend: 0x0, symName: __ZNSt3__114__split_bufferIPNS_6threadERNS_9allocatorIS2_EEE10push_frontERKS2_, symObjAddr: 0x190EC, symBinAddr: 0x10001A894, symSize: 0x25C }
  - { offsetInCU: 0x456F2, offset: 0x456F2, size: 0x8, addend: 0x0, symName: __ZNSt3__114__split_bufferIPNS_6threadENS_9allocatorIS2_EEE9__end_capB7v160006Ev, symObjAddr: 0x19384, symBinAddr: 0x10001AB2C, symSize: 0x28 }
  - { offsetInCU: 0x45718, offset: 0x45718, size: 0x8, addend: 0x0, symName: __ZNSt3__114__split_bufferIPNS_6threadERNS_9allocatorIS2_EEE9__end_capB7v160006Ev, symObjAddr: 0x193AC, symBinAddr: 0x10001AB54, symSize: 0x28 }
  - { offsetInCU: 0x4573E, offset: 0x4573E, size: 0x8, addend: 0x0, symName: __ZNSt3__110unique_ptrIPNS_6threadENS_22__allocator_destructorINS_9allocatorIS1_EEEEED1B7v160006Ev, symObjAddr: 0x193D4, symBinAddr: 0x10001AB7C, symSize: 0x2C }
  - { offsetInCU: 0x45768, offset: 0x45768, size: 0x8, addend: 0x0, symName: __ZNSt3__114__split_bufferIPNS_6threadERNS_9allocatorIS2_EEED1Ev, symObjAddr: 0x19400, symBinAddr: 0x10001ABA8, symSize: 0x2C }
  - { offsetInCU: 0x45794, offset: 0x45794, size: 0x8, addend: 0x0, symName: __ZNSt3__114__split_bufferIPNS_6threadERNS_9allocatorIS2_EEE18__construct_at_endINS_13move_iteratorIPS2_EEEENS_9enable_ifIXsr27__is_cpp17_forward_iteratorIT_EE5valueEvE4typeESC_SC_, symObjAddr: 0x1946C, symBinAddr: 0x10001AC14, symSize: 0xFC }
  - { offsetInCU: 0x457F0, offset: 0x457F0, size: 0x8, addend: 0x0, symName: __ZNSt3__113move_iteratorIPPNS_6threadEEC1B7v160006ES3_, symObjAddr: 0x19568, symBinAddr: 0x10001AD10, symSize: 0x34 }
  - { offsetInCU: 0x45828, offset: 0x45828, size: 0x8, addend: 0x0, symName: __ZNSt3__116allocator_traitsINS_9allocatorIPNS_6threadEEEE9constructB7v160006IS3_JRKS3_EvvEEvRS4_PT_DpOT0_, symObjAddr: 0x1959C, symBinAddr: 0x10001AD44, symSize: 0x30 }
  - { offsetInCU: 0x45899, offset: 0x45899, size: 0x8, addend: 0x0, symName: __ZNKSt3__114__move_trivialclB7v160006IPNS_6threadES3_Li0EEENS_4pairIPT_PT0_EES6_S6_S8_, symObjAddr: 0x19744, symBinAddr: 0x10001AEEC, symSize: 0x48 }
  - { offsetInCU: 0x45901, offset: 0x45901, size: 0x8, addend: 0x0, symName: __ZNSt3__119__unwrap_range_implIPPNS_6threadES3_E8__unwrapB7v160006ES3_S3_, symObjAddr: 0x19850, symBinAddr: 0x10001AFF8, symSize: 0x58 }
  - { offsetInCU: 0x45938, offset: 0x45938, size: 0x8, addend: 0x0, symName: __ZNSt3__14pairIPPNS_6threadES3_EC1B7v160006IS3_S3_LPv0EEEOT_OT0_, symObjAddr: 0x198A8, symBinAddr: 0x10001B050, symSize: 0x3C }
  - { offsetInCU: 0x45996, offset: 0x45996, size: 0x8, addend: 0x0, symName: __ZNSt3__14pairIPPNS_6threadES3_EC2B7v160006IS3_S3_LPv0EEEOT_OT0_, symObjAddr: 0x198E4, symBinAddr: 0x10001B08C, symSize: 0x34 }
  - { offsetInCU: 0x459F4, offset: 0x459F4, size: 0x8, addend: 0x0, symName: __ZNSt3__14pairIPPNS_6threadES3_EC1B7v160006IRS3_S3_LPv0EEEOT_OT0_, symObjAddr: 0x199D4, symBinAddr: 0x10001B17C, symSize: 0x3C }
  - { offsetInCU: 0x45A52, offset: 0x45A52, size: 0x8, addend: 0x0, symName: __ZNSt3__14pairIPPNS_6threadES3_EC2B7v160006IRS3_S3_LPv0EEEOT_OT0_, symObjAddr: 0x19A10, symBinAddr: 0x10001B1B8, symSize: 0x34 }
  - { offsetInCU: 0x45AB0, offset: 0x45AB0, size: 0x8, addend: 0x0, symName: __ZNSt3__118__unwrap_iter_implIPPNS_6threadELb1EE8__unwrapB7v160006ES3_, symObjAddr: 0x19A44, symBinAddr: 0x10001B1EC, symSize: 0x24 }
  - { offsetInCU: 0x45AD3, offset: 0x45AD3, size: 0x8, addend: 0x0, symName: __ZNSt3__119__unwrap_range_implIPPNS_6threadES3_E8__rewrapB7v160006ES3_S3_, symObjAddr: 0x19A68, symBinAddr: 0x10001B210, symSize: 0x2C }
  - { offsetInCU: 0x45B04, offset: 0x45B04, size: 0x8, addend: 0x0, symName: __ZNSt3__118__unwrap_iter_implIPPNS_6threadELb1EE8__rewrapB7v160006ES3_S3_, symObjAddr: 0x19A94, symBinAddr: 0x10001B23C, symSize: 0x50 }
  - { offsetInCU: 0x45B3F, offset: 0x45B3F, size: 0x8, addend: 0x0, symName: __ZNSt3__114__split_bufferIPNS_6threadERNS_9allocatorIS2_EEE21_ConstructTransactionC1B7v160006EPPS2_m, symObjAddr: 0x19B20, symBinAddr: 0x10001B2C8, symSize: 0x3C }
  - { offsetInCU: 0x45B8B, offset: 0x45B8B, size: 0x8, addend: 0x0, symName: __ZNSt3__116allocator_traitsINS_9allocatorIPNS_6threadEEEE9constructB7v160006IS3_JS3_EvvEEvRS4_PT_DpOT0_, symObjAddr: 0x19B5C, symBinAddr: 0x10001B304, symSize: 0x30 }
  - { offsetInCU: 0x45BE0, offset: 0x45BE0, size: 0x8, addend: 0x0, symName: __ZNSt3__114__split_bufferIPNS_6threadERNS_9allocatorIS2_EEE7__allocB7v160006Ev, symObjAddr: 0x19B8C, symBinAddr: 0x10001B334, symSize: 0x28 }
  - { offsetInCU: 0x45C06, offset: 0x45C06, size: 0x8, addend: 0x0, symName: __ZNKSt3__113move_iteratorIPPNS_6threadEEdeB7v160006Ev, symObjAddr: 0x19BB4, symBinAddr: 0x10001B35C, symSize: 0x2C }
  - { offsetInCU: 0x45C2C, offset: 0x45C2C, size: 0x8, addend: 0x0, symName: __ZNSt3__113move_iteratorIPPNS_6threadEEppB7v160006Ev, symObjAddr: 0x19BE0, symBinAddr: 0x10001B388, symSize: 0x20 }
  - { offsetInCU: 0x45C52, offset: 0x45C52, size: 0x8, addend: 0x0, symName: __ZNSt3__114__split_bufferIPNS_6threadERNS_9allocatorIS2_EEE21_ConstructTransactionD1B7v160006Ev, symObjAddr: 0x19C00, symBinAddr: 0x10001B3A8, symSize: 0x2C }
  - { offsetInCU: 0x45C7C, offset: 0x45C7C, size: 0x8, addend: 0x0, symName: __ZNKRSt3__113move_iteratorIPPNS_6threadEE4baseB7v160006Ev, symObjAddr: 0x19CA8, symBinAddr: 0x10001B450, symSize: 0x14 }
  - { offsetInCU: 0x45CA2, offset: 0x45CA2, size: 0x8, addend: 0x0, symName: __ZNSt3__114__split_bufferIPNS_6threadERNS_9allocatorIS2_EEE21_ConstructTransactionC2B7v160006EPPS2_m, symObjAddr: 0x19CBC, symBinAddr: 0x10001B464, symSize: 0x44 }
  - { offsetInCU: 0x45CE8, offset: 0x45CE8, size: 0x8, addend: 0x0, symName: __ZNSt3__117__compressed_pairIPPNS_6threadERNS_9allocatorIS2_EEE6secondB7v160006Ev, symObjAddr: 0x19D2C, symBinAddr: 0x10001B4D4, symSize: 0x28 }
  - { offsetInCU: 0x45D0E, offset: 0x45D0E, size: 0x8, addend: 0x0, symName: __ZNSt3__122__compressed_pair_elemIRNS_9allocatorIPNS_6threadEEELi1ELb0EE5__getB7v160006Ev, symObjAddr: 0x19D54, symBinAddr: 0x10001B4FC, symSize: 0x18 }
  - { offsetInCU: 0x45D34, offset: 0x45D34, size: 0x8, addend: 0x0, symName: __ZNKSt3__16ranges11__iter_move4__fnclB7v160006IRKPPNS_6threadEEEDTclsr3stdE4movedeclsr3stdE7forwardIT_Efp_EEEOS9_, symObjAddr: 0x19D6C, symBinAddr: 0x10001B514, symSize: 0x1C }
  - { offsetInCU: 0x45D71, offset: 0x45D71, size: 0x8, addend: 0x0, symName: __ZNSt3__114__split_bufferIPNS_6threadERNS_9allocatorIS2_EEE21_ConstructTransactionD2B7v160006Ev, symObjAddr: 0x19D88, symBinAddr: 0x10001B530, symSize: 0x20 }
  - { offsetInCU: 0x45D9B, offset: 0x45D9B, size: 0x8, addend: 0x0, symName: __ZNSt3__113move_iteratorIPPNS_6threadEEC2B7v160006ES3_, symObjAddr: 0x19DA8, symBinAddr: 0x10001B550, symSize: 0x20 }
  - { offsetInCU: 0x45DD3, offset: 0x45DD3, size: 0x8, addend: 0x0, symName: __ZNSt3__19allocatorINS_6threadEE8allocateB7v160006Em, symObjAddr: 0x19DF4, symBinAddr: 0x10001B59C, symSize: 0x58 }
  - { offsetInCU: 0x45E12, offset: 0x45E12, size: 0x8, addend: 0x0, symName: __ZNSt3__116allocator_traitsINS_9allocatorINS_6threadEEEE8max_sizeB7v160006IS3_vvEEmRKS3_, symObjAddr: 0x19E4C, symBinAddr: 0x10001B5F4, symSize: 0x28 }
  - { offsetInCU: 0x45E3E, offset: 0x45E3E, size: 0x8, addend: 0x0, symName: __ZNKSt3__123__move_backward_trivialclB7v160006IPNS_6threadES3_Li0EEENS_4pairIPT_PT0_EES6_S6_S8_, symObjAddr: 0x19FF0, symBinAddr: 0x10001B798, symSize: 0x48 }
  - { offsetInCU: 0x45EA6, offset: 0x45EA6, size: 0x8, addend: 0x0, symName: __ZNSt3__14pairIPPNS_6threadES3_EC1B7v160006IRS3_S6_LPv0EEEOT_OT0_, symObjAddr: 0x1A104, symBinAddr: 0x10001B8AC, symSize: 0x3C }
  - { offsetInCU: 0x45F04, offset: 0x45F04, size: 0x8, addend: 0x0, symName: __ZNSt3__14pairIPPNS_6threadES3_EC2B7v160006IRS3_S6_LPv0EEEOT_OT0_, symObjAddr: 0x1A140, symBinAddr: 0x10001B8E8, symSize: 0x34 }
  - { offsetInCU: 0x45F62, offset: 0x45F62, size: 0x8, addend: 0x0, symName: __ZNSt3__114__split_bufferIPNS_6threadERNS_9allocatorIS2_EEEC2EmmS5_, symObjAddr: 0x1A174, symBinAddr: 0x10001B91C, symSize: 0xD4 }
  - { offsetInCU: 0x45FD6, offset: 0x45FD6, size: 0x8, addend: 0x0, symName: __ZNSt3__117__compressed_pairIPPNS_6threadERNS_9allocatorIS2_EEEC1B7v160006IDnS6_EEOT_OT0_, symObjAddr: 0x1A248, symBinAddr: 0x10001B9F0, symSize: 0x3C }
  - { offsetInCU: 0x4602E, offset: 0x4602E, size: 0x8, addend: 0x0, symName: __ZNSt3__117__compressed_pairIPPNS_6threadERNS_9allocatorIS2_EEEC2B7v160006IDnS6_EEOT_OT0_, symObjAddr: 0x1A2C4, symBinAddr: 0x10001BA6C, symSize: 0x48 }
  - { offsetInCU: 0x46086, offset: 0x46086, size: 0x8, addend: 0x0, symName: __ZNSt3__122__compressed_pair_elemIRNS_9allocatorIPNS_6threadEEELi1ELb0EEC2B7v160006IS5_vEEOT_, symObjAddr: 0x1A30C, symBinAddr: 0x10001BAB4, symSize: 0x20 }
  - { offsetInCU: 0x460C8, offset: 0x460C8, size: 0x8, addend: 0x0, symName: __ZNSt3__19allocatorIPNS_6threadEE8allocateB7v160006Em, symObjAddr: 0x1A32C, symBinAddr: 0x10001BAD4, symSize: 0x58 }
  - { offsetInCU: 0x46107, offset: 0x46107, size: 0x8, addend: 0x0, symName: __ZNSt3__116allocator_traitsINS_9allocatorIPNS_6threadEEEE8max_sizeB7v160006IS4_vvEEmRKS4_, symObjAddr: 0x1A384, symBinAddr: 0x10001BB2C, symSize: 0x28 }
  - { offsetInCU: 0x46133, offset: 0x46133, size: 0x8, addend: 0x0, symName: __ZNSt3__122__allocator_destructorINS_9allocatorINS_6threadEEEEC2B7v160006ERS3_m, symObjAddr: 0x1A3AC, symBinAddr: 0x10001BB54, symSize: 0x2C }
  - { offsetInCU: 0x46179, offset: 0x46179, size: 0x8, addend: 0x0, symName: __ZNSt3__110unique_ptrIPNS_6threadENS_22__allocator_destructorINS_9allocatorIS1_EEEEEC2B7v160006ILb1EvEES2_NS_16__dependent_typeINS_27__unique_ptr_deleter_sfinaeIS6_EEXT_EE20__good_rval_ref_typeE, symObjAddr: 0x1A3D8, symBinAddr: 0x10001BB80, symSize: 0x48 }
  - { offsetInCU: 0x461CA, offset: 0x461CA, size: 0x8, addend: 0x0, symName: __ZNSt3__117__compressed_pairIPNS_6threadENS_22__allocator_destructorINS_9allocatorIS1_EEEEEC1B7v160006IRS2_S6_EEOT_OT0_, symObjAddr: 0x1A420, symBinAddr: 0x10001BBC8, symSize: 0x3C }
  - { offsetInCU: 0x46222, offset: 0x46222, size: 0x8, addend: 0x0, symName: __ZNSt3__117__compressed_pairIPNS_6threadENS_22__allocator_destructorINS_9allocatorIS1_EEEEEC2B7v160006IRS2_S6_EEOT_OT0_, symObjAddr: 0x1A45C, symBinAddr: 0x10001BC04, symSize: 0x48 }
  - { offsetInCU: 0x4627A, offset: 0x4627A, size: 0x8, addend: 0x0, symName: __ZNSt3__122__compressed_pair_elemIPNS_6threadELi0ELb0EEC2B7v160006IRS2_vEEOT_, symObjAddr: 0x1A4A4, symBinAddr: 0x10001BC4C, symSize: 0x24 }
  - { offsetInCU: 0x462BC, offset: 0x462BC, size: 0x8, addend: 0x0, symName: __ZNSt3__122__compressed_pair_elemINS_22__allocator_destructorINS_9allocatorINS_6threadEEEEELi1ELb0EEC2B7v160006IS5_vEEOT_, symObjAddr: 0x1A4C8, symBinAddr: 0x10001BC70, symSize: 0x24 }
  - { offsetInCU: 0x462FE, offset: 0x462FE, size: 0x8, addend: 0x0, symName: __ZNKSt3__117__compressed_pairIPNS_6threadENS_22__allocator_destructorINS_9allocatorIS1_EEEEE5firstB7v160006Ev, symObjAddr: 0x1A4EC, symBinAddr: 0x10001BC94, symSize: 0x24 }
  - { offsetInCU: 0x46324, offset: 0x46324, size: 0x8, addend: 0x0, symName: __ZNKSt3__122__compressed_pair_elemIPNS_6threadELi0ELb0EE5__getB7v160006Ev, symObjAddr: 0x1A510, symBinAddr: 0x10001BCB8, symSize: 0x14 }
  - { offsetInCU: 0x4634A, offset: 0x4634A, size: 0x8, addend: 0x0, symName: __ZNSt3__117__compressed_pairIPNS_6threadENS_22__allocator_destructorINS_9allocatorIS1_EEEEE5firstB7v160006Ev, symObjAddr: 0x1A524, symBinAddr: 0x10001BCCC, symSize: 0x24 }
  - { offsetInCU: 0x46370, offset: 0x46370, size: 0x8, addend: 0x0, symName: __ZNSt3__122__compressed_pair_elemIPNS_6threadELi0ELb0EE5__getB7v160006Ev, symObjAddr: 0x1A548, symBinAddr: 0x10001BCF0, symSize: 0x14 }
  - { offsetInCU: 0x46396, offset: 0x46396, size: 0x8, addend: 0x0, symName: __ZNSt3__117__compressed_pairIPPNS_6threadENS_9allocatorIS2_EEE5firstB7v160006Ev, symObjAddr: 0x1A55C, symBinAddr: 0x10001BD04, symSize: 0x24 }
  - { offsetInCU: 0x463BC, offset: 0x463BC, size: 0x8, addend: 0x0, symName: __ZNSt3__122__compressed_pair_elemIPPNS_6threadELi0ELb0EE5__getB7v160006Ev, symObjAddr: 0x1A580, symBinAddr: 0x10001BD28, symSize: 0x14 }
  - { offsetInCU: 0x463E2, offset: 0x463E2, size: 0x8, addend: 0x0, symName: __ZNSt3__117__compressed_pairIPPNS_6threadERNS_9allocatorIS2_EEE5firstB7v160006Ev, symObjAddr: 0x1A594, symBinAddr: 0x10001BD3C, symSize: 0x24 }
  - { offsetInCU: 0x46408, offset: 0x46408, size: 0x8, addend: 0x0, symName: __ZNSt3__110unique_ptrIPNS_6threadENS_22__allocator_destructorINS_9allocatorIS1_EEEEED2B7v160006Ev, symObjAddr: 0x1A5B8, symBinAddr: 0x10001BD60, symSize: 0x30 }
  - { offsetInCU: 0x46432, offset: 0x46432, size: 0x8, addend: 0x0, symName: __ZNSt3__110unique_ptrIPNS_6threadENS_22__allocator_destructorINS_9allocatorIS1_EEEEE5resetB7v160006ES2_, symObjAddr: 0x1A5E8, symBinAddr: 0x10001BD90, symSize: 0x78 }
  - { offsetInCU: 0x46476, offset: 0x46476, size: 0x8, addend: 0x0, symName: __ZNSt3__117__compressed_pairIPNS_6threadENS_22__allocator_destructorINS_9allocatorIS1_EEEEE6secondB7v160006Ev, symObjAddr: 0x1A660, symBinAddr: 0x10001BE08, symSize: 0x28 }
  - { offsetInCU: 0x4649C, offset: 0x4649C, size: 0x8, addend: 0x0, symName: __ZNSt3__122__allocator_destructorINS_9allocatorINS_6threadEEEEclB7v160006EPS2_, symObjAddr: 0x1A688, symBinAddr: 0x10001BE30, symSize: 0x34 }
  - { offsetInCU: 0x464D0, offset: 0x464D0, size: 0x8, addend: 0x0, symName: __ZNSt3__122__compressed_pair_elemINS_22__allocator_destructorINS_9allocatorINS_6threadEEEEELi1ELb0EE5__getB7v160006Ev, symObjAddr: 0x1A6BC, symBinAddr: 0x10001BE64, symSize: 0x14 }
  - { offsetInCU: 0x464F6, offset: 0x464F6, size: 0x8, addend: 0x0, symName: __ZNSt3__114__split_bufferIPNS_6threadERNS_9allocatorIS2_EEED2Ev, symObjAddr: 0x1A6D0, symBinAddr: 0x10001BE78, symSize: 0x8C }
  - { offsetInCU: 0x46522, offset: 0x46522, size: 0x8, addend: 0x0, symName: __ZNSt3__114__split_bufferIPNS_6threadERNS_9allocatorIS2_EEE5clearB7v160006Ev, symObjAddr: 0x1A75C, symBinAddr: 0x10001BF04, symSize: 0x28 }
  - { offsetInCU: 0x46548, offset: 0x46548, size: 0x8, addend: 0x0, symName: __ZNKSt3__114__split_bufferIPNS_6threadERNS_9allocatorIS2_EEE8capacityB7v160006Ev, symObjAddr: 0x1A784, symBinAddr: 0x10001BF2C, symSize: 0x40 }
  - { offsetInCU: 0x4656E, offset: 0x4656E, size: 0x8, addend: 0x0, symName: __ZNSt3__114__split_bufferIPNS_6threadERNS_9allocatorIS2_EEE17__destruct_at_endB7v160006EPS2_, symObjAddr: 0x1A7C4, symBinAddr: 0x10001BF6C, symSize: 0x2C }
  - { offsetInCU: 0x465A2, offset: 0x465A2, size: 0x8, addend: 0x0, symName: __ZNSt3__114__split_bufferIPNS_6threadERNS_9allocatorIS2_EEE17__destruct_at_endB7v160006EPS2_NS_17integral_constantIbLb0EEE, symObjAddr: 0x1A7F0, symBinAddr: 0x10001BF98, symSize: 0x80 }
  - { offsetInCU: 0x465E2, offset: 0x465E2, size: 0x8, addend: 0x0, symName: __ZNKSt3__114__split_bufferIPNS_6threadERNS_9allocatorIS2_EEE9__end_capB7v160006Ev, symObjAddr: 0x1A870, symBinAddr: 0x10001C018, symSize: 0x28 }
  - { offsetInCU: 0x46608, offset: 0x46608, size: 0x8, addend: 0x0, symName: __ZNKSt3__117__compressed_pairIPPNS_6threadERNS_9allocatorIS2_EEE5firstB7v160006Ev, symObjAddr: 0x1A898, symBinAddr: 0x10001C040, symSize: 0x24 }
  - { offsetInCU: 0x4662E, offset: 0x4662E, size: 0x8, addend: 0x0, symName: __ZNSt3__16threadC1IZN14SSS_ThreadPool13start_threadsEjEUlvE_JEvEEOT_DpOT0_, symObjAddr: 0x1A8F8, symBinAddr: 0x10001C0A0, symSize: 0x34 }
  - { offsetInCU: 0x46676, offset: 0x46676, size: 0x8, addend: 0x0, symName: __ZNSt3__16threadC2IZN14SSS_ThreadPool13start_threadsEjEUlvE_JEvEEOT_DpOT0_, symObjAddr: 0x1A92C, symBinAddr: 0x10001C0D4, symSize: 0x148 }
  - { offsetInCU: 0x466F1, offset: 0x466F1, size: 0x8, addend: 0x0, symName: __ZNSt3__110unique_ptrINS_15__thread_structENS_14default_deleteIS1_EEEC1B7v160006ILb1EvEEPS1_, symObjAddr: 0x1AA74, symBinAddr: 0x10001C21C, symSize: 0x34 }
  - { offsetInCU: 0x46734, offset: 0x46734, size: 0x8, addend: 0x0, symName: __ZNSt3__15tupleIJNS_10unique_ptrINS_15__thread_structENS_14default_deleteIS2_EEEEZN14SSS_ThreadPool13start_threadsEjEUlvE_EEC1B7v160006IJS5_S7_ELi0EEEDpOT_, symObjAddr: 0x1AAA8, symBinAddr: 0x10001C250, symSize: 0x3C }
  - { offsetInCU: 0x4682C, offset: 0x4682C, size: 0x8, addend: 0x0, symName: __ZNSt3__110unique_ptrINS_5tupleIJNS0_INS_15__thread_structENS_14default_deleteIS2_EEEEZN14SSS_ThreadPool13start_threadsEjEUlvE_EEENS3_IS8_EEEC1B7v160006ILb1EvEEPS8_, symObjAddr: 0x1AAE4, symBinAddr: 0x10001C28C, symSize: 0x34 }
  - { offsetInCU: 0x4686F, offset: 0x4686F, size: 0x8, addend: 0x0, symName: __ZNKSt3__110unique_ptrINS_5tupleIJNS0_INS_15__thread_structENS_14default_deleteIS2_EEEEZN14SSS_ThreadPool13start_threadsEjEUlvE_EEENS3_IS8_EEE3getB7v160006Ev, symObjAddr: 0x1ABE0, symBinAddr: 0x10001C388, symSize: 0x28 }
  - { offsetInCU: 0x46895, offset: 0x46895, size: 0x8, addend: 0x0, symName: __ZNSt3__110unique_ptrINS_5tupleIJNS0_INS_15__thread_structENS_14default_deleteIS2_EEEEZN14SSS_ThreadPool13start_threadsEjEUlvE_EEENS3_IS8_EEE7releaseB7v160006Ev, symObjAddr: 0x1AC08, symBinAddr: 0x10001C3B0, symSize: 0x44 }
  - { offsetInCU: 0x468CA, offset: 0x468CA, size: 0x8, addend: 0x0, symName: __ZNSt3__110unique_ptrINS_5tupleIJNS0_INS_15__thread_structENS_14default_deleteIS2_EEEEZN14SSS_ThreadPool13start_threadsEjEUlvE_EEENS3_IS8_EEED1B7v160006Ev, symObjAddr: 0x1AC4C, symBinAddr: 0x10001C3F4, symSize: 0x2C }
  - { offsetInCU: 0x468F4, offset: 0x468F4, size: 0x8, addend: 0x0, symName: __ZNSt3__110unique_ptrINS_15__thread_structENS_14default_deleteIS1_EEED1B7v160006Ev, symObjAddr: 0x1AC78, symBinAddr: 0x10001C420, symSize: 0x2C }
  - { offsetInCU: 0x4691E, offset: 0x4691E, size: 0x8, addend: 0x0, symName: __ZNSt3__110unique_ptrINS_15__thread_structENS_14default_deleteIS1_EEEC2B7v160006ILb1EvEEPS1_, symObjAddr: 0x1ACA4, symBinAddr: 0x10001C44C, symSize: 0x44 }
  - { offsetInCU: 0x46961, offset: 0x46961, size: 0x8, addend: 0x0, symName: __ZNSt3__117__compressed_pairIPNS_15__thread_structENS_14default_deleteIS1_EEEC1B7v160006IRS2_NS_16__value_init_tagEEEOT_OT0_, symObjAddr: 0x1ACE8, symBinAddr: 0x10001C490, symSize: 0x3C }
  - { offsetInCU: 0x469B9, offset: 0x469B9, size: 0x8, addend: 0x0, symName: __ZNSt3__117__compressed_pairIPNS_15__thread_structENS_14default_deleteIS1_EEEC2B7v160006IRS2_NS_16__value_init_tagEEEOT_OT0_, symObjAddr: 0x1AD24, symBinAddr: 0x10001C4CC, symSize: 0x40 }
  - { offsetInCU: 0x46A11, offset: 0x46A11, size: 0x8, addend: 0x0, symName: __ZNSt3__122__compressed_pair_elemIPNS_15__thread_structELi0ELb0EEC2B7v160006IRS2_vEEOT_, symObjAddr: 0x1AD64, symBinAddr: 0x10001C50C, symSize: 0x24 }
  - { offsetInCU: 0x46A53, offset: 0x46A53, size: 0x8, addend: 0x0, symName: __ZNSt3__122__compressed_pair_elemINS_14default_deleteINS_15__thread_structEEELi1ELb1EEC2B7v160006ENS_16__value_init_tagE, symObjAddr: 0x1AD88, symBinAddr: 0x10001C530, symSize: 0x14 }
  - { offsetInCU: 0x46A87, offset: 0x46A87, size: 0x8, addend: 0x0, symName: __ZNSt3__15tupleIJNS_10unique_ptrINS_15__thread_structENS_14default_deleteIS2_EEEEZN14SSS_ThreadPool13start_threadsEjEUlvE_EEC2B7v160006IJS5_S7_ELi0EEEDpOT_, symObjAddr: 0x1AD9C, symBinAddr: 0x10001C544, symSize: 0x3C }
  - { offsetInCU: 0x46AE5, offset: 0x46AE5, size: 0x8, addend: 0x0, symName: __ZNSt3__112__tuple_implINS_15__tuple_indicesIJLm0ELm1EEEEJNS_10unique_ptrINS_15__thread_structENS_14default_deleteIS4_EEEEZN14SSS_ThreadPool13start_threadsEjEUlvE_EEC1B7v160006IJLm0ELm1EEJS7_S9_EJEJEJS7_S9_EEENS1_IJXspT_EEEENS_13__tuple_typesIJDpT0_EEENS1_IJXspT1_EEEENSD_IJDpT2_EEEDpOT3_, symObjAddr: 0x1ADD8, symBinAddr: 0x10001C580, symSize: 0x3C }
  - { offsetInCU: 0x46B99, offset: 0x46B99, size: 0x8, addend: 0x0, symName: __ZNSt3__112__tuple_implINS_15__tuple_indicesIJLm0ELm1EEEEJNS_10unique_ptrINS_15__thread_structENS_14default_deleteIS4_EEEEZN14SSS_ThreadPool13start_threadsEjEUlvE_EEC2B7v160006IJLm0ELm1EEJS7_S9_EJEJEJS7_S9_EEENS1_IJXspT_EEEENS_13__tuple_typesIJDpT0_EEENS1_IJXspT1_EEEENSD_IJDpT2_EEEDpOT3_, symObjAddr: 0x1AE14, symBinAddr: 0x10001C5BC, symSize: 0x48 }
  - { offsetInCU: 0x46C4D, offset: 0x46C4D, size: 0x8, addend: 0x0, symName: __ZNSt3__112__tuple_leafILm0ENS_10unique_ptrINS_15__thread_structENS_14default_deleteIS2_EEEELb0EEC2B7v160006IS5_vEEOT_, symObjAddr: 0x1AE5C, symBinAddr: 0x10001C604, symSize: 0x34 }
  - { offsetInCU: 0x46C90, offset: 0x46C90, size: 0x8, addend: 0x0, symName: __ZNSt3__112__tuple_leafILm1EZN14SSS_ThreadPool13start_threadsEjEUlvE_Lb0EEC2B7v160006IS2_vEEOT_, symObjAddr: 0x1AE90, symBinAddr: 0x10001C638, symSize: 0x24 }
  - { offsetInCU: 0x46CD3, offset: 0x46CD3, size: 0x8, addend: 0x0, symName: __ZNSt3__110unique_ptrINS_15__thread_structENS_14default_deleteIS1_EEEC1B7v160006EOS4_, symObjAddr: 0x1AEB4, symBinAddr: 0x10001C65C, symSize: 0x34 }
  - { offsetInCU: 0x46D0B, offset: 0x46D0B, size: 0x8, addend: 0x0, symName: __ZNSt3__110unique_ptrINS_15__thread_structENS_14default_deleteIS1_EEEC2B7v160006EOS4_, symObjAddr: 0x1AEE8, symBinAddr: 0x10001C690, symSize: 0x60 }
  - { offsetInCU: 0x46D43, offset: 0x46D43, size: 0x8, addend: 0x0, symName: __ZNSt3__110unique_ptrINS_15__thread_structENS_14default_deleteIS1_EEE7releaseB7v160006Ev, symObjAddr: 0x1AF48, symBinAddr: 0x10001C6F0, symSize: 0x44 }
  - { offsetInCU: 0x46D78, offset: 0x46D78, size: 0x8, addend: 0x0, symName: __ZNSt3__110unique_ptrINS_15__thread_structENS_14default_deleteIS1_EEE11get_deleterB7v160006Ev, symObjAddr: 0x1AF8C, symBinAddr: 0x10001C734, symSize: 0x24 }
  - { offsetInCU: 0x46DAA, offset: 0x46DAA, size: 0x8, addend: 0x0, symName: __ZNSt3__117__compressed_pairIPNS_15__thread_structENS_14default_deleteIS1_EEEC1B7v160006IS2_S4_EEOT_OT0_, symObjAddr: 0x1AFB0, symBinAddr: 0x10001C758, symSize: 0x3C }
  - { offsetInCU: 0x46E02, offset: 0x46E02, size: 0x8, addend: 0x0, symName: __ZNSt3__117__compressed_pairIPNS_15__thread_structENS_14default_deleteIS1_EEE5firstB7v160006Ev, symObjAddr: 0x1AFEC, symBinAddr: 0x10001C794, symSize: 0x24 }
  - { offsetInCU: 0x46E28, offset: 0x46E28, size: 0x8, addend: 0x0, symName: __ZNSt3__122__compressed_pair_elemIPNS_15__thread_structELi0ELb0EE5__getB7v160006Ev, symObjAddr: 0x1B010, symBinAddr: 0x10001C7B8, symSize: 0x14 }
  - { offsetInCU: 0x46E4E, offset: 0x46E4E, size: 0x8, addend: 0x0, symName: __ZNSt3__117__compressed_pairIPNS_15__thread_structENS_14default_deleteIS1_EEE6secondB7v160006Ev, symObjAddr: 0x1B024, symBinAddr: 0x10001C7CC, symSize: 0x24 }
  - { offsetInCU: 0x46E74, offset: 0x46E74, size: 0x8, addend: 0x0, symName: __ZNSt3__122__compressed_pair_elemINS_14default_deleteINS_15__thread_structEEELi1ELb1EE5__getB7v160006Ev, symObjAddr: 0x1B048, symBinAddr: 0x10001C7F0, symSize: 0x14 }
  - { offsetInCU: 0x46E9A, offset: 0x46E9A, size: 0x8, addend: 0x0, symName: __ZNSt3__117__compressed_pairIPNS_15__thread_structENS_14default_deleteIS1_EEEC2B7v160006IS2_S4_EEOT_OT0_, symObjAddr: 0x1B05C, symBinAddr: 0x10001C804, symSize: 0x44 }
  - { offsetInCU: 0x46EF2, offset: 0x46EF2, size: 0x8, addend: 0x0, symName: __ZNSt3__122__compressed_pair_elemIPNS_15__thread_structELi0ELb0EEC2B7v160006IS2_vEEOT_, symObjAddr: 0x1B0A0, symBinAddr: 0x10001C848, symSize: 0x24 }
  - { offsetInCU: 0x46F34, offset: 0x46F34, size: 0x8, addend: 0x0, symName: __ZNSt3__122__compressed_pair_elemINS_14default_deleteINS_15__thread_structEEELi1ELb1EEC2B7v160006IS3_vEEOT_, symObjAddr: 0x1B0C4, symBinAddr: 0x10001C86C, symSize: 0x18 }
  - { offsetInCU: 0x46F76, offset: 0x46F76, size: 0x8, addend: 0x0, symName: __ZNSt3__110unique_ptrINS_5tupleIJNS0_INS_15__thread_structENS_14default_deleteIS2_EEEEZN14SSS_ThreadPool13start_threadsEjEUlvE_EEENS3_IS8_EEEC2B7v160006ILb1EvEEPS8_, symObjAddr: 0x1B0DC, symBinAddr: 0x10001C884, symSize: 0x44 }
  - { offsetInCU: 0x46FB9, offset: 0x46FB9, size: 0x8, addend: 0x0, symName: __ZNSt3__117__compressed_pairIPNS_5tupleIJNS_10unique_ptrINS_15__thread_structENS_14default_deleteIS3_EEEEZN14SSS_ThreadPool13start_threadsEjEUlvE_EEENS4_IS9_EEEC1B7v160006IRSA_NS_16__value_init_tagEEEOT_OT0_, symObjAddr: 0x1B120, symBinAddr: 0x10001C8C8, symSize: 0x3C }
  - { offsetInCU: 0x47011, offset: 0x47011, size: 0x8, addend: 0x0, symName: __ZNSt3__117__compressed_pairIPNS_5tupleIJNS_10unique_ptrINS_15__thread_structENS_14default_deleteIS3_EEEEZN14SSS_ThreadPool13start_threadsEjEUlvE_EEENS4_IS9_EEEC2B7v160006IRSA_NS_16__value_init_tagEEEOT_OT0_, symObjAddr: 0x1B15C, symBinAddr: 0x10001C904, symSize: 0x40 }
  - { offsetInCU: 0x47069, offset: 0x47069, size: 0x8, addend: 0x0, symName: __ZNSt3__122__compressed_pair_elemIPNS_5tupleIJNS_10unique_ptrINS_15__thread_structENS_14default_deleteIS3_EEEEZN14SSS_ThreadPool13start_threadsEjEUlvE_EEELi0ELb0EEC2B7v160006IRSA_vEEOT_, symObjAddr: 0x1B19C, symBinAddr: 0x10001C944, symSize: 0x24 }
  - { offsetInCU: 0x470AB, offset: 0x470AB, size: 0x8, addend: 0x0, symName: __ZNSt3__122__compressed_pair_elemINS_14default_deleteINS_5tupleIJNS_10unique_ptrINS_15__thread_structENS1_IS4_EEEEZN14SSS_ThreadPool13start_threadsEjEUlvE_EEEEELi1ELb1EEC2B7v160006ENS_16__value_init_tagE, symObjAddr: 0x1B1C0, symBinAddr: 0x10001C968, symSize: 0x14 }
  - { offsetInCU: 0x47110, offset: 0x47110, size: 0x8, addend: 0x0, symName: __ZNSt3__121__thread_specific_ptrINS_15__thread_structEE11set_pointerEPS1_, symObjAddr: 0x1B1D4, symBinAddr: 0x10001C97C, symSize: 0x30 }
  - { offsetInCU: 0x47145, offset: 0x47145, size: 0x8, addend: 0x0, symName: __ZNSt3__112__tuple_leafILm0ENS_10unique_ptrINS_15__thread_structENS_14default_deleteIS2_EEEELb0EE3getB7v160006Ev, symObjAddr: 0x1B27C, symBinAddr: 0x10001CA24, symSize: 0x14 }
  - { offsetInCU: 0x47170, offset: 0x47170, size: 0x8, addend: 0x0, symName: __ZZN14SSS_ThreadPool13start_threadsEjENKUlvE_clEv, symObjAddr: 0x1B2DC, symBinAddr: 0x10001CA84, symSize: 0xFC }
  - { offsetInCU: 0x471A8, offset: 0x471A8, size: 0x8, addend: 0x0, symName: __ZNSt3__18functionIFvvEEC1B7v160006Ev, symObjAddr: 0x1B3D8, symBinAddr: 0x10001CB80, symSize: 0x2C }
  - { offsetInCU: 0x471D2, offset: 0x471D2, size: 0x8, addend: 0x0, symName: __ZNSt3__15dequeINS_8functionIFvvEEENS_9allocatorIS3_EEEixEm, symObjAddr: 0x1B404, symBinAddr: 0x10001CBAC, symSize: 0x5C }
  - { offsetInCU: 0x47218, offset: 0x47218, size: 0x8, addend: 0x0, symName: __ZNSt3__18functionIFvvEEaSERKS2_, symObjAddr: 0x1B460, symBinAddr: 0x10001CC08, symSize: 0x84 }
  - { offsetInCU: 0x4724F, offset: 0x4724F, size: 0x8, addend: 0x0, symName: __ZNKSt3__18functionIFvvEEclEv, symObjAddr: 0x1B4E4, symBinAddr: 0x10001CC8C, symSize: 0x24 }
  - { offsetInCU: 0x47277, offset: 0x47277, size: 0x8, addend: 0x0, symName: __ZNSt3__118counting_semaphoreILl1EE7acquireB7v160006Ev, symObjAddr: 0x1B508, symBinAddr: 0x10001CCB0, symSize: 0x24 }
  - { offsetInCU: 0x4729D, offset: 0x4729D, size: 0x8, addend: 0x0, symName: __ZNSt3__18functionIFvvEEC2B7v160006Ev, symObjAddr: 0x1B52C, symBinAddr: 0x10001CCD4, symSize: 0x2C }
  - { offsetInCU: 0x472C7, offset: 0x472C7, size: 0x8, addend: 0x0, symName: __ZNSt3__110__function12__value_funcIFvvEEC1B7v160006Ev, symObjAddr: 0x1B558, symBinAddr: 0x10001CD00, symSize: 0x2C }
  - { offsetInCU: 0x472F1, offset: 0x472F1, size: 0x8, addend: 0x0, symName: __ZNSt3__110__function12__value_funcIFvvEEC2B7v160006Ev, symObjAddr: 0x1B584, symBinAddr: 0x10001CD2C, symSize: 0x18 }
  - { offsetInCU: 0x4731B, offset: 0x4731B, size: 0x8, addend: 0x0, symName: __ZNSt3__18functionIFvvEEC1ERKS2_, symObjAddr: 0x1B59C, symBinAddr: 0x10001CD44, symSize: 0x34 }
  - { offsetInCU: 0x47356, offset: 0x47356, size: 0x8, addend: 0x0, symName: __ZNSt3__18functionIFvvEE4swapERS2_, symObjAddr: 0x1B5D0, symBinAddr: 0x10001CD78, symSize: 0x2C }
  - { offsetInCU: 0x4738D, offset: 0x4738D, size: 0x8, addend: 0x0, symName: __ZNSt3__18functionIFvvEEC2ERKS2_, symObjAddr: 0x1B5FC, symBinAddr: 0x10001CDA4, symSize: 0x34 }
  - { offsetInCU: 0x473C8, offset: 0x473C8, size: 0x8, addend: 0x0, symName: __ZNSt3__110__function12__value_funcIFvvEEC1B7v160006ERKS3_, symObjAddr: 0x1B630, symBinAddr: 0x10001CDD8, symSize: 0x34 }
  - { offsetInCU: 0x47401, offset: 0x47401, size: 0x8, addend: 0x0, symName: __ZNSt3__110__function12__value_funcIFvvEEC2B7v160006ERKS3_, symObjAddr: 0x1B664, symBinAddr: 0x10001CE0C, symSize: 0xC0 }
  - { offsetInCU: 0x4743A, offset: 0x4743A, size: 0x8, addend: 0x0, symName: __ZNSt3__110__function12__value_funcIFvvEE4swapB7v160006ERS3_, symObjAddr: 0x1B724, symBinAddr: 0x10001CECC, symSize: 0x2A8 }
  - { offsetInCU: 0x47493, offset: 0x47493, size: 0x8, addend: 0x0, symName: __ZNKSt3__110__function12__value_funcIFvvEEclB7v160006Ev, symObjAddr: 0x1BA08, symBinAddr: 0x10001D1B0, symSize: 0x50 }
  - { offsetInCU: 0x474B9, offset: 0x474B9, size: 0x8, addend: 0x0, symName: __ZNSt3__123__atomic_semaphore_base7acquireB7v160006Ev, symObjAddr: 0x1BA58, symBinAddr: 0x10001D200, symSize: 0x2C }
  - { offsetInCU: 0x47513, offset: 0x47513, size: 0x8, addend: 0x0, symName: __ZNSt3__16chrono8durationIxNS_5ratioILl1ELl1000000000EEEE4zeroB7v160006Ev, symObjAddr: 0x1BC14, symBinAddr: 0x10001D3BC, symSize: 0x3C }
  - { offsetInCU: 0x47536, offset: 0x47536, size: 0x8, addend: 0x0, symName: __ZZNSt3__123__atomic_semaphore_base7acquireB7v160006EvENKUlvE_clEv, symObjAddr: 0x1BC50, symBinAddr: 0x10001D3F8, symSize: 0x7C }
  - { offsetInCU: 0x4757D, offset: 0x4757D, size: 0x8, addend: 0x0, symName: __ZNKSt3__133__libcpp_atomic_wait_backoff_implINS_17__cxx_atomic_implIlNS_22__cxx_atomic_base_implIlEEEEZNS_23__atomic_semaphore_base7acquireB7v160006EvEUlvE_EclB7v160006ENS_6chrono8durationIxNS_5ratioILl1ELl1000000000EEEEE, symObjAddr: 0x1BD8C, symBinAddr: 0x10001D534, symSize: 0x108 }
  - { offsetInCU: 0x475D0, offset: 0x475D0, size: 0x8, addend: 0x0, symName: __ZNKSt3__113__atomic_baseIlLb0EE4loadB7v160006ENS_12memory_orderE, symObjAddr: 0x1BE94, symBinAddr: 0x10001D63C, symSize: 0x2C }
  - { offsetInCU: 0x47605, offset: 0x47605, size: 0x8, addend: 0x0, symName: __ZNSt3__113__atomic_baseIlLb0EE23compare_exchange_strongB7v160006ERllNS_12memory_orderES3_, symObjAddr: 0x1BEC0, symBinAddr: 0x10001D668, symSize: 0x48 }
  - { offsetInCU: 0x47687, offset: 0x47687, size: 0x8, addend: 0x0, symName: __ZNKSt3__16chrono10time_pointINS0_12steady_clockENS0_8durationIxNS_5ratioILl1ELl1000000000EEEEEE16time_since_epochB7v160006Ev, symObjAddr: 0x1C6BC, symBinAddr: 0x10001DE64, symSize: 0x20 }
  - { offsetInCU: 0x476AD, offset: 0x476AD, size: 0x8, addend: 0x0, symName: __ZNKSt3__16chrono8durationIxNS_5ratioILl1ELl1000000000EEEE5countB7v160006Ev, symObjAddr: 0x1C6DC, symBinAddr: 0x10001DE84, symSize: 0x18 }
  - { offsetInCU: 0x476DE, offset: 0x476DE, size: 0x8, addend: 0x0, symName: __ZNSt3__16chrono8durationIxNS_5ratioILl1ELl1000000000EEEEC1B7v160006IxEERKT_PNS_9enable_ifIXaasr14is_convertibleIS8_xEE5valueooL_ZNS_17integral_constantIbLb0EE5valueEEntsr23treat_as_floating_pointIS6_EE5valueEvE4typeE, symObjAddr: 0x1C6F4, symBinAddr: 0x10001DE9C, symSize: 0x3C }
  - { offsetInCU: 0x4772B, offset: 0x4772B, size: 0x8, addend: 0x0, symName: __ZNSt3__16chrono8durationIxNS_5ratioILl1ELl1000000000EEEEC2B7v160006IxEERKT_PNS_9enable_ifIXaasr14is_convertibleIS8_xEE5valueooL_ZNS_17integral_constantIbLb0EE5valueEEntsr23treat_as_floating_pointIS6_EE5valueEvE4typeE, symObjAddr: 0x1C730, symBinAddr: 0x10001DED8, symSize: 0x28 }
  - { offsetInCU: 0x47782, offset: 0x47782, size: 0x8, addend: 0x0, symName: __ZNKSt3__16chrono13__duration_eqINS0_8durationIxNS_5ratioILl1ELl1000000000EEEEES5_EclB7v160006ERKS5_S8_, symObjAddr: 0x1C78C, symBinAddr: 0x10001DF34, symSize: 0x4C }
  - { offsetInCU: 0x477D0, offset: 0x477D0, size: 0x8, addend: 0x0, symName: __ZNKSt3__16chrono13__duration_ltINS0_8durationIxNS_5ratioILl1ELl1000000000EEEEES5_EclB7v160006ERKS5_S8_, symObjAddr: 0x1C7D8, symBinAddr: 0x10001DF80, symSize: 0x4C }
  - { offsetInCU: 0x47814, offset: 0x47814, size: 0x8, addend: 0x0, symName: __ZNSt3__16chrono8durationIxNS_5ratioILl1ELl1000000EEEEC1B7v160006IiEERKT_PNS_9enable_ifIXaasr14is_convertibleIS8_xEE5valueooL_ZNS_17integral_constantIbLb0EE5valueEEntsr23treat_as_floating_pointIS6_EE5valueEvE4typeE, symObjAddr: 0x1C854, symBinAddr: 0x10001DFFC, symSize: 0x3C }
  - { offsetInCU: 0x47861, offset: 0x47861, size: 0x8, addend: 0x0, symName: __ZNSt3__16chrono8durationIxNS_5ratioILl1ELl1000000000EEEEC1B7v160006IxNS2_ILl1ELl1000000EEEEERKNS1_IT_T0_EEPNS_9enable_ifIXaasr13__no_overflowIS8_S3_EE5valueooL_ZNS_17integral_constantIbLb0EE5valueEEaaeqsr13__no_overflowIS8_S3_E4typeE3denLi1Entsr23treat_as_floating_pointIS7_EE5valueEvE4typeE, symObjAddr: 0x1C944, symBinAddr: 0x10001E0EC, symSize: 0x3C }
  - { offsetInCU: 0x478B8, offset: 0x478B8, size: 0x8, addend: 0x0, symName: __ZNSt3__16chrono8durationIxNS_5ratioILl1ELl1000000000EEEEC2B7v160006IxNS2_ILl1ELl1000000EEEEERKNS1_IT_T0_EEPNS_9enable_ifIXaasr13__no_overflowIS8_S3_EE5valueooL_ZNS_17integral_constantIbLb0EE5valueEEaaeqsr13__no_overflowIS8_S3_E4typeE3denLi1Entsr23treat_as_floating_pointIS7_EE5valueEvE4typeE, symObjAddr: 0x1C980, symBinAddr: 0x10001E128, symSize: 0x50 }
  - { offsetInCU: 0x4790F, offset: 0x4790F, size: 0x8, addend: 0x0, symName: __ZNKSt3__16chrono8durationIxNS_5ratioILl1ELl1000000EEEE5countB7v160006Ev, symObjAddr: 0x1CA48, symBinAddr: 0x10001E1F0, symSize: 0x18 }
  - { offsetInCU: 0x47935, offset: 0x47935, size: 0x8, addend: 0x0, symName: __ZNSt3__16chrono8durationIxNS_5ratioILl1ELl1000000EEEEC2B7v160006IiEERKT_PNS_9enable_ifIXaasr14is_convertibleIS8_xEE5valueooL_ZNS_17integral_constantIbLb0EE5valueEEntsr23treat_as_floating_pointIS6_EE5valueEvE4typeE, symObjAddr: 0x1CA60, symBinAddr: 0x10001E208, symSize: 0x28 }
  - { offsetInCU: 0x47982, offset: 0x47982, size: 0x8, addend: 0x0, symName: __ZNSt3__16chrono15duration_valuesIxE4zeroB7v160006Ev, symObjAddr: 0x1CA88, symBinAddr: 0x10001E230, symSize: 0x8 }
  - { offsetInCU: 0x47996, offset: 0x47996, size: 0x8, addend: 0x0, symName: __ZNSt3__112__tuple_leafILm1EZN14SSS_ThreadPool13start_threadsEjEUlvE_Lb0EE3getB7v160006Ev, symObjAddr: 0x1CA90, symBinAddr: 0x10001E238, symSize: 0x14 }
  - { offsetInCU: 0x479BC, offset: 0x479BC, size: 0x8, addend: 0x0, symName: __ZNKSt3__117__compressed_pairIPNS_5tupleIJNS_10unique_ptrINS_15__thread_structENS_14default_deleteIS3_EEEEZN14SSS_ThreadPool13start_threadsEjEUlvE_EEENS4_IS9_EEE5firstB7v160006Ev, symObjAddr: 0x1CAA4, symBinAddr: 0x10001E24C, symSize: 0x24 }
  - { offsetInCU: 0x479E2, offset: 0x479E2, size: 0x8, addend: 0x0, symName: __ZNKSt3__122__compressed_pair_elemIPNS_5tupleIJNS_10unique_ptrINS_15__thread_structENS_14default_deleteIS3_EEEEZN14SSS_ThreadPool13start_threadsEjEUlvE_EEELi0ELb0EE5__getB7v160006Ev, symObjAddr: 0x1CAC8, symBinAddr: 0x10001E270, symSize: 0x14 }
  - { offsetInCU: 0x47A08, offset: 0x47A08, size: 0x8, addend: 0x0, symName: __ZNSt3__117__compressed_pairIPNS_5tupleIJNS_10unique_ptrINS_15__thread_structENS_14default_deleteIS3_EEEEZN14SSS_ThreadPool13start_threadsEjEUlvE_EEENS4_IS9_EEE5firstB7v160006Ev, symObjAddr: 0x1CADC, symBinAddr: 0x10001E284, symSize: 0x24 }
  - { offsetInCU: 0x47A2E, offset: 0x47A2E, size: 0x8, addend: 0x0, symName: __ZNSt3__122__compressed_pair_elemIPNS_5tupleIJNS_10unique_ptrINS_15__thread_structENS_14default_deleteIS3_EEEEZN14SSS_ThreadPool13start_threadsEjEUlvE_EEELi0ELb0EE5__getB7v160006Ev, symObjAddr: 0x1CB00, symBinAddr: 0x10001E2A8, symSize: 0x14 }
  - { offsetInCU: 0x47A54, offset: 0x47A54, size: 0x8, addend: 0x0, symName: __ZNSt3__110unique_ptrINS_5tupleIJNS0_INS_15__thread_structENS_14default_deleteIS2_EEEEZN14SSS_ThreadPool13start_threadsEjEUlvE_EEENS3_IS8_EEED2B7v160006Ev, symObjAddr: 0x1CB14, symBinAddr: 0x10001E2BC, symSize: 0x30 }
  - { offsetInCU: 0x47A7E, offset: 0x47A7E, size: 0x8, addend: 0x0, symName: __ZNSt3__110unique_ptrINS_5tupleIJNS0_INS_15__thread_structENS_14default_deleteIS2_EEEEZN14SSS_ThreadPool13start_threadsEjEUlvE_EEENS3_IS8_EEE5resetB7v160006EPS8_, symObjAddr: 0x1CB44, symBinAddr: 0x10001E2EC, symSize: 0x78 }
  - { offsetInCU: 0x47AC2, offset: 0x47AC2, size: 0x8, addend: 0x0, symName: __ZNSt3__117__compressed_pairIPNS_5tupleIJNS_10unique_ptrINS_15__thread_structENS_14default_deleteIS3_EEEEZN14SSS_ThreadPool13start_threadsEjEUlvE_EEENS4_IS9_EEE6secondB7v160006Ev, symObjAddr: 0x1CBBC, symBinAddr: 0x10001E364, symSize: 0x24 }
  - { offsetInCU: 0x47AE8, offset: 0x47AE8, size: 0x8, addend: 0x0, symName: __ZNKSt3__114default_deleteINS_5tupleIJNS_10unique_ptrINS_15__thread_structENS0_IS3_EEEEZN14SSS_ThreadPool13start_threadsEjEUlvE_EEEEclB7v160006EPS8_, symObjAddr: 0x1CBE0, symBinAddr: 0x10001E388, symSize: 0x4C }
  - { offsetInCU: 0x47B1C, offset: 0x47B1C, size: 0x8, addend: 0x0, symName: __ZNSt3__122__compressed_pair_elemINS_14default_deleteINS_5tupleIJNS_10unique_ptrINS_15__thread_structENS1_IS4_EEEEZN14SSS_ThreadPool13start_threadsEjEUlvE_EEEEELi1ELb1EE5__getB7v160006Ev, symObjAddr: 0x1CC2C, symBinAddr: 0x10001E3D4, symSize: 0x14 }
  - { offsetInCU: 0x47B42, offset: 0x47B42, size: 0x8, addend: 0x0, symName: __ZNSt3__15tupleIJNS_10unique_ptrINS_15__thread_structENS_14default_deleteIS2_EEEEZN14SSS_ThreadPool13start_threadsEjEUlvE_EED1Ev, symObjAddr: 0x1CC40, symBinAddr: 0x10001E3E8, symSize: 0x2C }
  - { offsetInCU: 0x47B6F, offset: 0x47B6F, size: 0x8, addend: 0x0, symName: __ZNSt3__15tupleIJNS_10unique_ptrINS_15__thread_structENS_14default_deleteIS2_EEEEZN14SSS_ThreadPool13start_threadsEjEUlvE_EED2Ev, symObjAddr: 0x1CC6C, symBinAddr: 0x10001E414, symSize: 0x2C }
  - { offsetInCU: 0x47B9C, offset: 0x47B9C, size: 0x8, addend: 0x0, symName: __ZNSt3__112__tuple_implINS_15__tuple_indicesIJLm0ELm1EEEEJNS_10unique_ptrINS_15__thread_structENS_14default_deleteIS4_EEEEZN14SSS_ThreadPool13start_threadsEjEUlvE_EED1Ev, symObjAddr: 0x1CC98, symBinAddr: 0x10001E440, symSize: 0x2C }
  - { offsetInCU: 0x47BC9, offset: 0x47BC9, size: 0x8, addend: 0x0, symName: __ZNSt3__112__tuple_implINS_15__tuple_indicesIJLm0ELm1EEEEJNS_10unique_ptrINS_15__thread_structENS_14default_deleteIS4_EEEEZN14SSS_ThreadPool13start_threadsEjEUlvE_EED2Ev, symObjAddr: 0x1CCC4, symBinAddr: 0x10001E46C, symSize: 0x2C }
  - { offsetInCU: 0x47BF6, offset: 0x47BF6, size: 0x8, addend: 0x0, symName: __ZNSt3__112__tuple_leafILm0ENS_10unique_ptrINS_15__thread_structENS_14default_deleteIS2_EEEELb0EED2Ev, symObjAddr: 0x1CCF0, symBinAddr: 0x10001E498, symSize: 0x2C }
  - { offsetInCU: 0x47C23, offset: 0x47C23, size: 0x8, addend: 0x0, symName: __ZNSt3__110unique_ptrINS_15__thread_structENS_14default_deleteIS1_EEED2B7v160006Ev, symObjAddr: 0x1CD1C, symBinAddr: 0x10001E4C4, symSize: 0x30 }
  - { offsetInCU: 0x47C4D, offset: 0x47C4D, size: 0x8, addend: 0x0, symName: __ZNSt3__110unique_ptrINS_15__thread_structENS_14default_deleteIS1_EEE5resetB7v160006EPS1_, symObjAddr: 0x1CD4C, symBinAddr: 0x10001E4F4, symSize: 0x78 }
  - { offsetInCU: 0x47C91, offset: 0x47C91, size: 0x8, addend: 0x0, symName: __ZNKSt3__114default_deleteINS_15__thread_structEEclB7v160006EPS1_, symObjAddr: 0x1CDC4, symBinAddr: 0x10001E56C, symSize: 0x4C }
  - { offsetInCU: 0x47CC5, offset: 0x47CC5, size: 0x8, addend: 0x0, symName: __ZNSt3__118counting_semaphoreILl1EE7releaseB7v160006El, symObjAddr: 0x1CE10, symBinAddr: 0x10001E5B8, symSize: 0x2C }
  - { offsetInCU: 0x47CF9, offset: 0x47CF9, size: 0x8, addend: 0x0, symName: __ZNSt3__123__atomic_semaphore_base7releaseB7v160006El, symObjAddr: 0x1CE3C, symBinAddr: 0x10001E5E4, symSize: 0x7C }
  - { offsetInCU: 0x47D2D, offset: 0x47D2D, size: 0x8, addend: 0x0, symName: __ZNSt3__113__atomic_baseIlLb1EE9fetch_addB7v160006ElNS_12memory_orderE, symObjAddr: 0x1CEB8, symBinAddr: 0x10001E660, symSize: 0x34 }
  - { offsetInCU: 0x47D71, offset: 0x47D71, size: 0x8, addend: 0x0, symName: __ZNSt3__113__atomic_baseIlLb0EE10notify_allB7v160006Ev, symObjAddr: 0x1CEEC, symBinAddr: 0x10001E694, symSize: 0x2C }
  - { offsetInCU: 0x47D97, offset: 0x47D97, size: 0x8, addend: 0x0, symName: __ZNSt3__113__atomic_baseIlLb0EE10notify_oneB7v160006Ev, symObjAddr: 0x1CF18, symBinAddr: 0x10001E6C0, symSize: 0x2C }
  - { offsetInCU: 0x47DBD, offset: 0x47DBD, size: 0x8, addend: 0x0, symName: __ZNSt3__16vectorIP8SSS_NodeIfENS_9allocatorIS3_EEE11__make_iterB7v160006EPS3_, symObjAddr: 0x1D01C, symBinAddr: 0x10001E7C4, symSize: 0x34 }
  - { offsetInCU: 0x47DF2, offset: 0x47DF2, size: 0x8, addend: 0x0, symName: __ZNSt3__111__wrap_iterIPP8SSS_NodeIfEEC1B7v160006EPKvS4_, symObjAddr: 0x1D050, symBinAddr: 0x10001E7F8, symSize: 0x3C }
  - { offsetInCU: 0x47E38, offset: 0x47E38, size: 0x8, addend: 0x0, symName: __ZNSt3__111__wrap_iterIPP8SSS_NodeIfEEC2B7v160006EPKvS4_, symObjAddr: 0x1D08C, symBinAddr: 0x10001E834, symSize: 0x24 }
  - { offsetInCU: 0x47E7E, offset: 0x47E7E, size: 0x8, addend: 0x0, symName: __ZNKSt3__111__wrap_iterIPP8SSS_NodeIfEE4baseB7v160006Ev, symObjAddr: 0x1D0F8, symBinAddr: 0x10001E8A0, symSize: 0x18 }
  - { offsetInCU: 0x47EA4, offset: 0x47EA4, size: 0x8, addend: 0x0, symName: __ZNKSt3__18functionIFmP8SSS_NodeIfEmEEcvbB7v160006Ev, symObjAddr: 0x1D110, symBinAddr: 0x10001E8B8, symSize: 0x28 }
  - { offsetInCU: 0x47ECA, offset: 0x47ECA, size: 0x8, addend: 0x0, symName: __ZNKSt3__110__function12__value_funcIFmP8SSS_NodeIfEmEEcvbB7v160006Ev, symObjAddr: 0x1D138, symBinAddr: 0x10001E8E0, symSize: 0x24 }
  - { offsetInCU: 0x47EF0, offset: 0x47EF0, size: 0x8, addend: 0x0, symName: __ZN11SSS_BackendIfE3getEmPPf, symObjAddr: 0x1D15C, symBinAddr: 0x10001E904, symSize: 0x40 }
  - { offsetInCU: 0x47F32, offset: 0x47F32, size: 0x8, addend: 0x0, symName: __ZN9SSS_MixerIfE23sample_mixer_buffer_outEmPPf, symObjAddr: 0x1D19C, symBinAddr: 0x10001E944, symSize: 0x290 }
  - { offsetInCU: 0x48024, offset: 0x48024, size: 0x8, addend: 0x0, symName: __ZN10SSS_BufferIfE6read_nEPfi, symObjAddr: 0x1D42C, symBinAddr: 0x10001EBD4, symSize: 0x144 }
  - { offsetInCU: 0x48091, offset: 0x48091, size: 0x8, addend: 0x0, symName: __ZNSt3__16vectorIfNS_9allocatorIfEEEC1EmRKf, symObjAddr: 0x1D570, symBinAddr: 0x10001ED18, symSize: 0x3C }
  - { offsetInCU: 0x480DB, offset: 0x480DB, size: 0x8, addend: 0x0, symName: __ZNSt3__16vectorIfNS_9allocatorIfEEEaSB7v160006EOS3_, symObjAddr: 0x1D5AC, symBinAddr: 0x10001ED54, symSize: 0x34 }
  - { offsetInCU: 0x48112, offset: 0x48112, size: 0x8, addend: 0x0, symName: __ZN8SSS_File10get_bufferEm, symObjAddr: 0x1D5E0, symBinAddr: 0x10001ED88, symSize: 0x22C }
  - { offsetInCU: 0x48181, offset: 0x48181, size: 0x8, addend: 0x0, symName: __ZNKSt3__18functionIFvP9SSS_MixerIfEPfmEEclES3_S4_m, symObjAddr: 0x1D838, symBinAddr: 0x10001EFE0, symSize: 0x48 }
  - { offsetInCU: 0x481D6, offset: 0x481D6, size: 0x8, addend: 0x0, symName: __ZN8SSS_FifoIfE7dequeueERf, symObjAddr: 0x1D880, symBinAddr: 0x10001F028, symSize: 0x11C }
  - { offsetInCU: 0x48234, offset: 0x48234, size: 0x8, addend: 0x0, symName: __ZN10SSS_BufferIfE7write_nEPfi, symObjAddr: 0x1D99C, symBinAddr: 0x10001F144, symSize: 0x134 }
  - { offsetInCU: 0x48293, offset: 0x48293, size: 0x8, addend: 0x0, symName: __ZNSt3__16vectorIfNS_9allocatorIfEEE4dataB7v160006Ev, symObjAddr: 0x1DAD0, symBinAddr: 0x10001F278, symSize: 0x28 }
  - { offsetInCU: 0x482B9, offset: 0x482B9, size: 0x8, addend: 0x0, symName: __ZNSt3__16vectorIfNS_9allocatorIfEEEC2EmRKf, symObjAddr: 0x1DAF8, symBinAddr: 0x10001F2A0, symSize: 0xE4 }
  - { offsetInCU: 0x48318, offset: 0x48318, size: 0x8, addend: 0x0, symName: __ZNSt3__16vectorIfNS_9allocatorIfEEE11__vallocateB7v160006Em, symObjAddr: 0x1DC1C, symBinAddr: 0x10001F3C4, symSize: 0xAC }
  - { offsetInCU: 0x4835C, offset: 0x4835C, size: 0x8, addend: 0x0, symName: __ZNSt3__16vectorIfNS_9allocatorIfEEE18__construct_at_endEmRKf, symObjAddr: 0x1DCC8, symBinAddr: 0x10001F470, symSize: 0xD0 }
  - { offsetInCU: 0x483DE, offset: 0x483DE, size: 0x8, addend: 0x0, symName: __ZNSt3__128__exception_guard_exceptionsINS_6vectorIfNS_9allocatorIfEEE16__destroy_vectorEE10__completeB7v160006Ev, symObjAddr: 0x1DD98, symBinAddr: 0x10001F540, symSize: 0x1C }
  - { offsetInCU: 0x48404, offset: 0x48404, size: 0x8, addend: 0x0, symName: __ZNSt3__128__exception_guard_exceptionsINS_6vectorIfNS_9allocatorIfEEE16__destroy_vectorEED1B7v160006Ev, symObjAddr: 0x1DDB4, symBinAddr: 0x10001F55C, symSize: 0x2C }
  - { offsetInCU: 0x4842E, offset: 0x4842E, size: 0x8, addend: 0x0, symName: __ZNSt3__128__exception_guard_exceptionsINS_6vectorIfNS_9allocatorIfEEE16__destroy_vectorEEC1B7v160006ES5_, symObjAddr: 0x1DDE0, symBinAddr: 0x10001F588, symSize: 0x34 }
  - { offsetInCU: 0x48466, offset: 0x48466, size: 0x8, addend: 0x0, symName: __ZNSt3__128__exception_guard_exceptionsINS_6vectorIfNS_9allocatorIfEEE16__destroy_vectorEEC2B7v160006ES5_, symObjAddr: 0x1DE14, symBinAddr: 0x10001F5BC, symSize: 0x24 }
  - { offsetInCU: 0x4849E, offset: 0x4849E, size: 0x8, addend: 0x0, symName: __ZNKSt3__16vectorIfNS_9allocatorIfEEE8max_sizeEv, symObjAddr: 0x1DE38, symBinAddr: 0x10001F5E0, symSize: 0x60 }
  - { offsetInCU: 0x484C6, offset: 0x484C6, size: 0x8, addend: 0x0, symName: __ZNKSt3__16vectorIfNS_9allocatorIfEEE20__throw_length_errorB7v160006Ev, symObjAddr: 0x1DE98, symBinAddr: 0x10001F640, symSize: 0x1C }
  - { offsetInCU: 0x484EC, offset: 0x484EC, size: 0x8, addend: 0x0, symName: __ZNSt3__16vectorIfNS_9allocatorIfEEE9__end_capB7v160006Ev, symObjAddr: 0x1DEF4, symBinAddr: 0x10001F69C, symSize: 0x28 }
  - { offsetInCU: 0x48512, offset: 0x48512, size: 0x8, addend: 0x0, symName: __ZNKSt3__16vectorIfNS_9allocatorIfEEE14__annotate_newB7v160006Em, symObjAddr: 0x1DF1C, symBinAddr: 0x10001F6C4, symSize: 0xAC }
  - { offsetInCU: 0x48552, offset: 0x48552, size: 0x8, addend: 0x0, symName: __ZNSt3__116allocator_traitsINS_9allocatorIfEEE8max_sizeB7v160006IS2_vvEEmRKS2_, symObjAddr: 0x1DFC8, symBinAddr: 0x10001F770, symSize: 0x28 }
  - { offsetInCU: 0x4857E, offset: 0x4857E, size: 0x8, addend: 0x0, symName: __ZNKSt3__16vectorIfNS_9allocatorIfEEE7__allocB7v160006Ev, symObjAddr: 0x1DFF0, symBinAddr: 0x10001F798, symSize: 0x28 }
  - { offsetInCU: 0x485A4, offset: 0x485A4, size: 0x8, addend: 0x0, symName: __ZNKSt3__117__compressed_pairIPfNS_9allocatorIfEEE6secondB7v160006Ev, symObjAddr: 0x1E018, symBinAddr: 0x10001F7C0, symSize: 0x24 }
  - { offsetInCU: 0x485CA, offset: 0x485CA, size: 0x8, addend: 0x0, symName: __ZNKSt3__122__compressed_pair_elemINS_9allocatorIfEELi1ELb1EE5__getB7v160006Ev, symObjAddr: 0x1E03C, symBinAddr: 0x10001F7E4, symSize: 0x14 }
  - { offsetInCU: 0x485F0, offset: 0x485F0, size: 0x8, addend: 0x0, symName: __ZNSt3__19allocatorIfE8allocateB7v160006Em, symObjAddr: 0x1E050, symBinAddr: 0x10001F7F8, symSize: 0x58 }
  - { offsetInCU: 0x48624, offset: 0x48624, size: 0x8, addend: 0x0, symName: __ZNSt3__117__compressed_pairIPfNS_9allocatorIfEEE5firstB7v160006Ev, symObjAddr: 0x1E0A8, symBinAddr: 0x10001F850, symSize: 0x24 }
  - { offsetInCU: 0x4864A, offset: 0x4864A, size: 0x8, addend: 0x0, symName: __ZNSt3__122__compressed_pair_elemIPfLi0ELb0EE5__getB7v160006Ev, symObjAddr: 0x1E0CC, symBinAddr: 0x10001F874, symSize: 0x14 }
  - { offsetInCU: 0x4868B, offset: 0x4868B, size: 0x8, addend: 0x0, symName: __ZNSt3__16vectorIfNS_9allocatorIfEEE21_ConstructTransactionC1B7v160006ERS3_m, symObjAddr: 0x1E0E0, symBinAddr: 0x10001F888, symSize: 0x3C }
  - { offsetInCU: 0x486D3, offset: 0x486D3, size: 0x8, addend: 0x0, symName: __ZNSt3__116allocator_traitsINS_9allocatorIfEEE9constructB7v160006IfJRKfEvvEEvRS2_PT_DpOT0_, symObjAddr: 0x1E11C, symBinAddr: 0x10001F8C4, symSize: 0x30 }
  - { offsetInCU: 0x48728, offset: 0x48728, size: 0x8, addend: 0x0, symName: __ZNSt3__16vectorIfNS_9allocatorIfEEE21_ConstructTransactionD1B7v160006Ev, symObjAddr: 0x1E14C, symBinAddr: 0x10001F8F4, symSize: 0x2C }
  - { offsetInCU: 0x48752, offset: 0x48752, size: 0x8, addend: 0x0, symName: __ZNSt3__16vectorIfNS_9allocatorIfEEE21_ConstructTransactionC2B7v160006ERS3_m, symObjAddr: 0x1E178, symBinAddr: 0x10001F920, symSize: 0x44 }
  - { offsetInCU: 0x4879A, offset: 0x4879A, size: 0x8, addend: 0x0, symName: __ZNSt3__16vectorIfNS_9allocatorIfEEE21_ConstructTransactionD2B7v160006Ev, symObjAddr: 0x1E1E8, symBinAddr: 0x10001F990, symSize: 0x20 }
  - { offsetInCU: 0x487C4, offset: 0x487C4, size: 0x8, addend: 0x0, symName: __ZNSt3__128__exception_guard_exceptionsINS_6vectorIfNS_9allocatorIfEEE16__destroy_vectorEED2B7v160006Ev, symObjAddr: 0x1E208, symBinAddr: 0x10001F9B0, symSize: 0x50 }
  - { offsetInCU: 0x487EE, offset: 0x487EE, size: 0x8, addend: 0x0, symName: __ZNSt3__16vectorIfNS_9allocatorIfEEE13__move_assignERS3_NS_17integral_constantIbLb1EEE, symObjAddr: 0x1E258, symBinAddr: 0x10001FA00, symSize: 0xAC }
  - { offsetInCU: 0x48831, offset: 0x48831, size: 0x8, addend: 0x0, symName: __ZNSt3__16vectorIfNS_9allocatorIfEEE13__vdeallocateEv, symObjAddr: 0x1E304, symBinAddr: 0x10001FAAC, symSize: 0x8C }
  - { offsetInCU: 0x48859, offset: 0x48859, size: 0x8, addend: 0x0, symName: __ZNSt3__16vectorIfNS_9allocatorIfEEE19__move_assign_allocB7v160006ERS3_, symObjAddr: 0x1E390, symBinAddr: 0x10001FB38, symSize: 0x2C }
  - { offsetInCU: 0x4888E, offset: 0x4888E, size: 0x8, addend: 0x0, symName: __ZNSt3__16vectorIfNS_9allocatorIfEEE5clearB7v160006Ev, symObjAddr: 0x1E3D0, symBinAddr: 0x10001FB78, symSize: 0x54 }
  - { offsetInCU: 0x488C3, offset: 0x488C3, size: 0x8, addend: 0x0, symName: __ZNKSt3__16vectorIfNS_9allocatorIfEEE17__annotate_shrinkB7v160006Em, symObjAddr: 0x1E424, symBinAddr: 0x10001FBCC, symSize: 0xB4 }
  - { offsetInCU: 0x488F8, offset: 0x488F8, size: 0x8, addend: 0x0, symName: __ZNSt3__16vectorIfNS_9allocatorIfEEE19__move_assign_allocB7v160006ERS3_NS_17integral_constantIbLb1EEE, symObjAddr: 0x1E4E8, symBinAddr: 0x10001FC90, symSize: 0x38 }
  - { offsetInCU: 0x48939, offset: 0x48939, size: 0x8, addend: 0x0, symName: __ZNSt3__16vectorIcNS_9allocatorIcEEEC1EmRKc, symObjAddr: 0x1E520, symBinAddr: 0x10001FCC8, symSize: 0x3C }
  - { offsetInCU: 0x48983, offset: 0x48983, size: 0x8, addend: 0x0, symName: __ZNSt3__16vectorIcNS_9allocatorIcEEE5beginB7v160006Ev, symObjAddr: 0x1E55C, symBinAddr: 0x10001FD04, symSize: 0x30 }
  - { offsetInCU: 0x489AB, offset: 0x489AB, size: 0x8, addend: 0x0, symName: __ZNKSt3__111__wrap_iterIPcEplB7v160006El, symObjAddr: 0x1E58C, symBinAddr: 0x10001FD34, symSize: 0x3C }
  - { offsetInCU: 0x489ED, offset: 0x489ED, size: 0x8, addend: 0x0, symName: __ZNKSt3__111__wrap_iterIPcEmiB7v160006El, symObjAddr: 0x1E5C8, symBinAddr: 0x10001FD70, symSize: 0x3C }
  - { offsetInCU: 0x48A21, offset: 0x48A21, size: 0x8, addend: 0x0, symName: __ZNSt3__16vectorIcNS_9allocatorIcEEEC1INS_11__wrap_iterIPcEELi0EEET_S8_, symObjAddr: 0x1E604, symBinAddr: 0x10001FDAC, symSize: 0x3C }
  - { offsetInCU: 0x48A7A, offset: 0x48A7A, size: 0x8, addend: 0x0, symName: __ZN8SSS_File11at_file_endEv, symObjAddr: 0x1E640, symBinAddr: 0x10001FDE8, symSize: 0x40 }
  - { offsetInCU: 0x48AA0, offset: 0x48AA0, size: 0x8, addend: 0x0, symName: __ZNSt3__16vectorIcNS_9allocatorIcEEEC2EmRKc, symObjAddr: 0x1E680, symBinAddr: 0x10001FE28, symSize: 0xE4 }
  - { offsetInCU: 0x48AFF, offset: 0x48AFF, size: 0x8, addend: 0x0, symName: __ZNSt3__16vectorIcNS_9allocatorIcEEE18__construct_at_endEmRKc, symObjAddr: 0x1E764, symBinAddr: 0x10001FF0C, symSize: 0xD0 }
  - { offsetInCU: 0x48B81, offset: 0x48B81, size: 0x8, addend: 0x0, symName: __ZNSt3__116allocator_traitsINS_9allocatorIcEEE9constructB7v160006IcJRKcEvvEEvRS2_PT_DpOT0_, symObjAddr: 0x1E834, symBinAddr: 0x10001FFDC, symSize: 0x30 }
  - { offsetInCU: 0x48BD6, offset: 0x48BD6, size: 0x8, addend: 0x0, symName: __ZNSt3__16vectorIcNS_9allocatorIcEEE11__make_iterB7v160006EPc, symObjAddr: 0x1E890, symBinAddr: 0x100020038, symSize: 0x34 }
  - { offsetInCU: 0x48C0B, offset: 0x48C0B, size: 0x8, addend: 0x0, symName: __ZNSt3__111__wrap_iterIPcEC1B7v160006EPKvS1_, symObjAddr: 0x1E8C4, symBinAddr: 0x10002006C, symSize: 0x3C }
  - { offsetInCU: 0x48C51, offset: 0x48C51, size: 0x8, addend: 0x0, symName: __ZNSt3__111__wrap_iterIPcEC2B7v160006EPKvS1_, symObjAddr: 0x1E900, symBinAddr: 0x1000200A8, symSize: 0x24 }
  - { offsetInCU: 0x48C97, offset: 0x48C97, size: 0x8, addend: 0x0, symName: __ZNSt3__111__wrap_iterIPcEpLB7v160006El, symObjAddr: 0x1E924, symBinAddr: 0x1000200CC, symSize: 0x28 }
  - { offsetInCU: 0x48CCB, offset: 0x48CCB, size: 0x8, addend: 0x0, symName: __ZNSt3__16vectorIcNS_9allocatorIcEEEC2INS_11__wrap_iterIPcEELi0EEET_S8_, symObjAddr: 0x1E94C, symBinAddr: 0x1000200F4, symSize: 0x124 }
  - { offsetInCU: 0x48D49, offset: 0x48D49, size: 0x8, addend: 0x0, symName: __ZNSt3__16vectorIcNS_9allocatorIcEEE18__construct_at_endINS_11__wrap_iterIPcEELi0EEEvT_S8_m, symObjAddr: 0x1EAAC, symBinAddr: 0x100020254, symSize: 0x9C }
  - { offsetInCU: 0x48DBC, offset: 0x48DBC, size: 0x8, addend: 0x0, symName: __ZNKSt3__111__wrap_iterIPcE4baseB7v160006Ev, symObjAddr: 0x1EBB8, symBinAddr: 0x100020360, symSize: 0x18 }
  - { offsetInCU: 0x48DE2, offset: 0x48DE2, size: 0x8, addend: 0x0, symName: __ZNKSt3__111__wrap_iterIPcEdeB7v160006Ev, symObjAddr: 0x1ECFC, symBinAddr: 0x1000204A4, symSize: 0x18 }
  - { offsetInCU: 0x48E08, offset: 0x48E08, size: 0x8, addend: 0x0, symName: __ZNSt3__111__wrap_iterIPcEppB7v160006Ev, symObjAddr: 0x1ED14, symBinAddr: 0x1000204BC, symSize: 0x20 }
  - { offsetInCU: 0x48E2E, offset: 0x48E2E, size: 0x8, addend: 0x0, symName: __ZNKSt3__18functionIFvP9SSS_MixerIfEPfmEEcvbB7v160006Ev, symObjAddr: 0x1ED7C, symBinAddr: 0x100020524, symSize: 0x28 }
  - { offsetInCU: 0x48E54, offset: 0x48E54, size: 0x8, addend: 0x0, symName: __ZNKSt3__110__function12__value_funcIFvP9SSS_MixerIfEPfmEEcvbB7v160006Ev, symObjAddr: 0x1EDA4, symBinAddr: 0x10002054C, symSize: 0x24 }
  - { offsetInCU: 0x48E7A, offset: 0x48E7A, size: 0x8, addend: 0x0, symName: __ZNKSt3__110__function12__value_funcIFvP9SSS_MixerIfEPfmEEclB7v160006EOS4_OS5_Om, symObjAddr: 0x1EDC8, symBinAddr: 0x100020570, symSize: 0x68 }
  - { offsetInCU: 0x48ECD, offset: 0x48ECD, size: 0x8, addend: 0x0, symName: __ZN16CoreAudioBackendIfE12list_devicesEv, symObjAddr: 0x1EE30, symBinAddr: 0x1000205D8, symSize: 0x180 }
  - { offsetInCU: 0x48F9E, offset: 0x48F9E, size: 0x8, addend: 0x0, symName: __ZNSt3__16vectorIjNS_9allocatorIjEEE5beginB7v160006Ev, symObjAddr: 0x1EFB0, symBinAddr: 0x100020758, symSize: 0x30 }
  - { offsetInCU: 0x48FC6, offset: 0x48FC6, size: 0x8, addend: 0x0, symName: __ZNSt3__16vectorIjNS_9allocatorIjEEE3endB7v160006Ev, symObjAddr: 0x1EFE0, symBinAddr: 0x100020788, symSize: 0x30 }
  - { offsetInCU: 0x48FEE, offset: 0x48FEE, size: 0x8, addend: 0x0, symName: __ZNKSt3__111__wrap_iterIPjEdeB7v160006Ev, symObjAddr: 0x1F044, symBinAddr: 0x1000207EC, symSize: 0x18 }
  - { offsetInCU: 0x49014, offset: 0x49014, size: 0x8, addend: 0x0, symName: __ZNSt3__111__wrap_iterIPjEppB7v160006Ev, symObjAddr: 0x1F05C, symBinAddr: 0x100020804, symSize: 0x20 }
  - { offsetInCU: 0x4903A, offset: 0x4903A, size: 0x8, addend: 0x0, symName: __ZNSt3__16vectorIjNS_9allocatorIjEEE11__make_iterB7v160006EPj, symObjAddr: 0x1F07C, symBinAddr: 0x100020824, symSize: 0x34 }
  - { offsetInCU: 0x4906F, offset: 0x4906F, size: 0x8, addend: 0x0, symName: __ZNSt3__111__wrap_iterIPjEC1B7v160006EPKvS1_, symObjAddr: 0x1F0B0, symBinAddr: 0x100020858, symSize: 0x3C }
  - { offsetInCU: 0x490B5, offset: 0x490B5, size: 0x8, addend: 0x0, symName: __ZNSt3__111__wrap_iterIPjEC2B7v160006EPKvS1_, symObjAddr: 0x1F0EC, symBinAddr: 0x100020894, symSize: 0x24 }
  - { offsetInCU: 0x490FB, offset: 0x490FB, size: 0x8, addend: 0x0, symName: __ZNKSt3__111__wrap_iterIPjE4baseB7v160006Ev, symObjAddr: 0x1F158, symBinAddr: 0x100020900, symSize: 0x18 }
  - { offsetInCU: 0x49121, offset: 0x49121, size: 0x8, addend: 0x0, symName: __ZN16CoreAudioBackendIfE5startEv, symObjAddr: 0x1F170, symBinAddr: 0x100020918, symSize: 0x7C }
  - { offsetInCU: 0x49156, offset: 0x49156, size: 0x8, addend: 0x0, symName: __ZNSt3__16chrono8durationIxNS_5ratioILl1ELl1EEEE4zeroB7v160006Ev, symObjAddr: 0x1F21C, symBinAddr: 0x1000209C4, symSize: 0x3C }
  - { offsetInCU: 0x4916A, offset: 0x4916A, size: 0x8, addend: 0x0, symName: __ZNSt3__16chrono8durationIxNS_5ratioILl1ELl1000000000EEEEppB7v160006Ev, symObjAddr: 0x1F2F0, symBinAddr: 0x100020A98, symSize: 0x20 }
  - { offsetInCU: 0x49190, offset: 0x49190, size: 0x8, addend: 0x0, symName: __ZNSt3__16chrono8durationIxNS_5ratioILl1ELl1000000000EEEE3maxB7v160006Ev, symObjAddr: 0x1F310, symBinAddr: 0x100020AB8, symSize: 0x3C }
  - { offsetInCU: 0x491AE, offset: 0x491AE, size: 0x8, addend: 0x0, symName: __ZNKSt3__16chrono13__duration_ltINS0_8durationIxNS_5ratioILl1ELl1EEEEES5_EclB7v160006ERKS5_S8_, symObjAddr: 0x1F380, symBinAddr: 0x100020B28, symSize: 0x4C }
  - { offsetInCU: 0x491F2, offset: 0x491F2, size: 0x8, addend: 0x0, symName: __ZNKSt3__16chrono8durationIxNS_5ratioILl1ELl1EEEE5countB7v160006Ev, symObjAddr: 0x1F3CC, symBinAddr: 0x100020B74, symSize: 0x18 }
  - { offsetInCU: 0x49218, offset: 0x49218, size: 0x8, addend: 0x0, symName: __ZNSt3__16chrono8durationIxNS_5ratioILl1ELl1EEEEC1B7v160006IxEERKT_PNS_9enable_ifIXaasr14is_convertibleIS8_xEE5valueooL_ZNS_17integral_constantIbLb0EE5valueEEntsr23treat_as_floating_pointIS6_EE5valueEvE4typeE, symObjAddr: 0x1F3E4, symBinAddr: 0x100020B8C, symSize: 0x3C }
  - { offsetInCU: 0x49265, offset: 0x49265, size: 0x8, addend: 0x0, symName: __ZNSt3__16chrono8durationIxNS_5ratioILl1ELl1EEEEC2B7v160006IxEERKT_PNS_9enable_ifIXaasr14is_convertibleIS8_xEE5valueooL_ZNS_17integral_constantIbLb0EE5valueEEntsr23treat_as_floating_pointIS6_EE5valueEvE4typeE, symObjAddr: 0x1F420, symBinAddr: 0x100020BC8, symSize: 0x28 }
  - { offsetInCU: 0x492B2, offset: 0x492B2, size: 0x8, addend: 0x0, symName: __ZNSt3__16chrono8durationIeNS_5ratioILl1ELl1EEEEC1B7v160006IxS3_EERKNS1_IT_T0_EEPNS_9enable_ifIXaasr13__no_overflowIS7_S3_EE5valueooL_ZNS_17integral_constantIbLb1EE5valueEEaaeqsr13__no_overflowIS7_S3_E4typeE3denLi1Entsr23treat_as_floating_pointIS6_EE5valueEvE4typeE, symObjAddr: 0x1F4B4, symBinAddr: 0x100020C5C, symSize: 0x3C }
  - { offsetInCU: 0x49309, offset: 0x49309, size: 0x8, addend: 0x0, symName: __ZNKSt3__16chrono8durationIeNS_5ratioILl1ELl1EEEE5countB7v160006Ev, symObjAddr: 0x1F4F0, symBinAddr: 0x100020C98, symSize: 0x18 }
  - { offsetInCU: 0x4932F, offset: 0x4932F, size: 0x8, addend: 0x0, symName: __ZNSt3__16chrono8durationIeNS_5ratioILl1ELl1EEEEC2B7v160006IxS3_EERKNS1_IT_T0_EEPNS_9enable_ifIXaasr13__no_overflowIS7_S3_EE5valueooL_ZNS_17integral_constantIbLb1EE5valueEEaaeqsr13__no_overflowIS7_S3_E4typeE3denLi1Entsr23treat_as_floating_pointIS6_EE5valueEvE4typeE, symObjAddr: 0x1F508, symBinAddr: 0x100020CB0, symSize: 0x48 }
  - { offsetInCU: 0x49390, offset: 0x49390, size: 0x8, addend: 0x0, symName: __ZNKSt3__16chrono15__duration_castINS0_8durationIxNS_5ratioILl1ELl1EEEEENS2_IeS4_EES4_Lb1ELb1EEclB7v160006ERKS5_, symObjAddr: 0x1F580, symBinAddr: 0x100020D28, symSize: 0x44 }
  - { offsetInCU: 0x493CF, offset: 0x493CF, size: 0x8, addend: 0x0, symName: __ZNSt3__16chrono8durationIeNS_5ratioILl1ELl1EEEEC1B7v160006IeEERKT_PNS_9enable_ifIXaasr14is_convertibleIS8_eEE5valueooL_ZNS_17integral_constantIbLb1EE5valueEEntsr23treat_as_floating_pointIS6_EE5valueEvE4typeE, symObjAddr: 0x1F5C4, symBinAddr: 0x100020D6C, symSize: 0x3C }
  - { offsetInCU: 0x4941C, offset: 0x4941C, size: 0x8, addend: 0x0, symName: __ZNSt3__16chrono8durationIeNS_5ratioILl1ELl1EEEEC2B7v160006IeEERKT_PNS_9enable_ifIXaasr14is_convertibleIS8_eEE5valueooL_ZNS_17integral_constantIbLb1EE5valueEEntsr23treat_as_floating_pointIS6_EE5valueEvE4typeE, symObjAddr: 0x1F600, symBinAddr: 0x100020DA8, symSize: 0x28 }
  - { offsetInCU: 0x49469, offset: 0x49469, size: 0x8, addend: 0x0, symName: __ZNSt3__16chrono8durationIxNS_5ratioILl1ELl1000000000EEEEC1B7v160006IxNS2_ILl1ELl1EEEEERKNS1_IT_T0_EEPNS_9enable_ifIXaasr13__no_overflowIS8_S3_EE5valueooL_ZNS_17integral_constantIbLb0EE5valueEEaaeqsr13__no_overflowIS8_S3_E4typeE3denLi1Entsr23treat_as_floating_pointIS7_EE5valueEvE4typeE, symObjAddr: 0x1F6E0, symBinAddr: 0x100020E88, symSize: 0x3C }
  - { offsetInCU: 0x494C0, offset: 0x494C0, size: 0x8, addend: 0x0, symName: __ZNSt3__16chrono8durationIxNS_5ratioILl1ELl1000000000EEEEC2B7v160006IxNS2_ILl1ELl1EEEEERKNS1_IT_T0_EEPNS_9enable_ifIXaasr13__no_overflowIS8_S3_EE5valueooL_ZNS_17integral_constantIbLb0EE5valueEEaaeqsr13__no_overflowIS8_S3_E4typeE3denLi1Entsr23treat_as_floating_pointIS7_EE5valueEvE4typeE, symObjAddr: 0x1F71C, symBinAddr: 0x100020EC4, symSize: 0x50 }
  - { offsetInCU: 0x49517, offset: 0x49517, size: 0x8, addend: 0x0, symName: __ZNSt3__16chrono15duration_valuesIxE3maxB7v160006Ev, symObjAddr: 0x1F76C, symBinAddr: 0x100020F14, symSize: 0x14 }
  - { offsetInCU: 0x4952B, offset: 0x4952B, size: 0x8, addend: 0x0, symName: __ZNSt3__114numeric_limitsIxE3maxB7v160006Ev, symObjAddr: 0x1F780, symBinAddr: 0x100020F28, symSize: 0x14 }
  - { offsetInCU: 0x4953F, offset: 0x4953F, size: 0x8, addend: 0x0, symName: __ZNSt3__123__libcpp_numeric_limitsIxLb1EE3maxB7v160006Ev, symObjAddr: 0x1F794, symBinAddr: 0x100020F3C, symSize: 0x8 }
  - { offsetInCU: 0x49553, offset: 0x49553, size: 0x8, addend: 0x0, symName: __ZN16CoreAudioBackendIfE4stopEv, symObjAddr: 0x1F79C, symBinAddr: 0x100020F44, symSize: 0x44 }
...
